ARM GAS  C:\Users\gsgill\AppData\Local\Temp\cc7mh6Ix.s 			page 1


   1              		.cpu cortex-m0
   2              		.fpu softvfp
   3              		.eabi_attribute 20, 1
   4              		.eabi_attribute 21, 1
   5              		.eabi_attribute 23, 3
   6              		.eabi_attribute 24, 1
   7              		.eabi_attribute 25, 1
   8              		.eabi_attribute 26, 1
   9              		.eabi_attribute 30, 6
  10              		.eabi_attribute 34, 0
  11              		.eabi_attribute 18, 4
  12              		.code	16
  13              		.file	"CapSense_CSD_SMS.c"
  14              		.text
  15              	.Ltext0:
  16              		.cfi_sections	.debug_frame
  17              		.global	prescalerTable
  18              		.section	.rodata
  19              		.align	2
  20              		.type	prescalerTable, %object
  21              		.size	prescalerTable, 16
  22              	prescalerTable:
  23 0000 01       		.byte	1
  24 0001 01       		.byte	1
  25 0002 01       		.byte	1
  26 0003 02       		.byte	2
  27 0004 02       		.byte	2
  28 0005 02       		.byte	2
  29 0006 02       		.byte	2
  30 0007 04       		.byte	4
  31 0008 04       		.byte	4
  32 0009 04       		.byte	4
  33 000a 04       		.byte	4
  34 000b 04       		.byte	4
  35 000c 04       		.byte	4
  36 000d 04       		.byte	4
  37 000e 04       		.byte	4
  38 000f 04       		.byte	4
  39              		.comm	noiseEnvelopeTbl,12,4
  40              		.comm	runningDifferenceTbl,12,4
  41              		.comm	signRegisterTbl,12,4
  42              		.comm	sampleMinTbl,24,4
  43              		.comm	sampleMaxTbl,24,4
  44              		.comm	previousSampleTbl,24,4
  45              		.comm	kValueTbl,12,4
  46              		.global	SMS_LIB_SensorSensitivity
  47              		.data
  48              		.align	2
  49              		.type	SMS_LIB_SensorSensitivity, %object
  50              		.size	SMS_LIB_SensorSensitivity, 12
  51              	SMS_LIB_SensorSensitivity:
  52 0000 04       		.byte	4
  53 0001 04       		.byte	4
  54 0002 04       		.byte	4
  55 0003 04       		.byte	4
  56 0004 04       		.byte	4
  57 0005 04       		.byte	4
ARM GAS  C:\Users\gsgill\AppData\Local\Temp\cc7mh6Ix.s 			page 2


  58 0006 04       		.byte	4
  59 0007 04       		.byte	4
  60 0008 04       		.byte	4
  61 0009 04       		.byte	4
  62 000a 04       		.byte	4
  63 000b 04       		.byte	4
  64              		.comm	CapSense_CSD_config,12,4
  65              		.global	CapSense_CSD_configPointers
  66              		.section	.rodata
  67              		.align	2
  68              		.type	CapSense_CSD_configPointers, %object
  69              		.size	CapSense_CSD_configPointers, 56
  70              	CapSense_CSD_configPointers:
  71 0010 00000000 		.word	CapSense_CSD_modulationIDAC
  72 0014 00000000 		.word	CapSense_CSD_compensationIDAC
  73 0018 00000000 		.word	SMS_LIB_SensorSensitivity
  74 001c 00000000 		.word	CapSense_CSD_senseClkDividerVal
  75 0020 00000000 		.word	CapSense_CSD_sampleClkDividerVal
  76 0024 00000000 		.word	CapSense_CSD_widgetNumber
  77 0028 00000000 		.word	CapSense_CSD_widgetResolution
  78 002c 00000000 		.word	CapSense_CSD_rawDataIndex
  79 0030 00000000 		.word	CapSense_CSD_numberOfSensors
  80 0034 00000000 		.word	CapSense_CSD_GetSensorRaw
  81 0038 00000000 		.word	CapSense_CSD_PreScan
  82 003c 00000000 		.word	CapSense_CSD_ReadSensorRaw
  83 0040 00000000 		.word	CapSense_CSD_GetBitValue
  84 0044 00000000 		.word	CapSense_CSD_SetBitValue
  85              		.section	.text.CapSense_CSD_AutoTune,"ax",%progbits
  86              		.align	2
  87              		.global	CapSense_CSD_AutoTune
  88              		.code	16
  89              		.thumb_func
  90              		.type	CapSense_CSD_AutoTune, %function
  91              	CapSense_CSD_AutoTune:
  92              	.LFB33:
  93              		.file 1 ".\\Generated_Source\\PSoC4\\CapSense_CSD_SMS.c"
   1:.\Generated_Source\PSoC4/CapSense_CSD_SMS.c **** /*******************************************************************************
   2:.\Generated_Source\PSoC4/CapSense_CSD_SMS.c **** * File Name: CapSense_CSD_SMS.c
   3:.\Generated_Source\PSoC4/CapSense_CSD_SMS.c **** * Version 2.10
   4:.\Generated_Source\PSoC4/CapSense_CSD_SMS.c **** *
   5:.\Generated_Source\PSoC4/CapSense_CSD_SMS.c **** * Description:
   6:.\Generated_Source\PSoC4/CapSense_CSD_SMS.c **** *  This file provides the source code of wrapper between CapSense CSD component 
   7:.\Generated_Source\PSoC4/CapSense_CSD_SMS.c **** *  and Auto Tuning library.
   8:.\Generated_Source\PSoC4/CapSense_CSD_SMS.c **** *
   9:.\Generated_Source\PSoC4/CapSense_CSD_SMS.c **** * Note:
  10:.\Generated_Source\PSoC4/CapSense_CSD_SMS.c **** *
  11:.\Generated_Source\PSoC4/CapSense_CSD_SMS.c **** ********************************************************************************
  12:.\Generated_Source\PSoC4/CapSense_CSD_SMS.c **** * Copyright 2014, Cypress Semiconductor Corporation.  All rights reserved.
  13:.\Generated_Source\PSoC4/CapSense_CSD_SMS.c **** * You may use this file only in accordance with the license, terms, conditions,
  14:.\Generated_Source\PSoC4/CapSense_CSD_SMS.c **** * disclaimers, and limitations in the end user license agreement accompanying
  15:.\Generated_Source\PSoC4/CapSense_CSD_SMS.c **** * the software package with which this file was provided.
  16:.\Generated_Source\PSoC4/CapSense_CSD_SMS.c **** *******************************************************************************/
  17:.\Generated_Source\PSoC4/CapSense_CSD_SMS.c **** 
  18:.\Generated_Source\PSoC4/CapSense_CSD_SMS.c **** #include "CapSense_CSD_SMS.h"
  19:.\Generated_Source\PSoC4/CapSense_CSD_SMS.c **** #include "CapSense_CSD_PVT.h"
  20:.\Generated_Source\PSoC4/CapSense_CSD_SMS.c **** 
  21:.\Generated_Source\PSoC4/CapSense_CSD_SMS.c **** #include "cytypes.h"
ARM GAS  C:\Users\gsgill\AppData\Local\Temp\cc7mh6Ix.s 			page 3


  22:.\Generated_Source\PSoC4/CapSense_CSD_SMS.c **** 
  23:.\Generated_Source\PSoC4/CapSense_CSD_SMS.c **** #if (CapSense_CSD_TUNING_METHOD == CapSense_CSD__TUNING_AUTO)
  24:.\Generated_Source\PSoC4/CapSense_CSD_SMS.c **** 
  25:.\Generated_Source\PSoC4/CapSense_CSD_SMS.c **** 
  26:.\Generated_Source\PSoC4/CapSense_CSD_SMS.c **** /*  Real Charge Divider values */
  27:.\Generated_Source\PSoC4/CapSense_CSD_SMS.c **** #if (CY_PSOC4_4200BL)
  28:.\Generated_Source\PSoC4/CapSense_CSD_SMS.c ****     /*  Dividers are not chained */
  29:.\Generated_Source\PSoC4/CapSense_CSD_SMS.c **** 	#if (CYDEV_BCLK__HFCLK__MHZ > 24u)
  30:.\Generated_Source\PSoC4/CapSense_CSD_SMS.c **** 		const uint8 prescalerTable[CapSense_CSD_PRESCALERS_TBL_SIZE] = {
  31:.\Generated_Source\PSoC4/CapSense_CSD_SMS.c **** 			4u,     4u,     4u,    8u,    8u,    8u,    8u,    16u,    16u,    16u,    16u,    16u,    16u, 
  32:.\Generated_Source\PSoC4/CapSense_CSD_SMS.c **** 		};
  33:.\Generated_Source\PSoC4/CapSense_CSD_SMS.c **** 	#elif (CYDEV_BCLK__HFCLK__MHZ >12u)
  34:.\Generated_Source\PSoC4/CapSense_CSD_SMS.c **** 		const uint8 prescalerTable[CapSense_CSD_PRESCALERS_TBL_SIZE] = {
  35:.\Generated_Source\PSoC4/CapSense_CSD_SMS.c **** 			2u,     2u,     2u,    4u,    4u,    4u,    4u,    8u,    8u,    8u,    8u,    8u,    8u,    8u,
  36:.\Generated_Source\PSoC4/CapSense_CSD_SMS.c **** 		};
  37:.\Generated_Source\PSoC4/CapSense_CSD_SMS.c **** 	#else   /* (CYDEV_BCLK__HFCLK__MHZ > 12u) */
  38:.\Generated_Source\PSoC4/CapSense_CSD_SMS.c **** 		const uint8 prescalerTable[CapSense_CSD_PRESCALERS_TBL_SIZE] = {
  39:.\Generated_Source\PSoC4/CapSense_CSD_SMS.c **** 			1u,     1u,     1u,    2u,    2u,    2u,    2u,    4u,    4u,    4u,    4u,    4u,    4u,    4u,
  40:.\Generated_Source\PSoC4/CapSense_CSD_SMS.c **** 		};
  41:.\Generated_Source\PSoC4/CapSense_CSD_SMS.c **** 	#endif /* (CYDEV_BCLK__HFCLK__MHZ > 24u) */
  42:.\Generated_Source\PSoC4/CapSense_CSD_SMS.c **** 	
  43:.\Generated_Source\PSoC4/CapSense_CSD_SMS.c **** #elif (0u != CapSense_CSD_IS_M0S8PERI_BLOCK)
  44:.\Generated_Source\PSoC4/CapSense_CSD_SMS.c ****     /*  Dividers are not chained */
  45:.\Generated_Source\PSoC4/CapSense_CSD_SMS.c **** 	#if (CYDEV_BCLK__HFCLK__MHZ >= 12u)
  46:.\Generated_Source\PSoC4/CapSense_CSD_SMS.c **** 		const uint8 prescalerTable[CapSense_CSD_PRESCALERS_TBL_SIZE] = {
  47:.\Generated_Source\PSoC4/CapSense_CSD_SMS.c **** 			1u,     1u,     1u,    2u,    2u,    2u,    2u,    4u,    4u,    4u,    4u,    4u,    4u,    4u,
  48:.\Generated_Source\PSoC4/CapSense_CSD_SMS.c **** 		};
  49:.\Generated_Source\PSoC4/CapSense_CSD_SMS.c **** 
  50:.\Generated_Source\PSoC4/CapSense_CSD_SMS.c **** 	#elif (CYDEV_BCLK__HFCLK__MHZ >= 6u)
  51:.\Generated_Source\PSoC4/CapSense_CSD_SMS.c **** 		const uint8 prescalerTable[CapSense_CSD_PRESCALERS_TBL_SIZE] = {
  52:.\Generated_Source\PSoC4/CapSense_CSD_SMS.c **** 			1u,     1u,     1u,    1u,    1u,    1u,    1u,    2u,    2u,    2u,    2u,    2u,    2u,    2u,
  53:.\Generated_Source\PSoC4/CapSense_CSD_SMS.c **** 		};
  54:.\Generated_Source\PSoC4/CapSense_CSD_SMS.c **** 	#else
  55:.\Generated_Source\PSoC4/CapSense_CSD_SMS.c **** 		const uint8 prescalerTable[CapSense_CSD_PRESCALERS_TBL_SIZE] = {
  56:.\Generated_Source\PSoC4/CapSense_CSD_SMS.c **** 			1u,     1u,     1u,    1u,    1u,    1u,    1u,    1u,    1u,    1u,    1u,    1u,    1u,    1u,
  57:.\Generated_Source\PSoC4/CapSense_CSD_SMS.c **** 		};
  58:.\Generated_Source\PSoC4/CapSense_CSD_SMS.c **** 	#endif /* (CYDEV_BCLK__HFCLK__MHZ > 12u) */
  59:.\Generated_Source\PSoC4/CapSense_CSD_SMS.c **** 
  60:.\Generated_Source\PSoC4/CapSense_CSD_SMS.c **** #else
  61:.\Generated_Source\PSoC4/CapSense_CSD_SMS.c ****     /*  Dividers are chained */ 
  62:.\Generated_Source\PSoC4/CapSense_CSD_SMS.c **** 	#if (CYDEV_BCLK__HFCLK__MHZ > 24u)
  63:.\Generated_Source\PSoC4/CapSense_CSD_SMS.c **** 		const uint8 prescalerTable[CapSense_CSD_PRESCALERS_TBL_SIZE] = {
  64:.\Generated_Source\PSoC4/CapSense_CSD_SMS.c **** 			2u,     2u,     2u,    4u,    4u,    4u,    4u,    8u,    8u,    8u,    8u,    8u,    8u,    8u,
  65:.\Generated_Source\PSoC4/CapSense_CSD_SMS.c **** 		};
  66:.\Generated_Source\PSoC4/CapSense_CSD_SMS.c **** 
  67:.\Generated_Source\PSoC4/CapSense_CSD_SMS.c **** 	#elif (CYDEV_BCLK__HFCLK__MHZ >12u)
  68:.\Generated_Source\PSoC4/CapSense_CSD_SMS.c **** 		const uint8 prescalerTable[CapSense_CSD_PRESCALERS_TBL_SIZE] = {
  69:.\Generated_Source\PSoC4/CapSense_CSD_SMS.c **** 			1u,     1u,     1u,    2u,    2u,    2u,    2u,    4u,    4u,    4u,    4u,    4u,    4u,    4u,
  70:.\Generated_Source\PSoC4/CapSense_CSD_SMS.c **** 		};
  71:.\Generated_Source\PSoC4/CapSense_CSD_SMS.c **** 	#else   /* (CYDEV_BCLK__HFCLK__MHZ > 12u) */
  72:.\Generated_Source\PSoC4/CapSense_CSD_SMS.c **** 		const uint8 prescalerTable[CapSense_CSD_PRESCALERS_TBL_SIZE] = {
  73:.\Generated_Source\PSoC4/CapSense_CSD_SMS.c **** 			1u,     1u,     1u,    1u,    1u,    1u,    1u,    2u,    2u,    2u,    2u,    2u,    2u,    2u,
  74:.\Generated_Source\PSoC4/CapSense_CSD_SMS.c **** 		};
  75:.\Generated_Source\PSoC4/CapSense_CSD_SMS.c **** 	#endif /* (CYDEV_BCLK__HFCLK__MHZ > 24u) */
  76:.\Generated_Source\PSoC4/CapSense_CSD_SMS.c **** #endif /* (0u != CapSense_CSD_IS_M0S8PERI_BLOCK) */
  77:.\Generated_Source\PSoC4/CapSense_CSD_SMS.c **** 
  78:.\Generated_Source\PSoC4/CapSense_CSD_SMS.c **** 
ARM GAS  C:\Users\gsgill\AppData\Local\Temp\cc7mh6Ix.s 			page 4


  79:.\Generated_Source\PSoC4/CapSense_CSD_SMS.c **** uint8 noiseEnvelopeTbl[CapSense_CSD_TOTAL_SENSOR_COUNT];
  80:.\Generated_Source\PSoC4/CapSense_CSD_SMS.c **** uint8 runningDifferenceTbl[CapSense_CSD_TOTAL_SENSOR_COUNT];
  81:.\Generated_Source\PSoC4/CapSense_CSD_SMS.c **** uint8 signRegisterTbl[CapSense_CSD_TOTAL_SENSOR_COUNT];
  82:.\Generated_Source\PSoC4/CapSense_CSD_SMS.c **** uint16 sampleMinTbl[CapSense_CSD_TOTAL_SENSOR_COUNT];
  83:.\Generated_Source\PSoC4/CapSense_CSD_SMS.c **** uint16 sampleMaxTbl[CapSense_CSD_TOTAL_SENSOR_COUNT];
  84:.\Generated_Source\PSoC4/CapSense_CSD_SMS.c **** uint16 previousSampleTbl[CapSense_CSD_TOTAL_SENSOR_COUNT];
  85:.\Generated_Source\PSoC4/CapSense_CSD_SMS.c **** uint8 kValueTbl[CapSense_CSD_TOTAL_SENSOR_COUNT];
  86:.\Generated_Source\PSoC4/CapSense_CSD_SMS.c **** 
  87:.\Generated_Source\PSoC4/CapSense_CSD_SMS.c **** uint8 SMS_LIB_SensorSensitivity[] = {
  88:.\Generated_Source\PSoC4/CapSense_CSD_SMS.c ****     4u, 4u, 4u, 4u, 4u, 4u, 4u, 4u, 4u, 4u, 4u, 4u, 
  89:.\Generated_Source\PSoC4/CapSense_CSD_SMS.c **** };
  90:.\Generated_Source\PSoC4/CapSense_CSD_SMS.c **** 
  91:.\Generated_Source\PSoC4/CapSense_CSD_SMS.c **** CapSense_CSD_CONFIG_TYPE_P4_v2_10 CapSense_CSD_config;
  92:.\Generated_Source\PSoC4/CapSense_CSD_SMS.c **** CapSense_CSD_CONFIG_TYPE_POINTERS_P4_v2_10 const CapSense_CSD_configPointers = {
  93:.\Generated_Source\PSoC4/CapSense_CSD_SMS.c ****     CapSense_CSD_modulationIDAC,
  94:.\Generated_Source\PSoC4/CapSense_CSD_SMS.c ****     CapSense_CSD_compensationIDAC,
  95:.\Generated_Source\PSoC4/CapSense_CSD_SMS.c ****      SMS_LIB_SensorSensitivity,
  96:.\Generated_Source\PSoC4/CapSense_CSD_SMS.c ****     CapSense_CSD_senseClkDividerVal,
  97:.\Generated_Source\PSoC4/CapSense_CSD_SMS.c ****     CapSense_CSD_sampleClkDividerVal,
  98:.\Generated_Source\PSoC4/CapSense_CSD_SMS.c ****     CapSense_CSD_widgetNumber,
  99:.\Generated_Source\PSoC4/CapSense_CSD_SMS.c ****     CapSense_CSD_widgetResolution,
 100:.\Generated_Source\PSoC4/CapSense_CSD_SMS.c **** 	(const uint8  *)CapSense_CSD_rawDataIndex,
 101:.\Generated_Source\PSoC4/CapSense_CSD_SMS.c **** 	(const uint8  *)CapSense_CSD_numberOfSensors,
 102:.\Generated_Source\PSoC4/CapSense_CSD_SMS.c ****     &CapSense_CSD_GetSensorRaw,
 103:.\Generated_Source\PSoC4/CapSense_CSD_SMS.c ****     &CapSense_CSD_PreScan,
 104:.\Generated_Source\PSoC4/CapSense_CSD_SMS.c ****     &CapSense_CSD_ReadSensorRaw,
 105:.\Generated_Source\PSoC4/CapSense_CSD_SMS.c ****     &CapSense_CSD_GetBitValue,
 106:.\Generated_Source\PSoC4/CapSense_CSD_SMS.c **** 	&CapSense_CSD_SetBitValue
 107:.\Generated_Source\PSoC4/CapSense_CSD_SMS.c **** };
 108:.\Generated_Source\PSoC4/CapSense_CSD_SMS.c **** 
 109:.\Generated_Source\PSoC4/CapSense_CSD_SMS.c **** 
 110:.\Generated_Source\PSoC4/CapSense_CSD_SMS.c **** /*******************************************************************************
 111:.\Generated_Source\PSoC4/CapSense_CSD_SMS.c **** * Function Name: CapSense_CSD_AutoTune
 112:.\Generated_Source\PSoC4/CapSense_CSD_SMS.c **** ********************************************************************************
 113:.\Generated_Source\PSoC4/CapSense_CSD_SMS.c **** *
 114:.\Generated_Source\PSoC4/CapSense_CSD_SMS.c **** * Summary:
 115:.\Generated_Source\PSoC4/CapSense_CSD_SMS.c **** *  Provides the tuning procedure for all sensors.
 116:.\Generated_Source\PSoC4/CapSense_CSD_SMS.c **** *
 117:.\Generated_Source\PSoC4/CapSense_CSD_SMS.c **** * Parameters:
 118:.\Generated_Source\PSoC4/CapSense_CSD_SMS.c **** *  None
 119:.\Generated_Source\PSoC4/CapSense_CSD_SMS.c **** *
 120:.\Generated_Source\PSoC4/CapSense_CSD_SMS.c **** * Return:
 121:.\Generated_Source\PSoC4/CapSense_CSD_SMS.c **** *  None
 122:.\Generated_Source\PSoC4/CapSense_CSD_SMS.c **** *
 123:.\Generated_Source\PSoC4/CapSense_CSD_SMS.c **** * Global Variables:
 124:.\Generated_Source\PSoC4/CapSense_CSD_SMS.c **** *   CapSense_CSD_config: the structure which contains configuration parameters
 125:.\Generated_Source\PSoC4/CapSense_CSD_SMS.c **** *   CapSense_CSD_senseClkDividerVal[]: used to store the Analog Switch 
 126:.\Generated_Source\PSoC4/CapSense_CSD_SMS.c **** *   dividers for each sensor.
 127:.\Generated_Source\PSoC4/CapSense_CSD_SMS.c **** *   CapSense_CSD_senseClkDividerVal[]: used to store the 
 128:.\Generated_Source\PSoC4/CapSense_CSD_SMS.c **** *    Analog Switch divider for all sensors.
 129:.\Generated_Source\PSoC4/CapSense_CSD_SMS.c **** *   CapSense_CSD_prescalersTuningDone - used to notify the Tuner GUI that 
 130:.\Generated_Source\PSoC4/CapSense_CSD_SMS.c **** *   the pre-scalers tuning  is done.
 131:.\Generated_Source\PSoC4/CapSense_CSD_SMS.c **** *
 132:.\Generated_Source\PSoC4/CapSense_CSD_SMS.c **** * Side Effects:
 133:.\Generated_Source\PSoC4/CapSense_CSD_SMS.c **** *  None
 134:.\Generated_Source\PSoC4/CapSense_CSD_SMS.c **** *
 135:.\Generated_Source\PSoC4/CapSense_CSD_SMS.c **** *******************************************************************************/
ARM GAS  C:\Users\gsgill\AppData\Local\Temp\cc7mh6Ix.s 			page 5


 136:.\Generated_Source\PSoC4/CapSense_CSD_SMS.c **** void CapSense_CSD_AutoTune(void)
 137:.\Generated_Source\PSoC4/CapSense_CSD_SMS.c **** {
  94              		.loc 1 137 0
  95              		.cfi_startproc
  96 0000 80B5     		push	{r7, lr}
  97              		.cfi_def_cfa_offset 8
  98              		.cfi_offset 7, -8
  99              		.cfi_offset 14, -4
 100 0002 82B0     		sub	sp, sp, #8
 101              		.cfi_def_cfa_offset 16
 102 0004 00AF     		add	r7, sp, #0
 103              		.cfi_def_cfa_register 7
 138:.\Generated_Source\PSoC4/CapSense_CSD_SMS.c **** 	uint32 curSensor;
 139:.\Generated_Source\PSoC4/CapSense_CSD_SMS.c ****     uint32 widget;
 140:.\Generated_Source\PSoC4/CapSense_CSD_SMS.c **** 
 141:.\Generated_Source\PSoC4/CapSense_CSD_SMS.c **** 	CapSense_CSD_config.totalScanslotsNum = CapSense_CSD_TOTAL_SCANSLOT_COUNT;
 104              		.loc 1 141 0
 105 0006 374B     		ldr	r3, .L8
 106 0008 0C22     		mov	r2, #12
 107 000a 1A70     		strb	r2, [r3]
 142:.\Generated_Source\PSoC4/CapSense_CSD_SMS.c **** 	CapSense_CSD_config.totalWidgetsNum = CapSense_CSD_END_OF_WIDGETS_INDEX;
 108              		.loc 1 142 0
 109 000c 354B     		ldr	r3, .L8
 110 000e 0122     		mov	r2, #1
 111 0010 5A70     		strb	r2, [r3, #1]
 143:.\Generated_Source\PSoC4/CapSense_CSD_SMS.c **** 	CapSense_CSD_config.totalSensorsNum = CapSense_CSD_TOTAL_SENSOR_COUNT;
 112              		.loc 1 143 0
 113 0012 344B     		ldr	r3, .L8
 114 0014 0C22     		mov	r2, #12
 115 0016 9A70     		strb	r2, [r3, #2]
 144:.\Generated_Source\PSoC4/CapSense_CSD_SMS.c **** 	
 145:.\Generated_Source\PSoC4/CapSense_CSD_SMS.c **** 	CapSense_CSD_config.hfclkFreq_MHz = CYDEV_BCLK__HFCLK__MHZ;
 116              		.loc 1 145 0
 117 0018 324B     		ldr	r3, .L8
 118 001a 1822     		mov	r2, #24
 119 001c DA80     		strh	r2, [r3, #6]
 146:.\Generated_Source\PSoC4/CapSense_CSD_SMS.c **** 	CapSense_CSD_config.sensetivitySeed = CapSense_CSD_SENSETIVITY_FACTOR;
 120              		.loc 1 146 0
 121 001e 314B     		ldr	r3, .L8
 122 0020 314A     		ldr	r2, .L8+4
 123 0022 9A80     		strh	r2, [r3, #4]
 147:.\Generated_Source\PSoC4/CapSense_CSD_SMS.c **** 	
 148:.\Generated_Source\PSoC4/CapSense_CSD_SMS.c ****     CapSense_CSD_config.pointers = &CapSense_CSD_configPointers;       
 124              		.loc 1 148 0
 125 0024 2F4B     		ldr	r3, .L8
 126 0026 314A     		ldr	r2, .L8+8
 127 0028 9A60     		str	r2, [r3, #8]
 149:.\Generated_Source\PSoC4/CapSense_CSD_SMS.c ****     
 150:.\Generated_Source\PSoC4/CapSense_CSD_SMS.c **** 	CapSense_CSD_SetAnalogSwitchesSrcDirect();
 128              		.loc 1 150 0
 129 002a FFF7FEFF 		bl	CapSense_CSD_SetAnalogSwitchesSrcDirect
 151:.\Generated_Source\PSoC4/CapSense_CSD_SMS.c ****     
 152:.\Generated_Source\PSoC4/CapSense_CSD_SMS.c ****     for(widget = 0u; widget < CapSense_CSD_config.totalWidgetsNum; widget++)
 130              		.loc 1 152 0
 131 002e 0023     		mov	r3, #0
 132 0030 3B60     		str	r3, [r7]
 133 0032 07E0     		b	.L2
ARM GAS  C:\Users\gsgill\AppData\Local\Temp\cc7mh6Ix.s 			page 6


 134              	.L3:
 153:.\Generated_Source\PSoC4/CapSense_CSD_SMS.c ****     {
 154:.\Generated_Source\PSoC4/CapSense_CSD_SMS.c ****         CapSense_CSD_widgetResolution[widget] = CapSense_CSD_CALIBRATION_RESOLUTION;
 135              		.loc 1 154 0 discriminator 2
 136 0034 2E4B     		ldr	r3, .L8+12
 137 0036 3A68     		ldr	r2, [r7]
 138 0038 9200     		lsl	r2, r2, #2
 139 003a 2E49     		ldr	r1, .L8+16
 140 003c D150     		str	r1, [r2, r3]
 152:.\Generated_Source\PSoC4/CapSense_CSD_SMS.c ****     for(widget = 0u; widget < CapSense_CSD_config.totalWidgetsNum; widget++)
 141              		.loc 1 152 0 discriminator 2
 142 003e 3B68     		ldr	r3, [r7]
 143 0040 0133     		add	r3, r3, #1
 144 0042 3B60     		str	r3, [r7]
 145              	.L2:
 152:.\Generated_Source\PSoC4/CapSense_CSD_SMS.c ****     for(widget = 0u; widget < CapSense_CSD_config.totalWidgetsNum; widget++)
 146              		.loc 1 152 0 is_stmt 0 discriminator 1
 147 0044 274B     		ldr	r3, .L8
 148 0046 5B78     		ldrb	r3, [r3, #1]
 149 0048 1A1C     		mov	r2, r3
 150 004a 3B68     		ldr	r3, [r7]
 151 004c 9A42     		cmp	r2, r3
 152 004e F1D8     		bhi	.L3
 155:.\Generated_Source\PSoC4/CapSense_CSD_SMS.c ****     }
 156:.\Generated_Source\PSoC4/CapSense_CSD_SMS.c **** 	
 157:.\Generated_Source\PSoC4/CapSense_CSD_SMS.c **** 
 158:.\Generated_Source\PSoC4/CapSense_CSD_SMS.c **** 	for(curSensor = 0u; curSensor < CapSense_CSD_TOTAL_SCANSLOT_COUNT; curSensor++)
 153              		.loc 1 158 0 is_stmt 1
 154 0050 0023     		mov	r3, #0
 155 0052 7B60     		str	r3, [r7, #4]
 156 0054 0CE0     		b	.L4
 157              	.L5:
 159:.\Generated_Source\PSoC4/CapSense_CSD_SMS.c ****     {
 160:.\Generated_Source\PSoC4/CapSense_CSD_SMS.c **** 		CapSense_CSD_senseClkDividerVal[curSensor] = CapSense_CSD_CALIBRATION_ASD;
 158              		.loc 1 160 0 discriminator 2
 159 0056 284A     		ldr	r2, .L8+20
 160 0058 7B68     		ldr	r3, [r7, #4]
 161 005a D318     		add	r3, r2, r3
 162 005c 0422     		mov	r2, #4
 163 005e 1A70     		strb	r2, [r3]
 161:.\Generated_Source\PSoC4/CapSense_CSD_SMS.c **** 		CapSense_CSD_sampleClkDividerVal[curSensor] = CapSense_CSD_CALIBRATION_MD;
 164              		.loc 1 161 0 discriminator 2
 165 0060 264A     		ldr	r2, .L8+24
 166 0062 7B68     		ldr	r3, [r7, #4]
 167 0064 D318     		add	r3, r2, r3
 168 0066 0222     		mov	r2, #2
 169 0068 1A70     		strb	r2, [r3]
 158:.\Generated_Source\PSoC4/CapSense_CSD_SMS.c **** 	for(curSensor = 0u; curSensor < CapSense_CSD_TOTAL_SCANSLOT_COUNT; curSensor++)
 170              		.loc 1 158 0 discriminator 2
 171 006a 7B68     		ldr	r3, [r7, #4]
 172 006c 0133     		add	r3, r3, #1
 173 006e 7B60     		str	r3, [r7, #4]
 174              	.L4:
 158:.\Generated_Source\PSoC4/CapSense_CSD_SMS.c **** 	for(curSensor = 0u; curSensor < CapSense_CSD_TOTAL_SCANSLOT_COUNT; curSensor++)
 175              		.loc 1 158 0 is_stmt 0 discriminator 1
 176 0070 7B68     		ldr	r3, [r7, #4]
 177 0072 0B2B     		cmp	r3, #11
ARM GAS  C:\Users\gsgill\AppData\Local\Temp\cc7mh6Ix.s 			page 7


 178 0074 EFD9     		bls	.L5
 162:.\Generated_Source\PSoC4/CapSense_CSD_SMS.c **** 	}
 163:.\Generated_Source\PSoC4/CapSense_CSD_SMS.c ****     
 164:.\Generated_Source\PSoC4/CapSense_CSD_SMS.c ****     CapSense_CSD_DisableBaselineIDAC();
 179              		.loc 1 164 0 is_stmt 1
 180 0076 FFF7FEFF 		bl	CapSense_CSD_DisableBaselineIDAC
 165:.\Generated_Source\PSoC4/CapSense_CSD_SMS.c **** 
 166:.\Generated_Source\PSoC4/CapSense_CSD_SMS.c ****     CalibrateSensors_P4_v2_10(&CapSense_CSD_config, CapSense_CSD_CAL_RAW_COUNT);
 181              		.loc 1 166 0
 182 007a 1A4A     		ldr	r2, .L8
 183 007c 204B     		ldr	r3, .L8+28
 184 007e 101C     		mov	r0, r2
 185 0080 191C     		mov	r1, r3
 186 0082 FFF7FEFF 		bl	CalibrateSensors_P4_v2_10
 167:.\Generated_Source\PSoC4/CapSense_CSD_SMS.c **** 
 168:.\Generated_Source\PSoC4/CapSense_CSD_SMS.c **** 	#if(0u != CapSense_CSD_TOTAL_CENTROIDS_COUNT) 
 169:.\Generated_Source\PSoC4/CapSense_CSD_SMS.c **** 		CapSense_CSD_NormalizeWidgets(CapSense_CSD_END_OF_WIDGETS_INDEX, CapSense_CSD_modulationIDAC);
 187              		.loc 1 169 0
 188 0086 1F4B     		ldr	r3, .L8+32
 189 0088 0120     		mov	r0, #1
 190 008a 191C     		mov	r1, r3
 191 008c FFF7FEFF 		bl	CapSense_CSD_NormalizeWidgets
 170:.\Generated_Source\PSoC4/CapSense_CSD_SMS.c **** 	#endif /* (0u != CapSense_CSD_TOTAL_CENTROIDS_COUNT)  */
 171:.\Generated_Source\PSoC4/CapSense_CSD_SMS.c **** 	
 172:.\Generated_Source\PSoC4/CapSense_CSD_SMS.c ****     TunePrescalers_P4_v2_10(&CapSense_CSD_config);
 192              		.loc 1 172 0
 193 0090 144B     		ldr	r3, .L8
 194 0092 181C     		mov	r0, r3
 195 0094 FFF7FEFF 		bl	TunePrescalers_P4_v2_10
 173:.\Generated_Source\PSoC4/CapSense_CSD_SMS.c **** 	
 174:.\Generated_Source\PSoC4/CapSense_CSD_SMS.c **** 	#if(CapSense_CSD_PRS_OPTIONS != CapSense_CSD__PRS_NONE)
 175:.\Generated_Source\PSoC4/CapSense_CSD_SMS.c **** 		CapSense_CSD_prescalersTuningDone = 1u;
 196              		.loc 1 175 0
 197 0098 1B4B     		ldr	r3, .L8+36
 198 009a 0122     		mov	r2, #1
 199 009c 1A70     		strb	r2, [r3]
 176:.\Generated_Source\PSoC4/CapSense_CSD_SMS.c **** 	#endif /* (CapSense_CSD_PRS_OPTIONS == CapSense_CSD__PRS_NONE) */
 177:.\Generated_Source\PSoC4/CapSense_CSD_SMS.c ****        
 178:.\Generated_Source\PSoC4/CapSense_CSD_SMS.c ****     CalibrateSensors_P4_v2_10(&CapSense_CSD_config, CapSense_CSD_CAL_RAW_COUNT);
 200              		.loc 1 178 0
 201 009e 114A     		ldr	r2, .L8
 202 00a0 174B     		ldr	r3, .L8+28
 203 00a2 101C     		mov	r0, r2
 204 00a4 191C     		mov	r1, r3
 205 00a6 FFF7FEFF 		bl	CalibrateSensors_P4_v2_10
 179:.\Generated_Source\PSoC4/CapSense_CSD_SMS.c **** 	#if(0u != CapSense_CSD_TOTAL_CENTROIDS_COUNT)
 180:.\Generated_Source\PSoC4/CapSense_CSD_SMS.c **** 		CapSense_CSD_NormalizeWidgets(CapSense_CSD_END_OF_WIDGETS_INDEX, CapSense_CSD_modulationIDAC);
 206              		.loc 1 180 0
 207 00aa 164B     		ldr	r3, .L8+32
 208 00ac 0120     		mov	r0, #1
 209 00ae 191C     		mov	r1, r3
 210 00b0 FFF7FEFF 		bl	CapSense_CSD_NormalizeWidgets
 181:.\Generated_Source\PSoC4/CapSense_CSD_SMS.c **** 	#endif /* (0u != CapSense_CSD_TOTAL_CENTROIDS_COUNT)  */
 182:.\Generated_Source\PSoC4/CapSense_CSD_SMS.c ****     TuneSensitivity_P4_v2_10(&CapSense_CSD_config);
 211              		.loc 1 182 0
 212 00b4 0B4B     		ldr	r3, .L8
 213 00b6 181C     		mov	r0, r3
ARM GAS  C:\Users\gsgill\AppData\Local\Temp\cc7mh6Ix.s 			page 8


 214 00b8 FFF7FEFF 		bl	TuneSensitivity_P4_v2_10
 183:.\Generated_Source\PSoC4/CapSense_CSD_SMS.c **** 	
 184:.\Generated_Source\PSoC4/CapSense_CSD_SMS.c **** 	CapSense_CSD_EnableBaselineIDAC(&CapSense_CSD_config);
 215              		.loc 1 184 0
 216 00bc 094B     		ldr	r3, .L8
 217 00be 181C     		mov	r0, r3
 218 00c0 FFF7FEFF 		bl	CapSense_CSD_EnableBaselineIDAC
 185:.\Generated_Source\PSoC4/CapSense_CSD_SMS.c ****     
 186:.\Generated_Source\PSoC4/CapSense_CSD_SMS.c ****     for(curSensor = 0u; curSensor < CapSense_CSD_TOTAL_SCANSLOT_COUNT; curSensor++)
 219              		.loc 1 186 0
 220 00c4 0023     		mov	r3, #0
 221 00c6 7B60     		str	r3, [r7, #4]
 222 00c8 06E0     		b	.L6
 223              	.L7:
 187:.\Generated_Source\PSoC4/CapSense_CSD_SMS.c ****     {
 188:.\Generated_Source\PSoC4/CapSense_CSD_SMS.c ****         CapSense_CSD_UpdateThresholds(curSensor);
 224              		.loc 1 188 0 discriminator 2
 225 00ca 7B68     		ldr	r3, [r7, #4]
 226 00cc 181C     		mov	r0, r3
 227 00ce FFF7FEFF 		bl	CapSense_CSD_UpdateThresholds
 186:.\Generated_Source\PSoC4/CapSense_CSD_SMS.c ****     for(curSensor = 0u; curSensor < CapSense_CSD_TOTAL_SCANSLOT_COUNT; curSensor++)
 228              		.loc 1 186 0 discriminator 2
 229 00d2 7B68     		ldr	r3, [r7, #4]
 230 00d4 0133     		add	r3, r3, #1
 231 00d6 7B60     		str	r3, [r7, #4]
 232              	.L6:
 186:.\Generated_Source\PSoC4/CapSense_CSD_SMS.c ****     for(curSensor = 0u; curSensor < CapSense_CSD_TOTAL_SCANSLOT_COUNT; curSensor++)
 233              		.loc 1 186 0 is_stmt 0 discriminator 1
 234 00d8 7B68     		ldr	r3, [r7, #4]
 235 00da 0B2B     		cmp	r3, #11
 236 00dc F5D9     		bls	.L7
 189:.\Generated_Source\PSoC4/CapSense_CSD_SMS.c ****     }
 190:.\Generated_Source\PSoC4/CapSense_CSD_SMS.c **** }
 237              		.loc 1 190 0 is_stmt 1
 238 00de BD46     		mov	sp, r7
 239 00e0 02B0     		add	sp, sp, #8
 240              		@ sp needed
 241 00e2 80BD     		pop	{r7, pc}
 242              	.L9:
 243              		.align	2
 244              	.L8:
 245 00e4 00000000 		.word	CapSense_CSD_config
 246 00e8 66020000 		.word	614
 247 00ec 00000000 		.word	CapSense_CSD_configPointers
 248 00f0 00000000 		.word	CapSense_CSD_widgetResolution
 249 00f4 0000FF0F 		.word	268369920
 250 00f8 00000000 		.word	CapSense_CSD_senseClkDividerVal
 251 00fc 00000000 		.word	CapSense_CSD_sampleClkDividerVal
 252 0100 9A0D0000 		.word	3482
 253 0104 00000000 		.word	CapSense_CSD_modulationIDAC
 254 0108 00000000 		.word	CapSense_CSD_prescalersTuningDone
 255              		.cfi_endproc
 256              	.LFE33:
 257              		.size	CapSense_CSD_AutoTune, .-CapSense_CSD_AutoTune
 258              		.section	.text.CapSense_CSD_UpdateThresholds,"ax",%progbits
 259              		.align	2
 260              		.global	CapSense_CSD_UpdateThresholds
ARM GAS  C:\Users\gsgill\AppData\Local\Temp\cc7mh6Ix.s 			page 9


 261              		.code	16
 262              		.thumb_func
 263              		.type	CapSense_CSD_UpdateThresholds, %function
 264              	CapSense_CSD_UpdateThresholds:
 265              	.LFB34:
 191:.\Generated_Source\PSoC4/CapSense_CSD_SMS.c **** 
 192:.\Generated_Source\PSoC4/CapSense_CSD_SMS.c **** 
 193:.\Generated_Source\PSoC4/CapSense_CSD_SMS.c **** /*******************************************************************************
 194:.\Generated_Source\PSoC4/CapSense_CSD_SMS.c **** * Function Name: CapSense_CSD_UpdateThresholds
 195:.\Generated_Source\PSoC4/CapSense_CSD_SMS.c **** ********************************************************************************
 196:.\Generated_Source\PSoC4/CapSense_CSD_SMS.c **** *
 197:.\Generated_Source\PSoC4/CapSense_CSD_SMS.c **** * Summary:
 198:.\Generated_Source\PSoC4/CapSense_CSD_SMS.c **** *  The API updates the Finger Threshold, Hysteresis, Noise Threshold, and 
 199:.\Generated_Source\PSoC4/CapSense_CSD_SMS.c **** *  Negative Noise Threshold in the AutoTuning (Smartsense) Mode.
 200:.\Generated_Source\PSoC4/CapSense_CSD_SMS.c **** *
 201:.\Generated_Source\PSoC4/CapSense_CSD_SMS.c **** * Parameters:
 202:.\Generated_Source\PSoC4/CapSense_CSD_SMS.c **** *  sensor: sensor number.
 203:.\Generated_Source\PSoC4/CapSense_CSD_SMS.c **** *
 204:.\Generated_Source\PSoC4/CapSense_CSD_SMS.c **** * Return:
 205:.\Generated_Source\PSoC4/CapSense_CSD_SMS.c **** *  None
 206:.\Generated_Source\PSoC4/CapSense_CSD_SMS.c **** *
 207:.\Generated_Source\PSoC4/CapSense_CSD_SMS.c **** * Global Variables:
 208:.\Generated_Source\PSoC4/CapSense_CSD_SMS.c **** *  CapSense_CSD_widgetNumber[] - contains widget Number for given sensor.
 209:.\Generated_Source\PSoC4/CapSense_CSD_SMS.c **** *  0 through 7 (sensor 0 is bit 0, sensor 1 is bit 1).
 210:.\Generated_Source\PSoC4/CapSense_CSD_SMS.c **** *  For other sensors the array element equals to 255. 
 211:.\Generated_Source\PSoC4/CapSense_CSD_SMS.c **** *  CapSense_CSD_numberOfSensors[widget] - Number of sensors in the widget.
 212:.\Generated_Source\PSoC4/CapSense_CSD_SMS.c **** *   CapSense_CSD_fingerThreshold[] - contains the level of signal for each sensor
 213:.\Generated_Source\PSoC4/CapSense_CSD_SMS.c **** *   that determines if a finger present on the sensor.
 214:.\Generated_Source\PSoC4/CapSense_CSD_SMS.c **** *   CapSense_CSD_negativeNoiseThreshold[] - negative Noise Threshold
 215:.\Generated_Source\PSoC4/CapSense_CSD_SMS.c **** *   CapSense_CSD_hysteresis[] - the array with hysteresis values.
 216:.\Generated_Source\PSoC4/CapSense_CSD_SMS.c **** *
 217:.\Generated_Source\PSoC4/CapSense_CSD_SMS.c **** * Side Effects:
 218:.\Generated_Source\PSoC4/CapSense_CSD_SMS.c **** *  None
 219:.\Generated_Source\PSoC4/CapSense_CSD_SMS.c **** *
 220:.\Generated_Source\PSoC4/CapSense_CSD_SMS.c **** *******************************************************************************/
 221:.\Generated_Source\PSoC4/CapSense_CSD_SMS.c **** void CapSense_CSD_UpdateThresholds(uint32 sensor)
 222:.\Generated_Source\PSoC4/CapSense_CSD_SMS.c **** {
 266              		.loc 1 222 0
 267              		.cfi_startproc
 268 0000 90B5     		push	{r4, r7, lr}
 269              		.cfi_def_cfa_offset 12
 270              		.cfi_offset 4, -12
 271              		.cfi_offset 7, -8
 272              		.cfi_offset 14, -4
 273 0002 87B0     		sub	sp, sp, #28
 274              		.cfi_def_cfa_offset 40
 275 0004 02AF     		add	r7, sp, #8
 276              		.cfi_def_cfa 7, 32
 277 0006 7860     		str	r0, [r7, #4]
 223:.\Generated_Source\PSoC4/CapSense_CSD_SMS.c **** 	uint8 fingerThreshold;
 224:.\Generated_Source\PSoC4/CapSense_CSD_SMS.c **** 	uint32 widget;
 225:.\Generated_Source\PSoC4/CapSense_CSD_SMS.c **** 	
 226:.\Generated_Source\PSoC4/CapSense_CSD_SMS.c **** 	widget = CapSense_CSD_widgetNumber[sensor];
 278              		.loc 1 226 0
 279 0008 314A     		ldr	r2, .L16
 280 000a 7B68     		ldr	r3, [r7, #4]
 281 000c D318     		add	r3, r2, r3
ARM GAS  C:\Users\gsgill\AppData\Local\Temp\cc7mh6Ix.s 			page 10


 282 000e 1B78     		ldrb	r3, [r3]
 283 0010 FB60     		str	r3, [r7, #12]
 227:.\Generated_Source\PSoC4/CapSense_CSD_SMS.c **** 
 228:.\Generated_Source\PSoC4/CapSense_CSD_SMS.c **** 	#if(0u != CapSense_CSD_FLEXIBLE_THRESHOLDS_EN)
 229:.\Generated_Source\PSoC4/CapSense_CSD_SMS.c **** 	    fingerThreshold = CapSense_CSD_fingerThreshold[widget];
 230:.\Generated_Source\PSoC4/CapSense_CSD_SMS.c ****         /* Update Threshold manually (flexible) */   
 231:.\Generated_Source\PSoC4/CapSense_CSD_SMS.c **** 		CapSense_CSD_noiseThreshold[widget] = (uint8)(fingerThreshold >> 1u);
 232:.\Generated_Source\PSoC4/CapSense_CSD_SMS.c **** 		CapSense_CSD_negativeNoiseThreshold[widget] = (uint8)(fingerThreshold >> 1u);
 233:.\Generated_Source\PSoC4/CapSense_CSD_SMS.c **** 		CapSense_CSD_hysteresis[widget] = (uint8)(fingerThreshold >> 3u);
 234:.\Generated_Source\PSoC4/CapSense_CSD_SMS.c **** 	#else
 235:.\Generated_Source\PSoC4/CapSense_CSD_SMS.c **** 		/* Calculate Finger Threshold and Noise Threshold with Smartsense (automatic) */ 	
 236:.\Generated_Source\PSoC4/CapSense_CSD_SMS.c **** 		CalculateThresholds_P4_v2_10(&CapSense_CSD_config, (uint8)sensor, CapSense_CSD_sensorRaw, (uint8)
 284              		.loc 1 236 0
 285 0012 7B68     		ldr	r3, [r7, #4]
 286 0014 D9B2     		uxtb	r1, r3
 287 0016 FB68     		ldr	r3, [r7, #12]
 288 0018 DBB2     		uxtb	r3, r3
 289 001a 2E48     		ldr	r0, .L16+4
 290 001c 2E4A     		ldr	r2, .L16+8
 291 001e 2F4C     		ldr	r4, .L16+12
 292 0020 0094     		str	r4, [sp]
 293 0022 2F4C     		ldr	r4, .L16+16
 294 0024 0194     		str	r4, [sp, #4]
 295 0026 FFF7FEFF 		bl	CalculateThresholds_P4_v2_10
 237:.\Generated_Source\PSoC4/CapSense_CSD_SMS.c **** 		
 238:.\Generated_Source\PSoC4/CapSense_CSD_SMS.c **** 	    fingerThreshold = CapSense_CSD_fingerThreshold[widget];
 296              		.loc 1 238 0
 297 002a 3B1C     		mov	r3, r7
 298 002c 0B33     		add	r3, r3, #11
 299 002e 2B49     		ldr	r1, .L16+12
 300 0030 FA68     		ldr	r2, [r7, #12]
 301 0032 8A18     		add	r2, r1, r2
 302 0034 1278     		ldrb	r2, [r2]
 303 0036 1A70     		strb	r2, [r3]
 239:.\Generated_Source\PSoC4/CapSense_CSD_SMS.c **** 		
 240:.\Generated_Source\PSoC4/CapSense_CSD_SMS.c **** 	    /* Update Threshold based on calculated with Smartsense (automatic) */
 241:.\Generated_Source\PSoC4/CapSense_CSD_SMS.c **** 		CapSense_CSD_negativeNoiseThreshold[widget] = CapSense_CSD_noiseThreshold[widget];
 304              		.loc 1 241 0
 305 0038 294A     		ldr	r2, .L16+16
 306 003a FB68     		ldr	r3, [r7, #12]
 307 003c D318     		add	r3, r2, r3
 308 003e 1A78     		ldrb	r2, [r3]
 309 0040 2849     		ldr	r1, .L16+20
 310 0042 FB68     		ldr	r3, [r7, #12]
 311 0044 CB18     		add	r3, r1, r3
 312 0046 1A70     		strb	r2, [r3]
 242:.\Generated_Source\PSoC4/CapSense_CSD_SMS.c ****         
 243:.\Generated_Source\PSoC4/CapSense_CSD_SMS.c **** 		if(fingerThreshold < CapSense_CSD_THRESHOLD_1)
 313              		.loc 1 243 0
 314 0048 3B1C     		mov	r3, r7
 315 004a 0B33     		add	r3, r3, #11
 316 004c 1B78     		ldrb	r3, [r3]
 317 004e DB2B     		cmp	r3, #219
 318 0050 09D8     		bhi	.L11
 244:.\Generated_Source\PSoC4/CapSense_CSD_SMS.c **** 		{
 245:.\Generated_Source\PSoC4/CapSense_CSD_SMS.c **** 			CapSense_CSD_hysteresis[widget] = (uint8)(fingerThreshold >> 3u);
 319              		.loc 1 245 0
ARM GAS  C:\Users\gsgill\AppData\Local\Temp\cc7mh6Ix.s 			page 11


 320 0052 3B1C     		mov	r3, r7
 321 0054 0B33     		add	r3, r3, #11
 322 0056 1B78     		ldrb	r3, [r3]
 323 0058 DB08     		lsr	r3, r3, #3
 324 005a DAB2     		uxtb	r2, r3
 325 005c 2249     		ldr	r1, .L16+24
 326 005e FB68     		ldr	r3, [r7, #12]
 327 0060 CB18     		add	r3, r1, r3
 328 0062 1A70     		strb	r2, [r3]
 329 0064 31E0     		b	.L10
 330              	.L11:
 246:.\Generated_Source\PSoC4/CapSense_CSD_SMS.c **** 		}
 247:.\Generated_Source\PSoC4/CapSense_CSD_SMS.c **** 		else if(fingerThreshold <  CapSense_CSD_THRESHOLD_2)
 331              		.loc 1 247 0
 332 0066 3B1C     		mov	r3, r7
 333 0068 0B33     		add	r3, r3, #11
 334 006a 1B78     		ldrb	r3, [r3]
 335 006c EC2B     		cmp	r3, #236
 336 006e 09D8     		bhi	.L13
 248:.\Generated_Source\PSoC4/CapSense_CSD_SMS.c **** 		{
 249:.\Generated_Source\PSoC4/CapSense_CSD_SMS.c **** 			CapSense_CSD_hysteresis[widget] = (uint8)(fingerThreshold >> 4u);
 337              		.loc 1 249 0
 338 0070 3B1C     		mov	r3, r7
 339 0072 0B33     		add	r3, r3, #11
 340 0074 1B78     		ldrb	r3, [r3]
 341 0076 1B09     		lsr	r3, r3, #4
 342 0078 DAB2     		uxtb	r2, r3
 343 007a 1B49     		ldr	r1, .L16+24
 344 007c FB68     		ldr	r3, [r7, #12]
 345 007e CB18     		add	r3, r1, r3
 346 0080 1A70     		strb	r2, [r3]
 347 0082 22E0     		b	.L10
 348              	.L13:
 250:.\Generated_Source\PSoC4/CapSense_CSD_SMS.c **** 		}
 251:.\Generated_Source\PSoC4/CapSense_CSD_SMS.c **** 		else if(fingerThreshold <  CapSense_CSD_THRESHOLD_3)
 349              		.loc 1 251 0
 350 0084 3B1C     		mov	r3, r7
 351 0086 0B33     		add	r3, r3, #11
 352 0088 1B78     		ldrb	r3, [r3]
 353 008a F42B     		cmp	r3, #244
 354 008c 09D8     		bhi	.L14
 252:.\Generated_Source\PSoC4/CapSense_CSD_SMS.c **** 		{
 253:.\Generated_Source\PSoC4/CapSense_CSD_SMS.c **** 			CapSense_CSD_hysteresis[widget] = (uint8)(fingerThreshold >> 5u);
 355              		.loc 1 253 0
 356 008e 3B1C     		mov	r3, r7
 357 0090 0B33     		add	r3, r3, #11
 358 0092 1B78     		ldrb	r3, [r3]
 359 0094 5B09     		lsr	r3, r3, #5
 360 0096 DAB2     		uxtb	r2, r3
 361 0098 1349     		ldr	r1, .L16+24
 362 009a FB68     		ldr	r3, [r7, #12]
 363 009c CB18     		add	r3, r1, r3
 364 009e 1A70     		strb	r2, [r3]
 365 00a0 13E0     		b	.L10
 366              	.L14:
 254:.\Generated_Source\PSoC4/CapSense_CSD_SMS.c **** 		}
 255:.\Generated_Source\PSoC4/CapSense_CSD_SMS.c **** 		else if(fingerThreshold <  CapSense_CSD_THRESHOLD_4)
ARM GAS  C:\Users\gsgill\AppData\Local\Temp\cc7mh6Ix.s 			page 12


 367              		.loc 1 255 0
 368 00a2 3B1C     		mov	r3, r7
 369 00a4 0B33     		add	r3, r3, #11
 370 00a6 1B78     		ldrb	r3, [r3]
 371 00a8 F92B     		cmp	r3, #249
 372 00aa 09D8     		bhi	.L15
 256:.\Generated_Source\PSoC4/CapSense_CSD_SMS.c **** 		{
 257:.\Generated_Source\PSoC4/CapSense_CSD_SMS.c **** 			CapSense_CSD_hysteresis[widget] = (uint8)(fingerThreshold >> 6u);
 373              		.loc 1 257 0
 374 00ac 3B1C     		mov	r3, r7
 375 00ae 0B33     		add	r3, r3, #11
 376 00b0 1B78     		ldrb	r3, [r3]
 377 00b2 9B09     		lsr	r3, r3, #6
 378 00b4 DAB2     		uxtb	r2, r3
 379 00b6 0C49     		ldr	r1, .L16+24
 380 00b8 FB68     		ldr	r3, [r7, #12]
 381 00ba CB18     		add	r3, r1, r3
 382 00bc 1A70     		strb	r2, [r3]
 383 00be 04E0     		b	.L10
 384              	.L15:
 258:.\Generated_Source\PSoC4/CapSense_CSD_SMS.c **** 		}
 259:.\Generated_Source\PSoC4/CapSense_CSD_SMS.c **** 		else
 260:.\Generated_Source\PSoC4/CapSense_CSD_SMS.c **** 		{
 261:.\Generated_Source\PSoC4/CapSense_CSD_SMS.c **** 			CapSense_CSD_hysteresis[widget] = 0u;
 385              		.loc 1 261 0
 386 00c0 094A     		ldr	r2, .L16+24
 387 00c2 FB68     		ldr	r3, [r7, #12]
 388 00c4 D318     		add	r3, r2, r3
 389 00c6 0022     		mov	r2, #0
 390 00c8 1A70     		strb	r2, [r3]
 391              	.L10:
 262:.\Generated_Source\PSoC4/CapSense_CSD_SMS.c **** 		}
 263:.\Generated_Source\PSoC4/CapSense_CSD_SMS.c **** 	#endif /* (0u != CapSense_CSD_FLEXIBLE_THRESHOLDS_EN)  */
 264:.\Generated_Source\PSoC4/CapSense_CSD_SMS.c **** }
 392              		.loc 1 264 0
 393 00ca BD46     		mov	sp, r7
 394 00cc 05B0     		add	sp, sp, #20
 395              		@ sp needed
 396 00ce 90BD     		pop	{r4, r7, pc}
 397              	.L17:
 398              		.align	2
 399              	.L16:
 400 00d0 00000000 		.word	CapSense_CSD_widgetNumber
 401 00d4 00000000 		.word	CapSense_CSD_config
 402 00d8 00000000 		.word	CapSense_CSD_sensorRaw
 403 00dc 00000000 		.word	CapSense_CSD_fingerThreshold
 404 00e0 00000000 		.word	CapSense_CSD_noiseThreshold
 405 00e4 00000000 		.word	CapSense_CSD_negativeNoiseThreshold
 406 00e8 00000000 		.word	CapSense_CSD_hysteresis
 407              		.cfi_endproc
 408              	.LFE34:
 409              		.size	CapSense_CSD_UpdateThresholds, .-CapSense_CSD_UpdateThresholds
 410              		.section	.text.CapSense_CSD_SetAnalogSwitchesSrcDirect,"ax",%progbits
 411              		.align	2
 412              		.global	CapSense_CSD_SetAnalogSwitchesSrcDirect
 413              		.code	16
 414              		.thumb_func
ARM GAS  C:\Users\gsgill\AppData\Local\Temp\cc7mh6Ix.s 			page 13


 415              		.type	CapSense_CSD_SetAnalogSwitchesSrcDirect, %function
 416              	CapSense_CSD_SetAnalogSwitchesSrcDirect:
 417              	.LFB35:
 265:.\Generated_Source\PSoC4/CapSense_CSD_SMS.c **** 
 266:.\Generated_Source\PSoC4/CapSense_CSD_SMS.c **** /*******************************************************************************
 267:.\Generated_Source\PSoC4/CapSense_CSD_SMS.c **** * Function Name: CapSense_CSD_SetAnalogSwitchesSrcDirect
 268:.\Generated_Source\PSoC4/CapSense_CSD_SMS.c **** ********************************************************************************
 269:.\Generated_Source\PSoC4/CapSense_CSD_SMS.c **** *
 270:.\Generated_Source\PSoC4/CapSense_CSD_SMS.c **** * Summary:
 271:.\Generated_Source\PSoC4/CapSense_CSD_SMS.c **** *  This API switches the charge clock source to prescaler. 
 272:.\Generated_Source\PSoC4/CapSense_CSD_SMS.c **** *
 273:.\Generated_Source\PSoC4/CapSense_CSD_SMS.c **** * Parameters:
 274:.\Generated_Source\PSoC4/CapSense_CSD_SMS.c **** *  None
 275:.\Generated_Source\PSoC4/CapSense_CSD_SMS.c **** *
 276:.\Generated_Source\PSoC4/CapSense_CSD_SMS.c **** * Return:
 277:.\Generated_Source\PSoC4/CapSense_CSD_SMS.c **** *  None
 278:.\Generated_Source\PSoC4/CapSense_CSD_SMS.c **** *
 279:.\Generated_Source\PSoC4/CapSense_CSD_SMS.c **** * Global Variables:
 280:.\Generated_Source\PSoC4/CapSense_CSD_SMS.c **** *  None
 281:.\Generated_Source\PSoC4/CapSense_CSD_SMS.c **** *
 282:.\Generated_Source\PSoC4/CapSense_CSD_SMS.c **** * Side Effects:
 283:.\Generated_Source\PSoC4/CapSense_CSD_SMS.c **** *  None
 284:.\Generated_Source\PSoC4/CapSense_CSD_SMS.c **** *
 285:.\Generated_Source\PSoC4/CapSense_CSD_SMS.c **** *******************************************************************************/
 286:.\Generated_Source\PSoC4/CapSense_CSD_SMS.c **** void CapSense_CSD_SetAnalogSwitchesSrcDirect(void)
 287:.\Generated_Source\PSoC4/CapSense_CSD_SMS.c **** {
 418              		.loc 1 287 0
 419              		.cfi_startproc
 420 0000 80B5     		push	{r7, lr}
 421              		.cfi_def_cfa_offset 8
 422              		.cfi_offset 7, -8
 423              		.cfi_offset 14, -4
 424 0002 00AF     		add	r7, sp, #0
 425              		.cfi_def_cfa_register 7
 288:.\Generated_Source\PSoC4/CapSense_CSD_SMS.c **** 	CapSense_CSD_CSD_CFG_REG &= ~(CapSense_CSD_CSD_CFG_PRS_SELECT);
 426              		.loc 1 288 0
 427 0004 034B     		ldr	r3, .L19
 428 0006 034A     		ldr	r2, .L19
 429 0008 1268     		ldr	r2, [r2]
 430 000a 4021     		mov	r1, #64
 431 000c 8A43     		bic	r2, r1
 432 000e 1A60     		str	r2, [r3]
 289:.\Generated_Source\PSoC4/CapSense_CSD_SMS.c **** }
 433              		.loc 1 289 0
 434 0010 BD46     		mov	sp, r7
 435              		@ sp needed
 436 0012 80BD     		pop	{r7, pc}
 437              	.L20:
 438              		.align	2
 439              	.L19:
 440 0014 04000840 		.word	1074266116
 441              		.cfi_endproc
 442              	.LFE35:
 443              		.size	CapSense_CSD_SetAnalogSwitchesSrcDirect, .-CapSense_CSD_SetAnalogSwitchesSrcDirect
 444              		.section	.text.CapSense_CSD_DisableBaselineIDAC,"ax",%progbits
 445              		.align	2
 446              		.global	CapSense_CSD_DisableBaselineIDAC
ARM GAS  C:\Users\gsgill\AppData\Local\Temp\cc7mh6Ix.s 			page 14


 447              		.code	16
 448              		.thumb_func
 449              		.type	CapSense_CSD_DisableBaselineIDAC, %function
 450              	CapSense_CSD_DisableBaselineIDAC:
 451              	.LFB36:
 290:.\Generated_Source\PSoC4/CapSense_CSD_SMS.c **** 
 291:.\Generated_Source\PSoC4/CapSense_CSD_SMS.c **** 
 292:.\Generated_Source\PSoC4/CapSense_CSD_SMS.c **** /*******************************************************************************
 293:.\Generated_Source\PSoC4/CapSense_CSD_SMS.c **** * Function Name: CapSense_CSD_DisableBaselineIDAC
 294:.\Generated_Source\PSoC4/CapSense_CSD_SMS.c **** ********************************************************************************
 295:.\Generated_Source\PSoC4/CapSense_CSD_SMS.c **** *
 296:.\Generated_Source\PSoC4/CapSense_CSD_SMS.c **** * Summary:
 297:.\Generated_Source\PSoC4/CapSense_CSD_SMS.c **** *  The API disables the Compensation IDAC. 
 298:.\Generated_Source\PSoC4/CapSense_CSD_SMS.c **** *
 299:.\Generated_Source\PSoC4/CapSense_CSD_SMS.c **** * Parameters:
 300:.\Generated_Source\PSoC4/CapSense_CSD_SMS.c **** *  None
 301:.\Generated_Source\PSoC4/CapSense_CSD_SMS.c **** *
 302:.\Generated_Source\PSoC4/CapSense_CSD_SMS.c **** * Return:
 303:.\Generated_Source\PSoC4/CapSense_CSD_SMS.c **** *  None
 304:.\Generated_Source\PSoC4/CapSense_CSD_SMS.c **** *
 305:.\Generated_Source\PSoC4/CapSense_CSD_SMS.c **** * Global Variables:
 306:.\Generated_Source\PSoC4/CapSense_CSD_SMS.c **** *  None
 307:.\Generated_Source\PSoC4/CapSense_CSD_SMS.c **** *
 308:.\Generated_Source\PSoC4/CapSense_CSD_SMS.c **** * Side Effects:
 309:.\Generated_Source\PSoC4/CapSense_CSD_SMS.c **** *  None
 310:.\Generated_Source\PSoC4/CapSense_CSD_SMS.c **** *
 311:.\Generated_Source\PSoC4/CapSense_CSD_SMS.c **** *******************************************************************************/
 312:.\Generated_Source\PSoC4/CapSense_CSD_SMS.c **** void CapSense_CSD_DisableBaselineIDAC(void)
 313:.\Generated_Source\PSoC4/CapSense_CSD_SMS.c **** {
 452              		.loc 1 313 0
 453              		.cfi_startproc
 454 0000 80B5     		push	{r7, lr}
 455              		.cfi_def_cfa_offset 8
 456              		.cfi_offset 7, -8
 457              		.cfi_offset 14, -4
 458 0002 82B0     		sub	sp, sp, #8
 459              		.cfi_def_cfa_offset 16
 460 0004 00AF     		add	r7, sp, #0
 461              		.cfi_def_cfa_register 7
 314:.\Generated_Source\PSoC4/CapSense_CSD_SMS.c **** 	uint32 newRegValue;
 315:.\Generated_Source\PSoC4/CapSense_CSD_SMS.c ****     
 316:.\Generated_Source\PSoC4/CapSense_CSD_SMS.c ****     newRegValue = CapSense_CSD_CSD_IDAC_REG;
 462              		.loc 1 316 0
 463 0006 094B     		ldr	r3, .L22
 464 0008 1B68     		ldr	r3, [r3]
 465 000a 7B60     		str	r3, [r7, #4]
 317:.\Generated_Source\PSoC4/CapSense_CSD_SMS.c ****     
 318:.\Generated_Source\PSoC4/CapSense_CSD_SMS.c ****     newRegValue &= ~(CapSense_CSD_CSD_IDAC1_MODE_MASK | CapSense_CSD_CSD_IDAC2_MODE_MASK);
 466              		.loc 1 318 0
 467 000c 7A68     		ldr	r2, [r7, #4]
 468 000e 084B     		ldr	r3, .L22+4
 469 0010 1340     		and	r3, r2
 470 0012 7B60     		str	r3, [r7, #4]
 319:.\Generated_Source\PSoC4/CapSense_CSD_SMS.c ****     newRegValue |= CapSense_CSD_CSD_IDAC1_MODE_VARIABLE;
 471              		.loc 1 319 0
 472 0014 7B68     		ldr	r3, [r7, #4]
 473 0016 8022     		mov	r2, #128
ARM GAS  C:\Users\gsgill\AppData\Local\Temp\cc7mh6Ix.s 			page 15


 474 0018 9200     		lsl	r2, r2, #2
 475 001a 1343     		orr	r3, r2
 476 001c 7B60     		str	r3, [r7, #4]
 320:.\Generated_Source\PSoC4/CapSense_CSD_SMS.c ****     
 321:.\Generated_Source\PSoC4/CapSense_CSD_SMS.c **** 	CapSense_CSD_CSD_IDAC_REG = newRegValue;
 477              		.loc 1 321 0
 478 001e 034B     		ldr	r3, .L22
 479 0020 7A68     		ldr	r2, [r7, #4]
 480 0022 1A60     		str	r2, [r3]
 322:.\Generated_Source\PSoC4/CapSense_CSD_SMS.c **** }
 481              		.loc 1 322 0
 482 0024 BD46     		mov	sp, r7
 483 0026 02B0     		add	sp, sp, #8
 484              		@ sp needed
 485 0028 80BD     		pop	{r7, pc}
 486              	.L23:
 487 002a C046     		.align	2
 488              	.L22:
 489 002c 08000840 		.word	1074266120
 490 0030 FFFCFFFC 		.word	-50332417
 491              		.cfi_endproc
 492              	.LFE36:
 493              		.size	CapSense_CSD_DisableBaselineIDAC, .-CapSense_CSD_DisableBaselineIDAC
 494              		.section	.text.CapSense_CSD_EnableBaselineIDAC,"ax",%progbits
 495              		.align	2
 496              		.global	CapSense_CSD_EnableBaselineIDAC
 497              		.code	16
 498              		.thumb_func
 499              		.type	CapSense_CSD_EnableBaselineIDAC, %function
 500              	CapSense_CSD_EnableBaselineIDAC:
 501              	.LFB37:
 323:.\Generated_Source\PSoC4/CapSense_CSD_SMS.c **** 
 324:.\Generated_Source\PSoC4/CapSense_CSD_SMS.c **** 
 325:.\Generated_Source\PSoC4/CapSense_CSD_SMS.c **** /*******************************************************************************
 326:.\Generated_Source\PSoC4/CapSense_CSD_SMS.c **** * Function Name: CapSense_CSD_EnableBaselineIDAC
 327:.\Generated_Source\PSoC4/CapSense_CSD_SMS.c **** ********************************************************************************
 328:.\Generated_Source\PSoC4/CapSense_CSD_SMS.c **** *
 329:.\Generated_Source\PSoC4/CapSense_CSD_SMS.c **** * Summary:
 330:.\Generated_Source\PSoC4/CapSense_CSD_SMS.c **** *  The API enables the Compensation IDAC. 
 331:.\Generated_Source\PSoC4/CapSense_CSD_SMS.c **** *
 332:.\Generated_Source\PSoC4/CapSense_CSD_SMS.c **** * Parameters:
 333:.\Generated_Source\PSoC4/CapSense_CSD_SMS.c **** *  None
 334:.\Generated_Source\PSoC4/CapSense_CSD_SMS.c **** *
 335:.\Generated_Source\PSoC4/CapSense_CSD_SMS.c **** * Return:
 336:.\Generated_Source\PSoC4/CapSense_CSD_SMS.c **** *  None
 337:.\Generated_Source\PSoC4/CapSense_CSD_SMS.c **** *
 338:.\Generated_Source\PSoC4/CapSense_CSD_SMS.c **** * Global Variables:
 339:.\Generated_Source\PSoC4/CapSense_CSD_SMS.c **** *  CapSense_CSD_compensationIDAC[] - used to store a 7-bit idac value for all the sensors.
 340:.\Generated_Source\PSoC4/CapSense_CSD_SMS.c **** *
 341:.\Generated_Source\PSoC4/CapSense_CSD_SMS.c **** * Side Effects:
 342:.\Generated_Source\PSoC4/CapSense_CSD_SMS.c **** *  None
 343:.\Generated_Source\PSoC4/CapSense_CSD_SMS.c **** *
 344:.\Generated_Source\PSoC4/CapSense_CSD_SMS.c **** *******************************************************************************/
 345:.\Generated_Source\PSoC4/CapSense_CSD_SMS.c **** void  CapSense_CSD_EnableBaselineIDAC(const CapSense_CSD_CONFIG_TYPE_P4_v2_10 *config)
 346:.\Generated_Source\PSoC4/CapSense_CSD_SMS.c **** {
 502              		.loc 1 346 0
 503              		.cfi_startproc
ARM GAS  C:\Users\gsgill\AppData\Local\Temp\cc7mh6Ix.s 			page 16


 504 0000 80B5     		push	{r7, lr}
 505              		.cfi_def_cfa_offset 8
 506              		.cfi_offset 7, -8
 507              		.cfi_offset 14, -4
 508 0002 84B0     		sub	sp, sp, #16
 509              		.cfi_def_cfa_offset 24
 510 0004 00AF     		add	r7, sp, #0
 511              		.cfi_def_cfa_register 7
 512 0006 7860     		str	r0, [r7, #4]
 347:.\Generated_Source\PSoC4/CapSense_CSD_SMS.c ****     uint32 curSensor;
 348:.\Generated_Source\PSoC4/CapSense_CSD_SMS.c ****     uint32 newRegValue;
 349:.\Generated_Source\PSoC4/CapSense_CSD_SMS.c **** 
 350:.\Generated_Source\PSoC4/CapSense_CSD_SMS.c ****     for(curSensor = 0u; curSensor < config->totalScanslotsNum; curSensor++)
 513              		.loc 1 350 0
 514 0008 0023     		mov	r3, #0
 515 000a FB60     		str	r3, [r7, #12]
 516 000c 17E0     		b	.L25
 517              	.L26:
 351:.\Generated_Source\PSoC4/CapSense_CSD_SMS.c ****     {
 352:.\Generated_Source\PSoC4/CapSense_CSD_SMS.c **** 		CapSense_CSD_compensationIDAC[curSensor] = CapSense_CSD_modulationIDAC[curSensor] / 2u;
 518              		.loc 1 352 0 discriminator 2
 519 000e 1A4A     		ldr	r2, .L27
 520 0010 FB68     		ldr	r3, [r7, #12]
 521 0012 D318     		add	r3, r2, r3
 522 0014 1B78     		ldrb	r3, [r3]
 523 0016 5B08     		lsr	r3, r3, #1
 524 0018 DAB2     		uxtb	r2, r3
 525 001a 1849     		ldr	r1, .L27+4
 526 001c FB68     		ldr	r3, [r7, #12]
 527 001e CB18     		add	r3, r1, r3
 528 0020 1A70     		strb	r2, [r3]
 353:.\Generated_Source\PSoC4/CapSense_CSD_SMS.c **** 	    CapSense_CSD_modulationIDAC[curSensor] = (CapSense_CSD_modulationIDAC[curSensor] + 1u) / 2u;
 529              		.loc 1 353 0 discriminator 2
 530 0022 154A     		ldr	r2, .L27
 531 0024 FB68     		ldr	r3, [r7, #12]
 532 0026 D318     		add	r3, r2, r3
 533 0028 1B78     		ldrb	r3, [r3]
 534 002a 0133     		add	r3, r3, #1
 535 002c 5B08     		lsr	r3, r3, #1
 536 002e DAB2     		uxtb	r2, r3
 537 0030 1149     		ldr	r1, .L27
 538 0032 FB68     		ldr	r3, [r7, #12]
 539 0034 CB18     		add	r3, r1, r3
 540 0036 1A70     		strb	r2, [r3]
 350:.\Generated_Source\PSoC4/CapSense_CSD_SMS.c ****     for(curSensor = 0u; curSensor < config->totalScanslotsNum; curSensor++)
 541              		.loc 1 350 0 discriminator 2
 542 0038 FB68     		ldr	r3, [r7, #12]
 543 003a 0133     		add	r3, r3, #1
 544 003c FB60     		str	r3, [r7, #12]
 545              	.L25:
 350:.\Generated_Source\PSoC4/CapSense_CSD_SMS.c ****     for(curSensor = 0u; curSensor < config->totalScanslotsNum; curSensor++)
 546              		.loc 1 350 0 is_stmt 0 discriminator 1
 547 003e 7B68     		ldr	r3, [r7, #4]
 548 0040 1B78     		ldrb	r3, [r3]
 549 0042 1A1C     		mov	r2, r3
 550 0044 FB68     		ldr	r3, [r7, #12]
 551 0046 9A42     		cmp	r2, r3
ARM GAS  C:\Users\gsgill\AppData\Local\Temp\cc7mh6Ix.s 			page 17


 552 0048 E1D8     		bhi	.L26
 354:.\Generated_Source\PSoC4/CapSense_CSD_SMS.c ****     }
 355:.\Generated_Source\PSoC4/CapSense_CSD_SMS.c **** 	
 356:.\Generated_Source\PSoC4/CapSense_CSD_SMS.c **** 	CyIntDisable(CapSense_CSD_ISR_NUMBER);
 553              		.loc 1 356 0 is_stmt 1
 554 004a 0F20     		mov	r0, #15
 555 004c FFF7FEFF 		bl	CyIntDisable
 357:.\Generated_Source\PSoC4/CapSense_CSD_SMS.c **** 	
 358:.\Generated_Source\PSoC4/CapSense_CSD_SMS.c **** 	newRegValue = CapSense_CSD_CSD_IDAC_REG;
 556              		.loc 1 358 0
 557 0050 0B4B     		ldr	r3, .L27+8
 558 0052 1B68     		ldr	r3, [r3]
 559 0054 BB60     		str	r3, [r7, #8]
 359:.\Generated_Source\PSoC4/CapSense_CSD_SMS.c ****     newRegValue &= ~(CapSense_CSD_CSD_IDAC1_MODE_MASK | CapSense_CSD_CSD_IDAC2_MODE_MASK);
 560              		.loc 1 359 0
 561 0056 BA68     		ldr	r2, [r7, #8]
 562 0058 0A4B     		ldr	r3, .L27+12
 563 005a 1340     		and	r3, r2
 564 005c BB60     		str	r3, [r7, #8]
 360:.\Generated_Source\PSoC4/CapSense_CSD_SMS.c ****     newRegValue |= (CapSense_CSD_CSD_IDAC1_MODE_VARIABLE | CapSense_CSD_CSD_IDAC2_MODE_FIXED);
 565              		.loc 1 360 0
 566 005e BB68     		ldr	r3, [r7, #8]
 567 0060 094A     		ldr	r2, .L27+16
 568 0062 1343     		orr	r3, r2
 569 0064 BB60     		str	r3, [r7, #8]
 361:.\Generated_Source\PSoC4/CapSense_CSD_SMS.c ****     CapSense_CSD_CSD_IDAC_REG = newRegValue;
 570              		.loc 1 361 0
 571 0066 064B     		ldr	r3, .L27+8
 572 0068 BA68     		ldr	r2, [r7, #8]
 573 006a 1A60     		str	r2, [r3]
 362:.\Generated_Source\PSoC4/CapSense_CSD_SMS.c **** 	
 363:.\Generated_Source\PSoC4/CapSense_CSD_SMS.c **** 	CyIntEnable(CapSense_CSD_ISR_NUMBER);
 574              		.loc 1 363 0
 575 006c 0F20     		mov	r0, #15
 576 006e FFF7FEFF 		bl	CyIntEnable
 364:.\Generated_Source\PSoC4/CapSense_CSD_SMS.c **** }
 577              		.loc 1 364 0
 578 0072 BD46     		mov	sp, r7
 579 0074 04B0     		add	sp, sp, #16
 580              		@ sp needed
 581 0076 80BD     		pop	{r7, pc}
 582              	.L28:
 583              		.align	2
 584              	.L27:
 585 0078 00000000 		.word	CapSense_CSD_modulationIDAC
 586 007c 00000000 		.word	CapSense_CSD_compensationIDAC
 587 0080 08000840 		.word	1074266120
 588 0084 FFFCFFFC 		.word	-50332417
 589 0088 00020001 		.word	16777728
 590              		.cfi_endproc
 591              	.LFE37:
 592              		.size	CapSense_CSD_EnableBaselineIDAC, .-CapSense_CSD_EnableBaselineIDAC
 593              		.section	.text.CapSense_CSD_SetSensitivity,"ax",%progbits
 594              		.align	2
 595              		.global	CapSense_CSD_SetSensitivity
 596              		.code	16
 597              		.thumb_func
ARM GAS  C:\Users\gsgill\AppData\Local\Temp\cc7mh6Ix.s 			page 18


 598              		.type	CapSense_CSD_SetSensitivity, %function
 599              	CapSense_CSD_SetSensitivity:
 600              	.LFB38:
 365:.\Generated_Source\PSoC4/CapSense_CSD_SMS.c **** 
 366:.\Generated_Source\PSoC4/CapSense_CSD_SMS.c **** 
 367:.\Generated_Source\PSoC4/CapSense_CSD_SMS.c **** /*******************************************************************************
 368:.\Generated_Source\PSoC4/CapSense_CSD_SMS.c **** * Function Name: CapSense_CSD_SetSensitivity
 369:.\Generated_Source\PSoC4/CapSense_CSD_SMS.c **** ********************************************************************************
 370:.\Generated_Source\PSoC4/CapSense_CSD_SMS.c **** *
 371:.\Generated_Source\PSoC4/CapSense_CSD_SMS.c **** * Summary:
 372:.\Generated_Source\PSoC4/CapSense_CSD_SMS.c **** *  This API sets the sensitivity value for the sensor. The sensitivity 
 373:.\Generated_Source\PSoC4/CapSense_CSD_SMS.c **** *  value is used during the auto-tuning algorithm executed as part of the CapSense_Start API.
 374:.\Generated_Source\PSoC4/CapSense_CSD_SMS.c **** *  This API is called by the application layer prior to calling the CapSense_Start API. 
 375:.\Generated_Source\PSoC4/CapSense_CSD_SMS.c **** *  Calling this API after execution of CapSense_Start API has no effect. 
 376:.\Generated_Source\PSoC4/CapSense_CSD_SMS.c **** *
 377:.\Generated_Source\PSoC4/CapSense_CSD_SMS.c **** * Parameters: 
 378:.\Generated_Source\PSoC4/CapSense_CSD_SMS.c **** *  sensor  Sensor index 
 379:.\Generated_Source\PSoC4/CapSense_CSD_SMS.c **** *  data    Sensitivity of the sensor. Possible values are below
 380:.\Generated_Source\PSoC4/CapSense_CSD_SMS.c **** *  1 - 0.1pf sensitivity
 381:.\Generated_Source\PSoC4/CapSense_CSD_SMS.c **** *  2 - 0.2pf sensitivity
 382:.\Generated_Source\PSoC4/CapSense_CSD_SMS.c **** *  3 - 0.3pf sensitivity
 383:.\Generated_Source\PSoC4/CapSense_CSD_SMS.c **** *  4 - 0.4pf sensitivity
 384:.\Generated_Source\PSoC4/CapSense_CSD_SMS.c **** *  All other values, set sensitivity to 0.4pf
 385:.\Generated_Source\PSoC4/CapSense_CSD_SMS.c **** *
 386:.\Generated_Source\PSoC4/CapSense_CSD_SMS.c **** *  Return Value:
 387:.\Generated_Source\PSoC4/CapSense_CSD_SMS.c **** *   None
 388:.\Generated_Source\PSoC4/CapSense_CSD_SMS.c **** *
 389:.\Generated_Source\PSoC4/CapSense_CSD_SMS.c **** * Global Variables:
 390:.\Generated_Source\PSoC4/CapSense_CSD_SMS.c **** * SMS_LIB_SensorSensitivity[] - This 8-bits array contains Sensitivity in the LSB nibble
 391:.\Generated_Source\PSoC4/CapSense_CSD_SMS.c **** *                                and Noise Reset Counter value in the MSB nibble.      
 392:.\Generated_Source\PSoC4/CapSense_CSD_SMS.c **** *
 393:.\Generated_Source\PSoC4/CapSense_CSD_SMS.c **** * Side Effects: 
 394:.\Generated_Source\PSoC4/CapSense_CSD_SMS.c **** *  None
 395:.\Generated_Source\PSoC4/CapSense_CSD_SMS.c **** *
 396:.\Generated_Source\PSoC4/CapSense_CSD_SMS.c **** *******************************************************************************/
 397:.\Generated_Source\PSoC4/CapSense_CSD_SMS.c **** void CapSense_CSD_SetSensitivity(uint32 sensor, uint32 value)
 398:.\Generated_Source\PSoC4/CapSense_CSD_SMS.c **** {
 601              		.loc 1 398 0
 602              		.cfi_startproc
 603 0000 80B5     		push	{r7, lr}
 604              		.cfi_def_cfa_offset 8
 605              		.cfi_offset 7, -8
 606              		.cfi_offset 14, -4
 607 0002 82B0     		sub	sp, sp, #8
 608              		.cfi_def_cfa_offset 16
 609 0004 00AF     		add	r7, sp, #0
 610              		.cfi_def_cfa_register 7
 611 0006 7860     		str	r0, [r7, #4]
 612 0008 3960     		str	r1, [r7]
 399:.\Generated_Source\PSoC4/CapSense_CSD_SMS.c **** 	if(value > 4u)
 613              		.loc 1 399 0
 614 000a 3B68     		ldr	r3, [r7]
 615 000c 042B     		cmp	r3, #4
 616 000e 01D9     		bls	.L30
 400:.\Generated_Source\PSoC4/CapSense_CSD_SMS.c **** 	{
 401:.\Generated_Source\PSoC4/CapSense_CSD_SMS.c **** 		value = 4u;
 617              		.loc 1 401 0
ARM GAS  C:\Users\gsgill\AppData\Local\Temp\cc7mh6Ix.s 			page 19


 618 0010 0423     		mov	r3, #4
 619 0012 3B60     		str	r3, [r7]
 620              	.L30:
 402:.\Generated_Source\PSoC4/CapSense_CSD_SMS.c **** 	}
 403:.\Generated_Source\PSoC4/CapSense_CSD_SMS.c **** 	
 404:.\Generated_Source\PSoC4/CapSense_CSD_SMS.c ****     /* Clear SensorSensitivity value in LSB nibble */
 405:.\Generated_Source\PSoC4/CapSense_CSD_SMS.c **** 	SMS_LIB_SensorSensitivity[sensor] &= (uint8)~CapSense_CSD_SENSITIVITY_MASK;
 621              		.loc 1 405 0
 622 0014 0C4A     		ldr	r2, .L31
 623 0016 7B68     		ldr	r3, [r7, #4]
 624 0018 D318     		add	r3, r2, r3
 625 001a 1B78     		ldrb	r3, [r3]
 626 001c 0F22     		mov	r2, #15
 627 001e 9343     		bic	r3, r2
 628 0020 DAB2     		uxtb	r2, r3
 629 0022 0949     		ldr	r1, .L31
 630 0024 7B68     		ldr	r3, [r7, #4]
 631 0026 CB18     		add	r3, r1, r3
 632 0028 1A70     		strb	r2, [r3]
 406:.\Generated_Source\PSoC4/CapSense_CSD_SMS.c **** 	/* Set SensorSensitivity value in LSB nibble */
 407:.\Generated_Source\PSoC4/CapSense_CSD_SMS.c **** 	SMS_LIB_SensorSensitivity[sensor] |= (uint8)value;
 633              		.loc 1 407 0
 634 002a 074A     		ldr	r2, .L31
 635 002c 7B68     		ldr	r3, [r7, #4]
 636 002e D318     		add	r3, r2, r3
 637 0030 1A78     		ldrb	r2, [r3]
 638 0032 3B68     		ldr	r3, [r7]
 639 0034 DBB2     		uxtb	r3, r3
 640 0036 1343     		orr	r3, r2
 641 0038 DAB2     		uxtb	r2, r3
 642 003a 0349     		ldr	r1, .L31
 643 003c 7B68     		ldr	r3, [r7, #4]
 644 003e CB18     		add	r3, r1, r3
 645 0040 1A70     		strb	r2, [r3]
 408:.\Generated_Source\PSoC4/CapSense_CSD_SMS.c **** }
 646              		.loc 1 408 0
 647 0042 BD46     		mov	sp, r7
 648 0044 02B0     		add	sp, sp, #8
 649              		@ sp needed
 650 0046 80BD     		pop	{r7, pc}
 651              	.L32:
 652              		.align	2
 653              	.L31:
 654 0048 00000000 		.word	SMS_LIB_SensorSensitivity
 655              		.cfi_endproc
 656              	.LFE38:
 657              		.size	CapSense_CSD_SetSensitivity, .-CapSense_CSD_SetSensitivity
 658              		.section	.text.CapSense_CSD_GetSensitivityCoefficient,"ax",%progbits
 659              		.align	2
 660              		.global	CapSense_CSD_GetSensitivityCoefficient
 661              		.code	16
 662              		.thumb_func
 663              		.type	CapSense_CSD_GetSensitivityCoefficient, %function
 664              	CapSense_CSD_GetSensitivityCoefficient:
 665              	.LFB39:
 409:.\Generated_Source\PSoC4/CapSense_CSD_SMS.c **** 
 410:.\Generated_Source\PSoC4/CapSense_CSD_SMS.c **** 
ARM GAS  C:\Users\gsgill\AppData\Local\Temp\cc7mh6Ix.s 			page 20


 411:.\Generated_Source\PSoC4/CapSense_CSD_SMS.c **** /*******************************************************************************
 412:.\Generated_Source\PSoC4/CapSense_CSD_SMS.c **** * Function Name: CapSense_CSD_GetSensitivityCoefficient
 413:.\Generated_Source\PSoC4/CapSense_CSD_SMS.c **** ********************************************************************************
 414:.\Generated_Source\PSoC4/CapSense_CSD_SMS.c **** *
 415:.\Generated_Source\PSoC4/CapSense_CSD_SMS.c **** * Summary:
 416:.\Generated_Source\PSoC4/CapSense_CSD_SMS.c **** *  This API returns the K coefficient for the appropriate sensor. 
 417:.\Generated_Source\PSoC4/CapSense_CSD_SMS.c **** *
 418:.\Generated_Source\PSoC4/CapSense_CSD_SMS.c **** * Parameters: 
 419:.\Generated_Source\PSoC4/CapSense_CSD_SMS.c **** *  sensor:  Sensor index 
 420:.\Generated_Source\PSoC4/CapSense_CSD_SMS.c **** *
 421:.\Generated_Source\PSoC4/CapSense_CSD_SMS.c **** *  Return Value:
 422:.\Generated_Source\PSoC4/CapSense_CSD_SMS.c **** *   K - value for the appropriate sensor.
 423:.\Generated_Source\PSoC4/CapSense_CSD_SMS.c **** *
 424:.\Generated_Source\PSoC4/CapSense_CSD_SMS.c **** * Global Variables:
 425:.\Generated_Source\PSoC4/CapSense_CSD_SMS.c **** *  kValueTbl[] - This 8-bits array contains the K value for each sensor.
 426:.\Generated_Source\PSoC4/CapSense_CSD_SMS.c **** *
 427:.\Generated_Source\PSoC4/CapSense_CSD_SMS.c **** * Side Effects: 
 428:.\Generated_Source\PSoC4/CapSense_CSD_SMS.c **** *  None
 429:.\Generated_Source\PSoC4/CapSense_CSD_SMS.c **** *
 430:.\Generated_Source\PSoC4/CapSense_CSD_SMS.c **** *******************************************************************************/
 431:.\Generated_Source\PSoC4/CapSense_CSD_SMS.c **** uint8 CapSense_CSD_GetSensitivityCoefficient(uint32 sensor)
 432:.\Generated_Source\PSoC4/CapSense_CSD_SMS.c **** {
 666              		.loc 1 432 0
 667              		.cfi_startproc
 668 0000 80B5     		push	{r7, lr}
 669              		.cfi_def_cfa_offset 8
 670              		.cfi_offset 7, -8
 671              		.cfi_offset 14, -4
 672 0002 82B0     		sub	sp, sp, #8
 673              		.cfi_def_cfa_offset 16
 674 0004 00AF     		add	r7, sp, #0
 675              		.cfi_def_cfa_register 7
 676 0006 7860     		str	r0, [r7, #4]
 433:.\Generated_Source\PSoC4/CapSense_CSD_SMS.c **** 	return (kValueTbl[sensor]);
 677              		.loc 1 433 0
 678 0008 034A     		ldr	r2, .L35
 679 000a 7B68     		ldr	r3, [r7, #4]
 680 000c D318     		add	r3, r2, r3
 681 000e 1B78     		ldrb	r3, [r3]
 434:.\Generated_Source\PSoC4/CapSense_CSD_SMS.c **** }
 682              		.loc 1 434 0
 683 0010 181C     		mov	r0, r3
 684 0012 BD46     		mov	sp, r7
 685 0014 02B0     		add	sp, sp, #8
 686              		@ sp needed
 687 0016 80BD     		pop	{r7, pc}
 688              	.L36:
 689              		.align	2
 690              	.L35:
 691 0018 00000000 		.word	kValueTbl
 692              		.cfi_endproc
 693              	.LFE39:
 694              		.size	CapSense_CSD_GetSensitivityCoefficient, .-CapSense_CSD_GetSensitivityCoefficient
 695              		.section	.text.CapSense_CSD_GetNoiseEnvelope,"ax",%progbits
 696              		.align	2
 697              		.global	CapSense_CSD_GetNoiseEnvelope
 698              		.code	16
ARM GAS  C:\Users\gsgill\AppData\Local\Temp\cc7mh6Ix.s 			page 21


 699              		.thumb_func
 700              		.type	CapSense_CSD_GetNoiseEnvelope, %function
 701              	CapSense_CSD_GetNoiseEnvelope:
 702              	.LFB40:
 435:.\Generated_Source\PSoC4/CapSense_CSD_SMS.c **** 
 436:.\Generated_Source\PSoC4/CapSense_CSD_SMS.c **** 
 437:.\Generated_Source\PSoC4/CapSense_CSD_SMS.c **** /*******************************************************************************
 438:.\Generated_Source\PSoC4/CapSense_CSD_SMS.c **** * Function Name: CapSense_CSD_GetNoiseEnvelope
 439:.\Generated_Source\PSoC4/CapSense_CSD_SMS.c **** ********************************************************************************
 440:.\Generated_Source\PSoC4/CapSense_CSD_SMS.c **** *
 441:.\Generated_Source\PSoC4/CapSense_CSD_SMS.c **** * Summary:
 442:.\Generated_Source\PSoC4/CapSense_CSD_SMS.c **** *  This function returns the noise value of a
 443:.\Generated_Source\PSoC4/CapSense_CSD_SMS.c **** *  component.
 444:.\Generated_Source\PSoC4/CapSense_CSD_SMS.c **** *
 445:.\Generated_Source\PSoC4/CapSense_CSD_SMS.c **** * Parameters:
 446:.\Generated_Source\PSoC4/CapSense_CSD_SMS.c **** *  sensor - Sensor number.
 447:.\Generated_Source\PSoC4/CapSense_CSD_SMS.c **** *
 448:.\Generated_Source\PSoC4/CapSense_CSD_SMS.c **** * Return:
 449:.\Generated_Source\PSoC4/CapSense_CSD_SMS.c **** *  The noise envelope value of the sensor
 450:.\Generated_Source\PSoC4/CapSense_CSD_SMS.c **** *  indicated by argument.
 451:.\Generated_Source\PSoC4/CapSense_CSD_SMS.c **** *
 452:.\Generated_Source\PSoC4/CapSense_CSD_SMS.c **** * Global Variables:
 453:.\Generated_Source\PSoC4/CapSense_CSD_SMS.c **** *  baNoiseEnvelope[] - array with Noise Envelope.
 454:.\Generated_Source\PSoC4/CapSense_CSD_SMS.c **** *
 455:.\Generated_Source\PSoC4/CapSense_CSD_SMS.c **** * Side Effects:
 456:.\Generated_Source\PSoC4/CapSense_CSD_SMS.c **** *  None
 457:.\Generated_Source\PSoC4/CapSense_CSD_SMS.c **** *
 458:.\Generated_Source\PSoC4/CapSense_CSD_SMS.c **** *******************************************************************************/
 459:.\Generated_Source\PSoC4/CapSense_CSD_SMS.c **** uint16 CapSense_CSD_GetNoiseEnvelope(uint32 sensor)
 460:.\Generated_Source\PSoC4/CapSense_CSD_SMS.c **** {
 703              		.loc 1 460 0
 704              		.cfi_startproc
 705 0000 80B5     		push	{r7, lr}
 706              		.cfi_def_cfa_offset 8
 707              		.cfi_offset 7, -8
 708              		.cfi_offset 14, -4
 709 0002 82B0     		sub	sp, sp, #8
 710              		.cfi_def_cfa_offset 16
 711 0004 00AF     		add	r7, sp, #0
 712              		.cfi_def_cfa_register 7
 713 0006 7860     		str	r0, [r7, #4]
 461:.\Generated_Source\PSoC4/CapSense_CSD_SMS.c ****     return((uint16)((uint16)noiseEnvelopeTbl[sensor] << 1u) + 1u);
 714              		.loc 1 461 0
 715 0008 054A     		ldr	r2, .L39
 716 000a 7B68     		ldr	r3, [r7, #4]
 717 000c D318     		add	r3, r2, r3
 718 000e 1B78     		ldrb	r3, [r3]
 719 0010 DB18     		add	r3, r3, r3
 720 0012 9BB2     		uxth	r3, r3
 721 0014 0133     		add	r3, r3, #1
 722 0016 9BB2     		uxth	r3, r3
 462:.\Generated_Source\PSoC4/CapSense_CSD_SMS.c **** }
 723              		.loc 1 462 0
 724 0018 181C     		mov	r0, r3
 725 001a BD46     		mov	sp, r7
 726 001c 02B0     		add	sp, sp, #8
 727              		@ sp needed
ARM GAS  C:\Users\gsgill\AppData\Local\Temp\cc7mh6Ix.s 			page 22


 728 001e 80BD     		pop	{r7, pc}
 729              	.L40:
 730              		.align	2
 731              	.L39:
 732 0020 00000000 		.word	noiseEnvelopeTbl
 733              		.cfi_endproc
 734              	.LFE40:
 735              		.size	CapSense_CSD_GetNoiseEnvelope, .-CapSense_CSD_GetNoiseEnvelope
 736              		.global	__aeabi_uidiv
 737              		.section	.text.CapSense_CSD_GetNormalizedDiffCountData,"ax",%progbits
 738              		.align	2
 739              		.global	CapSense_CSD_GetNormalizedDiffCountData
 740              		.code	16
 741              		.thumb_func
 742              		.type	CapSense_CSD_GetNormalizedDiffCountData, %function
 743              	CapSense_CSD_GetNormalizedDiffCountData:
 744              	.LFB41:
 463:.\Generated_Source\PSoC4/CapSense_CSD_SMS.c **** 
 464:.\Generated_Source\PSoC4/CapSense_CSD_SMS.c **** 
 465:.\Generated_Source\PSoC4/CapSense_CSD_SMS.c **** /*******************************************************************************
 466:.\Generated_Source\PSoC4/CapSense_CSD_SMS.c **** * Function Name: CapSense_CSD_GetNormalizedDiffCountData
 467:.\Generated_Source\PSoC4/CapSense_CSD_SMS.c **** ********************************************************************************
 468:.\Generated_Source\PSoC4/CapSense_CSD_SMS.c **** *
 469:.\Generated_Source\PSoC4/CapSense_CSD_SMS.c **** * Summary:
 470:.\Generated_Source\PSoC4/CapSense_CSD_SMS.c **** *  This API returns normalized difference count data.
 471:.\Generated_Source\PSoC4/CapSense_CSD_SMS.c **** *
 472:.\Generated_Source\PSoC4/CapSense_CSD_SMS.c **** * Parameters:
 473:.\Generated_Source\PSoC4/CapSense_CSD_SMS.c **** *  sensor:  Sensor number.
 474:.\Generated_Source\PSoC4/CapSense_CSD_SMS.c **** *
 475:.\Generated_Source\PSoC4/CapSense_CSD_SMS.c **** * Return:
 476:.\Generated_Source\PSoC4/CapSense_CSD_SMS.c **** *  This API returns a normalized count value of the sensor indicated by the 
 477:.\Generated_Source\PSoC4/CapSense_CSD_SMS.c **** *  argument. 
 478:.\Generated_Source\PSoC4/CapSense_CSD_SMS.c **** *
 479:.\Generated_Source\PSoC4/CapSense_CSD_SMS.c **** * Global Variables:
 480:.\Generated_Source\PSoC4/CapSense_CSD_SMS.c **** *  CapSense_CSD_sensorSignal[] - array with difference counts for sensors
 481:.\Generated_Source\PSoC4/CapSense_CSD_SMS.c **** * 
 482:.\Generated_Source\PSoC4/CapSense_CSD_SMS.c **** * Side Effects:
 483:.\Generated_Source\PSoC4/CapSense_CSD_SMS.c **** *  None
 484:.\Generated_Source\PSoC4/CapSense_CSD_SMS.c **** *
 485:.\Generated_Source\PSoC4/CapSense_CSD_SMS.c **** *******************************************************************************/
 486:.\Generated_Source\PSoC4/CapSense_CSD_SMS.c **** uint16 CapSense_CSD_GetNormalizedDiffCountData(uint32 sensor)
 487:.\Generated_Source\PSoC4/CapSense_CSD_SMS.c **** {
 745              		.loc 1 487 0
 746              		.cfi_startproc
 747 0000 80B5     		push	{r7, lr}
 748              		.cfi_def_cfa_offset 8
 749              		.cfi_offset 7, -8
 750              		.cfi_offset 14, -4
 751 0002 82B0     		sub	sp, sp, #8
 752              		.cfi_def_cfa_offset 16
 753 0004 00AF     		add	r7, sp, #0
 754              		.cfi_def_cfa_register 7
 755 0006 7860     		str	r0, [r7, #4]
 488:.\Generated_Source\PSoC4/CapSense_CSD_SMS.c **** 	return (uint16)(((uint32)CapSense_CSD_sensorSignal[sensor] << 7u) / kValueTbl[sensor]);
 756              		.loc 1 488 0
 757 0008 094A     		ldr	r2, .L43
 758 000a 7B68     		ldr	r3, [r7, #4]
ARM GAS  C:\Users\gsgill\AppData\Local\Temp\cc7mh6Ix.s 			page 23


 759 000c D318     		add	r3, r2, r3
 760 000e 1B78     		ldrb	r3, [r3]
 761 0010 DA01     		lsl	r2, r3, #7
 762 0012 0849     		ldr	r1, .L43+4
 763 0014 7B68     		ldr	r3, [r7, #4]
 764 0016 CB18     		add	r3, r1, r3
 765 0018 1B78     		ldrb	r3, [r3]
 766 001a 101C     		mov	r0, r2
 767 001c 191C     		mov	r1, r3
 768 001e FFF7FEFF 		bl	__aeabi_uidiv
 769 0022 031C     		mov	r3, r0
 770 0024 9BB2     		uxth	r3, r3
 489:.\Generated_Source\PSoC4/CapSense_CSD_SMS.c **** }
 771              		.loc 1 489 0
 772 0026 181C     		mov	r0, r3
 773 0028 BD46     		mov	sp, r7
 774 002a 02B0     		add	sp, sp, #8
 775              		@ sp needed
 776 002c 80BD     		pop	{r7, pc}
 777              	.L44:
 778 002e C046     		.align	2
 779              	.L43:
 780 0030 00000000 		.word	CapSense_CSD_sensorSignal
 781 0034 00000000 		.word	kValueTbl
 782              		.cfi_endproc
 783              	.LFE41:
 784              		.size	CapSense_CSD_GetNormalizedDiffCountData, .-CapSense_CSD_GetNormalizedDiffCountData
 785              		.text
 786              	.Letext0:
 787              		.file 2 ".\\Generated_Source\\PSoC4\\cytypes.h"
 788              		.file 3 ".\\Generated_Source\\PSoC4\\CapSense_CSD_PVT.h"
 789              		.file 4 ".\\Generated_Source\\PSoC4\\CapSense_CSD.h"
 790              		.file 5 ".\\Generated_Source\\PSoC4\\CapSense_CSD_CSHL.h"