ARM GAS  C:\Users\gsgill\AppData\Local\Temp\cc60Ptud.s 			page 1


   1              		.cpu cortex-m0
   2              		.fpu softvfp
   3              		.eabi_attribute 20, 1
   4              		.eabi_attribute 21, 1
   5              		.eabi_attribute 23, 3
   6              		.eabi_attribute 24, 1
   7              		.eabi_attribute 25, 1
   8              		.eabi_attribute 26, 1
   9              		.eabi_attribute 30, 6
  10              		.eabi_attribute 34, 0
  11              		.eabi_attribute 18, 4
  12              		.code	16
  13              		.file	"CapSense_CSD.c"
  14              		.text
  15              	.Ltext0:
  16              		.cfi_sections	.debug_frame
  17              		.global	CapSense_CSD_lowLevelTuningDone
  18              		.bss
  19              		.type	CapSense_CSD_lowLevelTuningDone, %object
  20              		.size	CapSense_CSD_lowLevelTuningDone, 1
  21              	CapSense_CSD_lowLevelTuningDone:
  22 0000 00       		.space	1
  23              		.comm	scanSpeedTbl,2,4
  24              		.global	CapSense_CSD_prescalersTuningDone
  25              		.type	CapSense_CSD_prescalersTuningDone, %object
  26              		.size	CapSense_CSD_prescalersTuningDone, 1
  27              	CapSense_CSD_prescalersTuningDone:
  28 0001 00       		.space	1
  29              		.global	CapSense_CSD_csdStatusVar
  30              		.type	CapSense_CSD_csdStatusVar, %object
  31              		.size	CapSense_CSD_csdStatusVar, 1
  32              	CapSense_CSD_csdStatusVar:
  33 0002 00       		.space	1
  34              		.global	CapSense_CSD_sensorIndex
  35              		.type	CapSense_CSD_sensorIndex, %object
  36              		.size	CapSense_CSD_sensorIndex, 1
  37              	CapSense_CSD_sensorIndex:
  38 0003 00       		.space	1
  39              		.global	CapSense_CSD_sensorRaw
  40              		.align	2
  41              		.type	CapSense_CSD_sensorRaw, %object
  42              		.size	CapSense_CSD_sensorRaw, 24
  43              	CapSense_CSD_sensorRaw:
  44 0004 00000000 		.space	24
  44      00000000 
  44      00000000 
  44      00000000 
  44      00000000 
  45              		.comm	CapSense_CSD_csdTrim1,1,1
  46              		.comm	CapSense_CSD_unscannedSnsDriveMode,12,4
  47              		.comm	CapSense_CSD_sensorEnableMaskBackup,2,4
  48              		.global	CapSense_CSD_sensorEnableMask
  49              		.data
  50              		.align	2
  51              		.type	CapSense_CSD_sensorEnableMask, %object
  52              		.size	CapSense_CSD_sensorEnableMask, 2
  53              	CapSense_CSD_sensorEnableMask:
ARM GAS  C:\Users\gsgill\AppData\Local\Temp\cc60Ptud.s 			page 2


  54 0000 FF       		.byte	-1
  55 0001 0F       		.byte	15
  56              		.global	CapSense_CSD_pcTable
  57 0002 0000     		.align	2
  58              		.type	CapSense_CSD_pcTable, %object
  59              		.size	CapSense_CSD_pcTable, 48
  60              	CapSense_CSD_pcTable:
  61 0004 08040440 		.word	1074005000
  62 0008 08040440 		.word	1074005000
  63 000c 08010440 		.word	1074004232
  64 0010 08000440 		.word	1074003976
  65 0014 08000440 		.word	1074003976
  66 0018 08000440 		.word	1074003976
  67 001c 08000440 		.word	1074003976
  68 0020 08000440 		.word	1074003976
  69 0024 08000440 		.word	1074003976
  70 0028 08000440 		.word	1074003976
  71 002c 08000440 		.word	1074003976
  72 0030 08040440 		.word	1074005000
  73              		.global	CapSense_CSD_portTable
  74              		.section	.rodata
  75              		.align	2
  76              		.type	CapSense_CSD_portTable, %object
  77              		.size	CapSense_CSD_portTable, 12
  78              	CapSense_CSD_portTable:
  79 0000 04       		.byte	4
  80 0001 04       		.byte	4
  81 0002 01       		.byte	1
  82 0003 00       		.byte	0
  83 0004 00       		.byte	0
  84 0005 00       		.byte	0
  85 0006 00       		.byte	0
  86 0007 00       		.byte	0
  87 0008 00       		.byte	0
  88 0009 00       		.byte	0
  89 000a 00       		.byte	0
  90 000b 04       		.byte	4
  91              		.global	CapSense_CSD_maskTable
  92              		.align	2
  93              		.type	CapSense_CSD_maskTable, %object
  94              		.size	CapSense_CSD_maskTable, 48
  95              	CapSense_CSD_maskTable:
  96 000c 02000000 		.word	2
  97 0010 01000000 		.word	1
  98 0014 01000000 		.word	1
  99 0018 80000000 		.word	128
 100 001c 40000000 		.word	64
 101 0020 20000000 		.word	32
 102 0024 10000000 		.word	16
 103 0028 08000000 		.word	8
 104 002c 04000000 		.word	4
 105 0030 02000000 		.word	2
 106 0034 01000000 		.word	1
 107 0038 08000000 		.word	8
 108              		.global	CapSense_CSD_pinShiftTbl
 109              		.align	2
 110              		.type	CapSense_CSD_pinShiftTbl, %object
ARM GAS  C:\Users\gsgill\AppData\Local\Temp\cc60Ptud.s 			page 3


 111              		.size	CapSense_CSD_pinShiftTbl, 12
 112              	CapSense_CSD_pinShiftTbl:
 113 003c 01       		.byte	1
 114 003d 00       		.byte	0
 115 003e 00       		.byte	0
 116 003f 07       		.byte	7
 117 0040 06       		.byte	6
 118 0041 05       		.byte	5
 119 0042 04       		.byte	4
 120 0043 03       		.byte	3
 121 0044 02       		.byte	2
 122 0045 01       		.byte	1
 123 0046 00       		.byte	0
 124 0047 03       		.byte	3
 125              		.comm	CapSense_CSD_modulationIDAC,12,4
 126              		.comm	CapSense_CSD_compensationIDAC,12,4
 127              		.global	CapSense_CSD_widgetResolution
 128              		.data
 129              		.align	2
 130              		.type	CapSense_CSD_widgetResolution, %object
 131              		.size	CapSense_CSD_widgetResolution, 4
 132              	CapSense_CSD_widgetResolution:
 133 0034 0000FF0F 		.word	268369920
 134              		.comm	CapSense_CSD_senseClkDividerVal,12,4
 135              		.comm	CapSense_CSD_sampleClkDividerVal,12,4
 136              		.global	CapSense_CSD_widgetNumber
 137              		.section	.rodata
 138              		.align	2
 139              		.type	CapSense_CSD_widgetNumber, %object
 140              		.size	CapSense_CSD_widgetNumber, 12
 141              	CapSense_CSD_widgetNumber:
 142 0048 00000000 		.space	12
 142      00000000 
 142      00000000 
 143              		.global	CapSense_CSD_prtSelTbl
 144              		.align	2
 145              		.type	CapSense_CSD_prtSelTbl, %object
 146              		.size	CapSense_CSD_prtSelTbl, 20
 147              	CapSense_CSD_prtSelTbl:
 148 0054 00000140 		.word	1073807360
 149 0058 04000140 		.word	1073807364
 150 005c 08000140 		.word	1073807368
 151 0060 0C000140 		.word	1073807372
 152 0064 10000140 		.word	1073807376
 153              		.global	CapSense_CSD_prtCfgTbl
 154              		.align	2
 155              		.type	CapSense_CSD_prtCfgTbl, %object
 156              		.size	CapSense_CSD_prtCfgTbl, 20
 157              	CapSense_CSD_prtCfgTbl:
 158 0068 08000440 		.word	1074003976
 159 006c 08010440 		.word	1074004232
 160 0070 08020440 		.word	1074004488
 161 0074 08030440 		.word	1074004744
 162 0078 08040440 		.word	1074005000
 163              		.global	CapSense_CSD_prtDRTbl
 164              		.align	2
 165              		.type	CapSense_CSD_prtDRTbl, %object
ARM GAS  C:\Users\gsgill\AppData\Local\Temp\cc60Ptud.s 			page 4


 166              		.size	CapSense_CSD_prtDRTbl, 20
 167              	CapSense_CSD_prtDRTbl:
 168 007c 00000440 		.word	1074003968
 169 0080 00010440 		.word	1074004224
 170 0084 00020440 		.word	1074004480
 171 0088 00030440 		.word	1074004736
 172 008c 00040440 		.word	1074004992
 173              		.section	.text.CapSense_CSD_Init,"ax",%progbits
 174              		.align	2
 175              		.global	CapSense_CSD_Init
 176              		.code	16
 177              		.thumb_func
 178              		.type	CapSense_CSD_Init, %function
 179              	CapSense_CSD_Init:
 180              	.LFB33:
 181              		.file 1 ".\\Generated_Source\\PSoC4\\CapSense_CSD.c"
   1:.\Generated_Source\PSoC4/CapSense_CSD.c **** /*******************************************************************************
   2:.\Generated_Source\PSoC4/CapSense_CSD.c **** * File Name: CapSense_CSD.c
   3:.\Generated_Source\PSoC4/CapSense_CSD.c **** * Version 2.10
   4:.\Generated_Source\PSoC4/CapSense_CSD.c **** *
   5:.\Generated_Source\PSoC4/CapSense_CSD.c **** * Description:
   6:.\Generated_Source\PSoC4/CapSense_CSD.c **** *  This file provides the source code for scanning APIs for the CapSense CSD 
   7:.\Generated_Source\PSoC4/CapSense_CSD.c **** *  component.
   8:.\Generated_Source\PSoC4/CapSense_CSD.c **** *
   9:.\Generated_Source\PSoC4/CapSense_CSD.c **** * Note:
  10:.\Generated_Source\PSoC4/CapSense_CSD.c **** *
  11:.\Generated_Source\PSoC4/CapSense_CSD.c **** ********************************************************************************
  12:.\Generated_Source\PSoC4/CapSense_CSD.c **** * Copyright 2014, Cypress Semiconductor Corporation.  All rights reserved.
  13:.\Generated_Source\PSoC4/CapSense_CSD.c **** * You may use this file only in accordance with the license, terms, conditions,
  14:.\Generated_Source\PSoC4/CapSense_CSD.c **** * disclaimers, and limitations in the end user license agreement accompanying
  15:.\Generated_Source\PSoC4/CapSense_CSD.c **** * the software package with which this file was provided.
  16:.\Generated_Source\PSoC4/CapSense_CSD.c **** *******************************************************************************/
  17:.\Generated_Source\PSoC4/CapSense_CSD.c **** 
  18:.\Generated_Source\PSoC4/CapSense_CSD.c **** #include "CapSense_CSD.h"
  19:.\Generated_Source\PSoC4/CapSense_CSD.c **** #include "CapSense_CSD_PVT.h"
  20:.\Generated_Source\PSoC4/CapSense_CSD.c **** #include "cypins.h"
  21:.\Generated_Source\PSoC4/CapSense_CSD.c **** 
  22:.\Generated_Source\PSoC4/CapSense_CSD.c **** #if(0u != CapSense_CSD_CSHL_API_GENERATE)
  23:.\Generated_Source\PSoC4/CapSense_CSD.c **** 	#include "CapSense_CSD_CSHL.h"
  24:.\Generated_Source\PSoC4/CapSense_CSD.c **** #endif /* (0u != CapSense_CSD_CSHL_API_GENERATE) */
  25:.\Generated_Source\PSoC4/CapSense_CSD.c **** 
  26:.\Generated_Source\PSoC4/CapSense_CSD.c **** /* This definition is intended to prevent unexpected linker error. 
  27:.\Generated_Source\PSoC4/CapSense_CSD.c ****    For more details please see the IAR Technical Note 49981 */
  28:.\Generated_Source\PSoC4/CapSense_CSD.c **** #if defined(__ICCARM__)
  29:.\Generated_Source\PSoC4/CapSense_CSD.c **** 	extern __INLINE void CapSense_CSD_EnableSensor(uint32 sensor);
  30:.\Generated_Source\PSoC4/CapSense_CSD.c **** 	extern __INLINE void CapSense_CSD_DisableSensor(uint32 sensor);
  31:.\Generated_Source\PSoC4/CapSense_CSD.c **** #endif /* (__ICCARM__) */	
  32:.\Generated_Source\PSoC4/CapSense_CSD.c **** 
  33:.\Generated_Source\PSoC4/CapSense_CSD.c **** /* SmartSense functions */
  34:.\Generated_Source\PSoC4/CapSense_CSD.c **** #if (CapSense_CSD_TUNING_METHOD == CapSense_CSD__TUNING_AUTO)
  35:.\Generated_Source\PSoC4/CapSense_CSD.c ****     uint8 CapSense_CSD_lowLevelTuningDone = 0u;
  36:.\Generated_Source\PSoC4/CapSense_CSD.c **** 	uint8 scanSpeedTbl[((CapSense_CSD_TOTAL_SENSOR_COUNT - 1u) / 8u) + 1u];
  37:.\Generated_Source\PSoC4/CapSense_CSD.c **** #endif /* (CapSense_CSD_TUNING_METHOD == CapSense_CSD__TUNING_AUTO) */
  38:.\Generated_Source\PSoC4/CapSense_CSD.c **** 
  39:.\Generated_Source\PSoC4/CapSense_CSD.c **** #if(CapSense_CSD_PRS_OPTIONS != CapSense_CSD__PRS_NONE)
  40:.\Generated_Source\PSoC4/CapSense_CSD.c **** 	uint8 CapSense_CSD_prescalersTuningDone = 0u;
  41:.\Generated_Source\PSoC4/CapSense_CSD.c **** #endif /* (CapSense_CSD_PRS_OPTIONS == CapSense_CSD__PRS_NONE) */
ARM GAS  C:\Users\gsgill\AppData\Local\Temp\cc60Ptud.s 			page 5


  42:.\Generated_Source\PSoC4/CapSense_CSD.c ****             
  43:.\Generated_Source\PSoC4/CapSense_CSD.c **** /* Global software variables */
  44:.\Generated_Source\PSoC4/CapSense_CSD.c **** volatile uint8 CapSense_CSD_csdStatusVar = 0u;   /* CapSense CSD status, variable */
  45:.\Generated_Source\PSoC4/CapSense_CSD.c **** volatile uint8 CapSense_CSD_sensorIndex = 0u;    /* Index of scannig sensor */
  46:.\Generated_Source\PSoC4/CapSense_CSD.c **** 
  47:.\Generated_Source\PSoC4/CapSense_CSD.c **** /* Global array of Raw Counts */
  48:.\Generated_Source\PSoC4/CapSense_CSD.c **** uint16 CapSense_CSD_sensorRaw[CapSense_CSD_TOTAL_SENSOR_COUNT] = {0u};
  49:.\Generated_Source\PSoC4/CapSense_CSD.c **** 
  50:.\Generated_Source\PSoC4/CapSense_CSD.c **** /* Backup variables for trim registers*/
  51:.\Generated_Source\PSoC4/CapSense_CSD.c **** #if (CapSense_CSD_IDAC1_POLARITY == CapSense_CSD__IDAC_SINK)
  52:.\Generated_Source\PSoC4/CapSense_CSD.c **** 	uint8 CapSense_CSD_csdTrim2;   
  53:.\Generated_Source\PSoC4/CapSense_CSD.c **** #else
  54:.\Generated_Source\PSoC4/CapSense_CSD.c ****     uint8 CapSense_CSD_csdTrim1;	
  55:.\Generated_Source\PSoC4/CapSense_CSD.c **** #endif /* (CapSense_CSD_IDAC1_POLARITY == CapSense_CSD__IDAC_SINK) */
  56:.\Generated_Source\PSoC4/CapSense_CSD.c **** 
  57:.\Generated_Source\PSoC4/CapSense_CSD.c **** /* Global array of un-scanned sensors state */
  58:.\Generated_Source\PSoC4/CapSense_CSD.c **** uint8 CapSense_CSD_unscannedSnsDriveMode[CapSense_CSD_TOTAL_SENSOR_COUNT];
  59:.\Generated_Source\PSoC4/CapSense_CSD.c **** 
  60:.\Generated_Source\PSoC4/CapSense_CSD.c **** /* Backup array for CapSense_CSD_sensorEnableMask */
  61:.\Generated_Source\PSoC4/CapSense_CSD.c **** uint8 CapSense_CSD_sensorEnableMaskBackup[(((CapSense_CSD_TOTAL_SENSOR_COUNT - 1u) / 8u) + 1u)];
  62:.\Generated_Source\PSoC4/CapSense_CSD.c **** 
  63:.\Generated_Source\PSoC4/CapSense_CSD.c **** /* Configured constants and arrays by Customizer */
  64:.\Generated_Source\PSoC4/CapSense_CSD.c **** uint8 CapSense_CSD_sensorEnableMask[(((CapSense_CSD_TOTAL_SENSOR_COUNT - 1u) / 8u) + 1u)] = {
  65:.\Generated_Source\PSoC4/CapSense_CSD.c **** 0xFFu, 0xFu, };
  66:.\Generated_Source\PSoC4/CapSense_CSD.c **** 
  67:.\Generated_Source\PSoC4/CapSense_CSD.c **** reg32 * CapSense_CSD_pcTable[] = {
  68:.\Generated_Source\PSoC4/CapSense_CSD.c ****     (reg32 *)CapSense_CSD_Sns__LinearSlider0_e0__LS__PC, 
  69:.\Generated_Source\PSoC4/CapSense_CSD.c ****     (reg32 *)CapSense_CSD_Sns__LinearSlider0_e1__LS__PC, 
  70:.\Generated_Source\PSoC4/CapSense_CSD.c ****     (reg32 *)CapSense_CSD_Sns__LinearSlider0_e2__LS__PC, 
  71:.\Generated_Source\PSoC4/CapSense_CSD.c ****     (reg32 *)CapSense_CSD_Sns__LinearSlider0_e3__LS__PC, 
  72:.\Generated_Source\PSoC4/CapSense_CSD.c ****     (reg32 *)CapSense_CSD_Sns__LinearSlider0_e4__LS__PC, 
  73:.\Generated_Source\PSoC4/CapSense_CSD.c ****     (reg32 *)CapSense_CSD_Sns__LinearSlider0_e5__LS__PC, 
  74:.\Generated_Source\PSoC4/CapSense_CSD.c ****     (reg32 *)CapSense_CSD_Sns__LinearSlider0_e6__LS__PC, 
  75:.\Generated_Source\PSoC4/CapSense_CSD.c ****     (reg32 *)CapSense_CSD_Sns__LinearSlider0_e7__LS__PC, 
  76:.\Generated_Source\PSoC4/CapSense_CSD.c ****     (reg32 *)CapSense_CSD_Sns__LinearSlider0_e8__LS__PC, 
  77:.\Generated_Source\PSoC4/CapSense_CSD.c ****     (reg32 *)CapSense_CSD_Sns__LinearSlider0_e9__LS__PC, 
  78:.\Generated_Source\PSoC4/CapSense_CSD.c ****     (reg32 *)CapSense_CSD_Sns__LinearSlider0_e10__LS__PC, 
  79:.\Generated_Source\PSoC4/CapSense_CSD.c ****     (reg32 *)CapSense_CSD_Sns__LinearSlider0_e11__LS__PC, 
  80:.\Generated_Source\PSoC4/CapSense_CSD.c **** };
  81:.\Generated_Source\PSoC4/CapSense_CSD.c **** 
  82:.\Generated_Source\PSoC4/CapSense_CSD.c **** const uint8 CapSense_CSD_portTable[] = {
  83:.\Generated_Source\PSoC4/CapSense_CSD.c ****     CapSense_CSD_Sns__LinearSlider0_e0__LS__PORT, 
  84:.\Generated_Source\PSoC4/CapSense_CSD.c ****     CapSense_CSD_Sns__LinearSlider0_e1__LS__PORT, 
  85:.\Generated_Source\PSoC4/CapSense_CSD.c ****     CapSense_CSD_Sns__LinearSlider0_e2__LS__PORT, 
  86:.\Generated_Source\PSoC4/CapSense_CSD.c ****     CapSense_CSD_Sns__LinearSlider0_e3__LS__PORT, 
  87:.\Generated_Source\PSoC4/CapSense_CSD.c ****     CapSense_CSD_Sns__LinearSlider0_e4__LS__PORT, 
  88:.\Generated_Source\PSoC4/CapSense_CSD.c ****     CapSense_CSD_Sns__LinearSlider0_e5__LS__PORT, 
  89:.\Generated_Source\PSoC4/CapSense_CSD.c ****     CapSense_CSD_Sns__LinearSlider0_e6__LS__PORT, 
  90:.\Generated_Source\PSoC4/CapSense_CSD.c ****     CapSense_CSD_Sns__LinearSlider0_e7__LS__PORT, 
  91:.\Generated_Source\PSoC4/CapSense_CSD.c ****     CapSense_CSD_Sns__LinearSlider0_e8__LS__PORT, 
  92:.\Generated_Source\PSoC4/CapSense_CSD.c ****     CapSense_CSD_Sns__LinearSlider0_e9__LS__PORT, 
  93:.\Generated_Source\PSoC4/CapSense_CSD.c ****     CapSense_CSD_Sns__LinearSlider0_e10__LS__PORT, 
  94:.\Generated_Source\PSoC4/CapSense_CSD.c ****     CapSense_CSD_Sns__LinearSlider0_e11__LS__PORT, 
  95:.\Generated_Source\PSoC4/CapSense_CSD.c **** };
  96:.\Generated_Source\PSoC4/CapSense_CSD.c **** 
  97:.\Generated_Source\PSoC4/CapSense_CSD.c **** const uint32 CapSense_CSD_maskTable[] = {
  98:.\Generated_Source\PSoC4/CapSense_CSD.c ****     CapSense_CSD_Sns__LinearSlider0_e0__LS__MASK, 
ARM GAS  C:\Users\gsgill\AppData\Local\Temp\cc60Ptud.s 			page 6


  99:.\Generated_Source\PSoC4/CapSense_CSD.c ****     CapSense_CSD_Sns__LinearSlider0_e1__LS__MASK, 
 100:.\Generated_Source\PSoC4/CapSense_CSD.c ****     CapSense_CSD_Sns__LinearSlider0_e2__LS__MASK, 
 101:.\Generated_Source\PSoC4/CapSense_CSD.c ****     CapSense_CSD_Sns__LinearSlider0_e3__LS__MASK, 
 102:.\Generated_Source\PSoC4/CapSense_CSD.c ****     CapSense_CSD_Sns__LinearSlider0_e4__LS__MASK, 
 103:.\Generated_Source\PSoC4/CapSense_CSD.c ****     CapSense_CSD_Sns__LinearSlider0_e5__LS__MASK, 
 104:.\Generated_Source\PSoC4/CapSense_CSD.c ****     CapSense_CSD_Sns__LinearSlider0_e6__LS__MASK, 
 105:.\Generated_Source\PSoC4/CapSense_CSD.c ****     CapSense_CSD_Sns__LinearSlider0_e7__LS__MASK, 
 106:.\Generated_Source\PSoC4/CapSense_CSD.c ****     CapSense_CSD_Sns__LinearSlider0_e8__LS__MASK, 
 107:.\Generated_Source\PSoC4/CapSense_CSD.c ****     CapSense_CSD_Sns__LinearSlider0_e9__LS__MASK, 
 108:.\Generated_Source\PSoC4/CapSense_CSD.c ****     CapSense_CSD_Sns__LinearSlider0_e10__LS__MASK, 
 109:.\Generated_Source\PSoC4/CapSense_CSD.c ****     CapSense_CSD_Sns__LinearSlider0_e11__LS__MASK, 
 110:.\Generated_Source\PSoC4/CapSense_CSD.c **** };
 111:.\Generated_Source\PSoC4/CapSense_CSD.c **** 
 112:.\Generated_Source\PSoC4/CapSense_CSD.c **** const uint8 CapSense_CSD_pinShiftTbl[] = {
 113:.\Generated_Source\PSoC4/CapSense_CSD.c ****     (uint8) CapSense_CSD_Sns__LinearSlider0_e0__LS__SHIFT, 
 114:.\Generated_Source\PSoC4/CapSense_CSD.c ****     (uint8) CapSense_CSD_Sns__LinearSlider0_e1__LS__SHIFT, 
 115:.\Generated_Source\PSoC4/CapSense_CSD.c ****     (uint8) CapSense_CSD_Sns__LinearSlider0_e2__LS__SHIFT, 
 116:.\Generated_Source\PSoC4/CapSense_CSD.c ****     (uint8) CapSense_CSD_Sns__LinearSlider0_e3__LS__SHIFT, 
 117:.\Generated_Source\PSoC4/CapSense_CSD.c ****     (uint8) CapSense_CSD_Sns__LinearSlider0_e4__LS__SHIFT, 
 118:.\Generated_Source\PSoC4/CapSense_CSD.c ****     (uint8) CapSense_CSD_Sns__LinearSlider0_e5__LS__SHIFT, 
 119:.\Generated_Source\PSoC4/CapSense_CSD.c ****     (uint8) CapSense_CSD_Sns__LinearSlider0_e6__LS__SHIFT, 
 120:.\Generated_Source\PSoC4/CapSense_CSD.c ****     (uint8) CapSense_CSD_Sns__LinearSlider0_e7__LS__SHIFT, 
 121:.\Generated_Source\PSoC4/CapSense_CSD.c ****     (uint8) CapSense_CSD_Sns__LinearSlider0_e8__LS__SHIFT, 
 122:.\Generated_Source\PSoC4/CapSense_CSD.c ****     (uint8) CapSense_CSD_Sns__LinearSlider0_e9__LS__SHIFT, 
 123:.\Generated_Source\PSoC4/CapSense_CSD.c ****     (uint8) CapSense_CSD_Sns__LinearSlider0_e10__LS__SHIFT, 
 124:.\Generated_Source\PSoC4/CapSense_CSD.c ****     (uint8) CapSense_CSD_Sns__LinearSlider0_e11__LS__SHIFT, 
 125:.\Generated_Source\PSoC4/CapSense_CSD.c **** };
 126:.\Generated_Source\PSoC4/CapSense_CSD.c **** 
 127:.\Generated_Source\PSoC4/CapSense_CSD.c **** uint8 CapSense_CSD_modulationIDAC[CapSense_CSD_TOTAL_SENSOR_COUNT];
 128:.\Generated_Source\PSoC4/CapSense_CSD.c **** uint8 CapSense_CSD_compensationIDAC[CapSense_CSD_TOTAL_SENSOR_COUNT];
 129:.\Generated_Source\PSoC4/CapSense_CSD.c **** 
 130:.\Generated_Source\PSoC4/CapSense_CSD.c **** uint32 CapSense_CSD_widgetResolution[CapSense_CSD_RESOLUTIONS_TBL_SIZE] = {
 131:.\Generated_Source\PSoC4/CapSense_CSD.c ****     CapSense_CSD_RESOLUTION_12_BITS,
 132:.\Generated_Source\PSoC4/CapSense_CSD.c **** };
 133:.\Generated_Source\PSoC4/CapSense_CSD.c **** 
 134:.\Generated_Source\PSoC4/CapSense_CSD.c **** uint8 CapSense_CSD_senseClkDividerVal[CapSense_CSD_TOTAL_SCANSLOT_COUNT];
 135:.\Generated_Source\PSoC4/CapSense_CSD.c **** uint8 CapSense_CSD_sampleClkDividerVal[CapSense_CSD_TOTAL_SCANSLOT_COUNT];
 136:.\Generated_Source\PSoC4/CapSense_CSD.c **** 
 137:.\Generated_Source\PSoC4/CapSense_CSD.c **** const uint8 CapSense_CSD_widgetNumber[CapSense_CSD_TOTAL_SENSOR_COUNT] = {
 138:.\Generated_Source\PSoC4/CapSense_CSD.c ****     0u, 0u, 0u, 0u, 0u, 0u, 0u, 0u, 0u, 0u, 0u, 0u, /* LinearSlider0__LS */
 139:.\Generated_Source\PSoC4/CapSense_CSD.c **** };
 140:.\Generated_Source\PSoC4/CapSense_CSD.c **** 
 141:.\Generated_Source\PSoC4/CapSense_CSD.c **** 
 142:.\Generated_Source\PSoC4/CapSense_CSD.c **** 
 143:.\Generated_Source\PSoC4/CapSense_CSD.c **** reg32* const CapSense_CSD_prtSelTbl[] = {
 144:.\Generated_Source\PSoC4/CapSense_CSD.c **** 	((reg32 *) CYREG_HSIOM_PORT_SEL0),
 145:.\Generated_Source\PSoC4/CapSense_CSD.c **** 	((reg32 *) CYREG_HSIOM_PORT_SEL1),
 146:.\Generated_Source\PSoC4/CapSense_CSD.c **** 	((reg32 *) CYREG_HSIOM_PORT_SEL2),
 147:.\Generated_Source\PSoC4/CapSense_CSD.c **** 	((reg32 *) CYREG_HSIOM_PORT_SEL3),
 148:.\Generated_Source\PSoC4/CapSense_CSD.c **** #if (CY_PSOC4_4200BL)
 149:.\Generated_Source\PSoC4/CapSense_CSD.c **** 	((reg32 *) CYREG_HSIOM_PORT_SEL4),
 150:.\Generated_Source\PSoC4/CapSense_CSD.c **** 	((reg32 *) CYREG_HSIOM_PORT_SEL5)
 151:.\Generated_Source\PSoC4/CapSense_CSD.c **** #elif(0u == CapSense_CSD_M0S8CSD_BLOCK_VER)
 152:.\Generated_Source\PSoC4/CapSense_CSD.c **** 	((reg32 *) CYREG_HSIOM_PORT_SEL4)
 153:.\Generated_Source\PSoC4/CapSense_CSD.c **** #endif /* (0u == CapSense_CSD_M0S8CSD_BLOCK_VER) */
 154:.\Generated_Source\PSoC4/CapSense_CSD.c **** };
 155:.\Generated_Source\PSoC4/CapSense_CSD.c **** 
ARM GAS  C:\Users\gsgill\AppData\Local\Temp\cc60Ptud.s 			page 7


 156:.\Generated_Source\PSoC4/CapSense_CSD.c **** reg32* const CapSense_CSD_prtCfgTbl[] = {
 157:.\Generated_Source\PSoC4/CapSense_CSD.c **** 	((reg32 *) CYREG_PRT0_PC),
 158:.\Generated_Source\PSoC4/CapSense_CSD.c **** 	((reg32 *) CYREG_PRT1_PC),
 159:.\Generated_Source\PSoC4/CapSense_CSD.c **** 	((reg32 *) CYREG_PRT2_PC),
 160:.\Generated_Source\PSoC4/CapSense_CSD.c **** 	((reg32 *) CYREG_PRT3_PC),
 161:.\Generated_Source\PSoC4/CapSense_CSD.c **** #if (CY_PSOC4_4200BL)
 162:.\Generated_Source\PSoC4/CapSense_CSD.c **** 	((reg32 *) CYREG_PRT4_PC),
 163:.\Generated_Source\PSoC4/CapSense_CSD.c **** 	((reg32 *) CYREG_PRT5_PC)
 164:.\Generated_Source\PSoC4/CapSense_CSD.c **** #elif(0u == CapSense_CSD_M0S8CSD_BLOCK_VER)
 165:.\Generated_Source\PSoC4/CapSense_CSD.c **** 	((reg32 *) CYREG_PRT4_PC)	
 166:.\Generated_Source\PSoC4/CapSense_CSD.c **** #endif /* (0u == CapSense_CSD_M0S8CSD_BLOCK_VER) */	
 167:.\Generated_Source\PSoC4/CapSense_CSD.c **** };
 168:.\Generated_Source\PSoC4/CapSense_CSD.c **** 
 169:.\Generated_Source\PSoC4/CapSense_CSD.c **** reg32* const CapSense_CSD_prtDRTbl[] = {
 170:.\Generated_Source\PSoC4/CapSense_CSD.c **** 	((reg32 *) CYREG_PRT0_DR),
 171:.\Generated_Source\PSoC4/CapSense_CSD.c **** 	((reg32 *) CYREG_PRT1_DR),
 172:.\Generated_Source\PSoC4/CapSense_CSD.c **** 	((reg32 *) CYREG_PRT2_DR),
 173:.\Generated_Source\PSoC4/CapSense_CSD.c **** 	((reg32 *) CYREG_PRT3_DR),
 174:.\Generated_Source\PSoC4/CapSense_CSD.c **** #if (CY_PSOC4_4200BL)
 175:.\Generated_Source\PSoC4/CapSense_CSD.c **** 	((reg32 *) CYREG_PRT4_DR),
 176:.\Generated_Source\PSoC4/CapSense_CSD.c **** 	((reg32 *) CYREG_PRT5_DR),
 177:.\Generated_Source\PSoC4/CapSense_CSD.c **** #elif(0u == CapSense_CSD_M0S8CSD_BLOCK_VER)
 178:.\Generated_Source\PSoC4/CapSense_CSD.c **** 	((reg32 *) CYREG_PRT4_DR),
 179:.\Generated_Source\PSoC4/CapSense_CSD.c **** #endif /* (0u == CapSense_CSD_M0S8CSD_BLOCK_VER) */	
 180:.\Generated_Source\PSoC4/CapSense_CSD.c **** };
 181:.\Generated_Source\PSoC4/CapSense_CSD.c ****     
 182:.\Generated_Source\PSoC4/CapSense_CSD.c **** 
 183:.\Generated_Source\PSoC4/CapSense_CSD.c **** /*******************************************************************************
 184:.\Generated_Source\PSoC4/CapSense_CSD.c **** * Function Name: CapSense_CSD_Init
 185:.\Generated_Source\PSoC4/CapSense_CSD.c **** ********************************************************************************
 186:.\Generated_Source\PSoC4/CapSense_CSD.c **** *
 187:.\Generated_Source\PSoC4/CapSense_CSD.c **** * Summary:
 188:.\Generated_Source\PSoC4/CapSense_CSD.c **** *  API initializes default CapSense configuration provided by the customizer that defines 
 189:.\Generated_Source\PSoC4/CapSense_CSD.c **** *  the mode of component operations and resets all the sensors to an inactive state.
 190:.\Generated_Source\PSoC4/CapSense_CSD.c **** *
 191:.\Generated_Source\PSoC4/CapSense_CSD.c **** * Parameters:
 192:.\Generated_Source\PSoC4/CapSense_CSD.c **** *  None
 193:.\Generated_Source\PSoC4/CapSense_CSD.c **** *
 194:.\Generated_Source\PSoC4/CapSense_CSD.c **** * Return:
 195:.\Generated_Source\PSoC4/CapSense_CSD.c **** *  None
 196:.\Generated_Source\PSoC4/CapSense_CSD.c **** *
 197:.\Generated_Source\PSoC4/CapSense_CSD.c **** * Global Variables:
 198:.\Generated_Source\PSoC4/CapSense_CSD.c **** *  CapSense_CSD_immunityIndex - defines immunity level.
 199:.\Generated_Source\PSoC4/CapSense_CSD.c **** *
 200:.\Generated_Source\PSoC4/CapSense_CSD.c **** * Side Effects:
 201:.\Generated_Source\PSoC4/CapSense_CSD.c **** *  None
 202:.\Generated_Source\PSoC4/CapSense_CSD.c **** * 
 203:.\Generated_Source\PSoC4/CapSense_CSD.c **** *******************************************************************************/
 204:.\Generated_Source\PSoC4/CapSense_CSD.c **** void CapSense_CSD_Init(void)
 205:.\Generated_Source\PSoC4/CapSense_CSD.c **** {   
 182              		.loc 1 205 0
 183              		.cfi_startproc
 184 0000 80B5     		push	{r7, lr}
 185              		.cfi_def_cfa_offset 8
 186              		.cfi_offset 7, -8
 187              		.cfi_offset 14, -4
 188 0002 82B0     		sub	sp, sp, #8
ARM GAS  C:\Users\gsgill\AppData\Local\Temp\cc60Ptud.s 			page 8


 189              		.cfi_def_cfa_offset 16
 190 0004 00AF     		add	r7, sp, #0
 191              		.cfi_def_cfa_register 7
 206:.\Generated_Source\PSoC4/CapSense_CSD.c **** 	uint32 curSensor;
 207:.\Generated_Source\PSoC4/CapSense_CSD.c **** 	
 208:.\Generated_Source\PSoC4/CapSense_CSD.c **** 	#if(CapSense_CSD_IS_SHIELD_ENABLE)
 209:.\Generated_Source\PSoC4/CapSense_CSD.c **** 		
 210:.\Generated_Source\PSoC4/CapSense_CSD.c **** 		#if((CapSense_CSD_CSH_TANK_PREGARGE_OPTION == CapSense_CSD__CAPPRIOBUF) || (0u != CapSense_CSD_CS
 211:.\Generated_Source\PSoC4/CapSense_CSD.c **** 			uint32 newRegValue;
 212:.\Generated_Source\PSoC4/CapSense_CSD.c **** 			
 213:.\Generated_Source\PSoC4/CapSense_CSD.c **** 			newRegValue = CapSense_CSD_CTANK_CONNECTION_REG;
 214:.\Generated_Source\PSoC4/CapSense_CSD.c **** 	        newRegValue &= ~(CapSense_CSD_CSD_CTANK_CONNECTION_MASK);
 215:.\Generated_Source\PSoC4/CapSense_CSD.c **** 			newRegValue |= CapSense_CSD_CSD_CTANK_TO_AMUXBUS_B;
 216:.\Generated_Source\PSoC4/CapSense_CSD.c **** 	        CapSense_CSD_CTANK_CONNECTION_REG = newRegValue;
 217:.\Generated_Source\PSoC4/CapSense_CSD.c **** 			
 218:.\Generated_Source\PSoC4/CapSense_CSD.c **** 			#if(CapSense_CSD_CSH_TANK_PREGARGE_OPTION == CapSense_CSD__CAPPRIOBUF)
 219:.\Generated_Source\PSoC4/CapSense_CSD.c **** 				newRegValue = CapSense_CSD_CTANK_PORT_PC_REG;
 220:.\Generated_Source\PSoC4/CapSense_CSD.c **** 		        newRegValue &= ~(CapSense_CSD_CSD_CTANK_PC_MASK);
 221:.\Generated_Source\PSoC4/CapSense_CSD.c **** 				newRegValue |= CapSense_CSD_CTANK_PC_STRONG_MODE;
 222:.\Generated_Source\PSoC4/CapSense_CSD.c **** 		        CapSense_CSD_CTANK_PORT_PC_REG = newRegValue;
 223:.\Generated_Source\PSoC4/CapSense_CSD.c **** 				
 224:.\Generated_Source\PSoC4/CapSense_CSD.c **** 				newRegValue = CapSense_CSD_CTANK_PORT_DR_REG;
 225:.\Generated_Source\PSoC4/CapSense_CSD.c **** 		        newRegValue &= ~(CapSense_CSD_CTANK_DR_MASK);
 226:.\Generated_Source\PSoC4/CapSense_CSD.c **** 				newRegValue |= CapSense_CSD_CTANK_DR_CONFIG;
 227:.\Generated_Source\PSoC4/CapSense_CSD.c **** 		        CapSense_CSD_CTANK_PORT_DR_REG = newRegValue;
 228:.\Generated_Source\PSoC4/CapSense_CSD.c **** 			#endif /* (CapSense_CSD_CSH_TANK_PREGARGE_OPTION == CapSense_CSD__CAPPRIOBUF) */
 229:.\Generated_Source\PSoC4/CapSense_CSD.c **** 	        
 230:.\Generated_Source\PSoC4/CapSense_CSD.c **** 		#endif /* ((CapSense_CSD_CSH_TANK_PREGARGE_OPTION == CapSense_CSD__CAPPRIOBUF) || (CapSense_CSD_C
 231:.\Generated_Source\PSoC4/CapSense_CSD.c **** 		
 232:.\Generated_Source\PSoC4/CapSense_CSD.c **** 		CapSense_CSD_EnableShieldElectrode((uint32)CapSense_CSD_SHIELD_PIN_NUMBER, (uint32)CapSense_CSD_S
 233:.\Generated_Source\PSoC4/CapSense_CSD.c **** 		
 234:.\Generated_Source\PSoC4/CapSense_CSD.c **** 	#endif /* (CapSense_CSD_IS_SHIELD_ENABLE) */
 235:.\Generated_Source\PSoC4/CapSense_CSD.c **** 	
 236:.\Generated_Source\PSoC4/CapSense_CSD.c **** 	for(curSensor = 0u; curSensor < CapSense_CSD_TOTAL_SENSOR_COUNT; curSensor++)
 192              		.loc 1 236 0
 193 0006 0023     		mov	r3, #0
 194 0008 7B60     		str	r3, [r7, #4]
 195 000a 07E0     		b	.L2
 196              	.L3:
 237:.\Generated_Source\PSoC4/CapSense_CSD.c **** 	{
 238:.\Generated_Source\PSoC4/CapSense_CSD.c **** 		CapSense_CSD_unscannedSnsDriveMode[curSensor] = CapSense_CSD_CONNECT_INACTIVE_SNS;
 197              		.loc 1 238 0 discriminator 2
 198 000c 0A4A     		ldr	r2, .L4
 199 000e 7B68     		ldr	r3, [r7, #4]
 200 0010 D318     		add	r3, r2, r3
 201 0012 0022     		mov	r2, #0
 202 0014 1A70     		strb	r2, [r3]
 236:.\Generated_Source\PSoC4/CapSense_CSD.c **** 	for(curSensor = 0u; curSensor < CapSense_CSD_TOTAL_SENSOR_COUNT; curSensor++)
 203              		.loc 1 236 0 discriminator 2
 204 0016 7B68     		ldr	r3, [r7, #4]
 205 0018 0133     		add	r3, r3, #1
 206 001a 7B60     		str	r3, [r7, #4]
 207              	.L2:
 236:.\Generated_Source\PSoC4/CapSense_CSD.c **** 	for(curSensor = 0u; curSensor < CapSense_CSD_TOTAL_SENSOR_COUNT; curSensor++)
 208              		.loc 1 236 0 is_stmt 0 discriminator 1
 209 001c 7B68     		ldr	r3, [r7, #4]
 210 001e 0B2B     		cmp	r3, #11
ARM GAS  C:\Users\gsgill\AppData\Local\Temp\cc60Ptud.s 			page 9


 211 0020 F4D9     		bls	.L3
 239:.\Generated_Source\PSoC4/CapSense_CSD.c **** 	}
 240:.\Generated_Source\PSoC4/CapSense_CSD.c ****     
 241:.\Generated_Source\PSoC4/CapSense_CSD.c **** 	CapSense_CSD_CsdHwBlockInit();
 212              		.loc 1 241 0 is_stmt 1
 213 0022 FFF7FEFF 		bl	CapSense_CSD_CsdHwBlockInit
 242:.\Generated_Source\PSoC4/CapSense_CSD.c ****     CapSense_CSD_SetShieldDelay(CapSense_CSD_SHIELD_DELAY );
 214              		.loc 1 242 0
 215 0026 0020     		mov	r0, #0
 216 0028 FFF7FEFF 		bl	CapSense_CSD_SetShieldDelay
 243:.\Generated_Source\PSoC4/CapSense_CSD.c **** 	
 244:.\Generated_Source\PSoC4/CapSense_CSD.c **** 	/* Clear all sensors */
 245:.\Generated_Source\PSoC4/CapSense_CSD.c ****     CapSense_CSD_ClearSensors();
 217              		.loc 1 245 0
 218 002c FFF7FEFF 		bl	CapSense_CSD_ClearSensors
 246:.\Generated_Source\PSoC4/CapSense_CSD.c **** }
 219              		.loc 1 246 0
 220 0030 BD46     		mov	sp, r7
 221 0032 02B0     		add	sp, sp, #8
 222              		@ sp needed
 223 0034 80BD     		pop	{r7, pc}
 224              	.L5:
 225 0036 C046     		.align	2
 226              	.L4:
 227 0038 00000000 		.word	CapSense_CSD_unscannedSnsDriveMode
 228              		.cfi_endproc
 229              	.LFE33:
 230              		.size	CapSense_CSD_Init, .-CapSense_CSD_Init
 231              		.section	.text.CapSense_CSD_CsdHwBlockInit,"ax",%progbits
 232              		.align	2
 233              		.global	CapSense_CSD_CsdHwBlockInit
 234              		.code	16
 235              		.thumb_func
 236              		.type	CapSense_CSD_CsdHwBlockInit, %function
 237              	CapSense_CSD_CsdHwBlockInit:
 238              	.LFB34:
 247:.\Generated_Source\PSoC4/CapSense_CSD.c **** 
 248:.\Generated_Source\PSoC4/CapSense_CSD.c **** /*******************************************************************************
 249:.\Generated_Source\PSoC4/CapSense_CSD.c **** * Function Name: CapSense_CSD_CsdHwBlockInit
 250:.\Generated_Source\PSoC4/CapSense_CSD.c **** ********************************************************************************
 251:.\Generated_Source\PSoC4/CapSense_CSD.c **** *
 252:.\Generated_Source\PSoC4/CapSense_CSD.c **** * Summary:
 253:.\Generated_Source\PSoC4/CapSense_CSD.c **** *  Initialises the hardware parameters of the CSD block 
 254:.\Generated_Source\PSoC4/CapSense_CSD.c **** *
 255:.\Generated_Source\PSoC4/CapSense_CSD.c **** * Parameters:
 256:.\Generated_Source\PSoC4/CapSense_CSD.c **** *  None
 257:.\Generated_Source\PSoC4/CapSense_CSD.c **** *
 258:.\Generated_Source\PSoC4/CapSense_CSD.c **** * Return:
 259:.\Generated_Source\PSoC4/CapSense_CSD.c **** *  None
 260:.\Generated_Source\PSoC4/CapSense_CSD.c **** *
 261:.\Generated_Source\PSoC4/CapSense_CSD.c **** * Global Variables:
 262:.\Generated_Source\PSoC4/CapSense_CSD.c **** *  CapSense_CSD_csdTrim1 - Contains IDAC trim register value for Sourcing Mode.
 263:.\Generated_Source\PSoC4/CapSense_CSD.c **** *  CapSense_CSD_csdTrim2 - Contains IDAC trim register value for Sinking Mode.
 264:.\Generated_Source\PSoC4/CapSense_CSD.c **** *
 265:.\Generated_Source\PSoC4/CapSense_CSD.c **** * Side Effects:
 266:.\Generated_Source\PSoC4/CapSense_CSD.c **** *  None
 267:.\Generated_Source\PSoC4/CapSense_CSD.c **** * 
ARM GAS  C:\Users\gsgill\AppData\Local\Temp\cc60Ptud.s 			page 10


 268:.\Generated_Source\PSoC4/CapSense_CSD.c **** *******************************************************************************/
 269:.\Generated_Source\PSoC4/CapSense_CSD.c **** void CapSense_CSD_CsdHwBlockInit(void)
 270:.\Generated_Source\PSoC4/CapSense_CSD.c **** {
 239              		.loc 1 270 0
 240              		.cfi_startproc
 241 0000 80B5     		push	{r7, lr}
 242              		.cfi_def_cfa_offset 8
 243              		.cfi_offset 7, -8
 244              		.cfi_offset 14, -4
 245 0002 82B0     		sub	sp, sp, #8
 246              		.cfi_def_cfa_offset 16
 247 0004 00AF     		add	r7, sp, #0
 248              		.cfi_def_cfa_register 7
 271:.\Generated_Source\PSoC4/CapSense_CSD.c **** 	uint32 newRegValue;
 272:.\Generated_Source\PSoC4/CapSense_CSD.c **** 	
 273:.\Generated_Source\PSoC4/CapSense_CSD.c **** 	    /* Set trim registers for CSD Mode */
 274:.\Generated_Source\PSoC4/CapSense_CSD.c ****     #if (CapSense_CSD_IDAC1_POLARITY == CapSense_CSD__IDAC_SINK)
 275:.\Generated_Source\PSoC4/CapSense_CSD.c **** 		/* iDAC1 Sinking Mode */ 
 276:.\Generated_Source\PSoC4/CapSense_CSD.c **** 		CapSense_CSD_csdTrim2 = (uint8)CapSense_CSD_CSD_TRIM2_REG;
 277:.\Generated_Source\PSoC4/CapSense_CSD.c **** 		newRegValue = CapSense_CSD_csdTrim2;
 278:.\Generated_Source\PSoC4/CapSense_CSD.c **** 		newRegValue &= CapSense_CSD_CSD_IDAC1_TRIM_MASK;
 279:.\Generated_Source\PSoC4/CapSense_CSD.c **** 		newRegValue |= (uint32)((uint32)CapSense_CSD_SFLASH_CSD_TRIM2_REG & (uint32)CapSense_CSD_CSFLASH_
 280:.\Generated_Source\PSoC4/CapSense_CSD.c **** 		
 281:.\Generated_Source\PSoC4/CapSense_CSD.c **** 		#if (CapSense_CSD_IDAC_CNT == 2u)
 282:.\Generated_Source\PSoC4/CapSense_CSD.c **** 		    /* iDAC2 Sinking Mode */ 
 283:.\Generated_Source\PSoC4/CapSense_CSD.c **** 			newRegValue &= CapSense_CSD_CSD_IDAC2_TRIM_MASK;
 284:.\Generated_Source\PSoC4/CapSense_CSD.c **** 			newRegValue |= (uint32)((uint32)CapSense_CSD_SFLASH_CSD_TRIM2_REG & (uint32)CapSense_CSD_CSFLASH
 285:.\Generated_Source\PSoC4/CapSense_CSD.c **** 		#endif /* (CapSense_CSD_IDAC_CNT == 2u) */
 286:.\Generated_Source\PSoC4/CapSense_CSD.c **** 		CapSense_CSD_CSD_TRIM2_REG = newRegValue;
 287:.\Generated_Source\PSoC4/CapSense_CSD.c ****     #else   
 288:.\Generated_Source\PSoC4/CapSense_CSD.c **** 		/* iDAC1 Sourcing Mode */ 
 289:.\Generated_Source\PSoC4/CapSense_CSD.c **** 		CapSense_CSD_csdTrim1 = (uint8)CapSense_CSD_CSD_TRIM1_REG;
 249              		.loc 1 289 0
 250 0006 244B     		ldr	r3, .L7
 251 0008 1B68     		ldr	r3, [r3]
 252 000a DAB2     		uxtb	r2, r3
 253 000c 234B     		ldr	r3, .L7+4
 254 000e 1A70     		strb	r2, [r3]
 290:.\Generated_Source\PSoC4/CapSense_CSD.c **** 		newRegValue = CapSense_CSD_csdTrim1;
 255              		.loc 1 290 0
 256 0010 224B     		ldr	r3, .L7+4
 257 0012 1B78     		ldrb	r3, [r3]
 258 0014 7B60     		str	r3, [r7, #4]
 291:.\Generated_Source\PSoC4/CapSense_CSD.c **** 		newRegValue &= CapSense_CSD_CSD_IDAC1_TRIM_MASK;
 259              		.loc 1 291 0
 260 0016 7B68     		ldr	r3, [r7, #4]
 261 0018 0F22     		mov	r2, #15
 262 001a 9343     		bic	r3, r2
 263 001c 7B60     		str	r3, [r7, #4]
 292:.\Generated_Source\PSoC4/CapSense_CSD.c **** 		newRegValue |= (uint32)((uint32)CapSense_CSD_SFLASH_CSD_TRIM1_REG & (uint32)CapSense_CSD_CSFLASH_
 264              		.loc 1 292 0
 265 001e 204B     		ldr	r3, .L7+8
 266 0020 1B78     		ldrb	r3, [r3]
 267 0022 DBB2     		uxtb	r3, r3
 268 0024 1A1C     		mov	r2, r3
 269 0026 0F23     		mov	r3, #15
 270 0028 1340     		and	r3, r2
ARM GAS  C:\Users\gsgill\AppData\Local\Temp\cc60Ptud.s 			page 11


 271 002a 7A68     		ldr	r2, [r7, #4]
 272 002c 1343     		orr	r3, r2
 273 002e 7B60     		str	r3, [r7, #4]
 293:.\Generated_Source\PSoC4/CapSense_CSD.c **** 		#if (CapSense_CSD_IDAC_CNT == 2u)
 294:.\Generated_Source\PSoC4/CapSense_CSD.c **** 		     /* iDAC2 Sourcing Mode */ 
 295:.\Generated_Source\PSoC4/CapSense_CSD.c **** 			newRegValue &= CapSense_CSD_CSD_IDAC2_TRIM_MASK;
 274              		.loc 1 295 0
 275 0030 7B68     		ldr	r3, [r7, #4]
 276 0032 F022     		mov	r2, #240
 277 0034 9343     		bic	r3, r2
 278 0036 7B60     		str	r3, [r7, #4]
 296:.\Generated_Source\PSoC4/CapSense_CSD.c **** 			newRegValue |= (uint32)((uint32)CapSense_CSD_SFLASH_CSD_TRIM1_REG & (uint32)CapSense_CSD_CSFLASH
 279              		.loc 1 296 0
 280 0038 194B     		ldr	r3, .L7+8
 281 003a 1B78     		ldrb	r3, [r3]
 282 003c DBB2     		uxtb	r3, r3
 283 003e 1A1C     		mov	r2, r3
 284 0040 F023     		mov	r3, #240
 285 0042 1340     		and	r3, r2
 286 0044 7A68     		ldr	r2, [r7, #4]
 287 0046 1343     		orr	r3, r2
 288 0048 7B60     		str	r3, [r7, #4]
 297:.\Generated_Source\PSoC4/CapSense_CSD.c **** 		#endif		
 298:.\Generated_Source\PSoC4/CapSense_CSD.c **** 		CapSense_CSD_CSD_TRIM1_REG = newRegValue;
 289              		.loc 1 298 0
 290 004a 134B     		ldr	r3, .L7
 291 004c 7A68     		ldr	r2, [r7, #4]
 292 004e 1A60     		str	r2, [r3]
 299:.\Generated_Source\PSoC4/CapSense_CSD.c ****     #endif /* (CapSense_CSD_IDAC1_POLARITY == CapSense_CSD__IDAC_SINK) */
 300:.\Generated_Source\PSoC4/CapSense_CSD.c **** 	
 301:.\Generated_Source\PSoC4/CapSense_CSD.c **** 	/* Configure CSD and IDAC */
 302:.\Generated_Source\PSoC4/CapSense_CSD.c **** 	#if (CapSense_CSD_IDAC_CNT > 1u)
 303:.\Generated_Source\PSoC4/CapSense_CSD.c **** 		CapSense_CSD_CSD_IDAC_REG = CapSense_CSD_DEFAULT_CSD_IDAC_CONFIG;
 293              		.loc 1 303 0
 294 0050 144B     		ldr	r3, .L7+12
 295 0052 154A     		ldr	r2, .L7+16
 296 0054 1A60     		str	r2, [r3]
 304:.\Generated_Source\PSoC4/CapSense_CSD.c **** 		CapSense_CSD_CSD_CFG_REG = CapSense_CSD_DEFAULT_CSD_CONFIG;
 297              		.loc 1 304 0
 298 0056 154B     		ldr	r3, .L7+20
 299 0058 154A     		ldr	r2, .L7+24
 300 005a 1A60     		str	r2, [r3]
 305:.\Generated_Source\PSoC4/CapSense_CSD.c **** 	#else
 306:.\Generated_Source\PSoC4/CapSense_CSD.c **** 		CapSense_CSD_CSD_IDAC_REG &= ~(CapSense_CSD_CSD_IDAC1_MODE_MASK  | CapSense_CSD_CSD_IDAC1_DATA_MA
 307:.\Generated_Source\PSoC4/CapSense_CSD.c **** 		CapSense_CSD_CSD_IDAC_REG |= CapSense_CSD_DEFAULT_CSD_IDAC_CONFIG;
 308:.\Generated_Source\PSoC4/CapSense_CSD.c **** 		
 309:.\Generated_Source\PSoC4/CapSense_CSD.c **** 		CapSense_CSD_CSD_CFG_REG &= ~(CapSense_CSD_CSD_CONFIG_MASK);
 310:.\Generated_Source\PSoC4/CapSense_CSD.c **** 		CapSense_CSD_CSD_CFG_REG |= (CapSense_CSD_DEFAULT_CSD_CONFIG);
 311:.\Generated_Source\PSoC4/CapSense_CSD.c **** 	#endif /* (CapSense_CSD_IDAC_CNT > 1u) */
 312:.\Generated_Source\PSoC4/CapSense_CSD.c **** 	
 313:.\Generated_Source\PSoC4/CapSense_CSD.c **** 	
 314:.\Generated_Source\PSoC4/CapSense_CSD.c **** 	/* Connect Cmod to AMUX bus */ 
 315:.\Generated_Source\PSoC4/CapSense_CSD.c **** 	newRegValue = CapSense_CSD_CMOD_CONNECTION_REG; 
 301              		.loc 1 315 0
 302 005c 154B     		ldr	r3, .L7+28
 303 005e 1B68     		ldr	r3, [r3]
 304 0060 7B60     		str	r3, [r7, #4]
ARM GAS  C:\Users\gsgill\AppData\Local\Temp\cc60Ptud.s 			page 12


 316:.\Generated_Source\PSoC4/CapSense_CSD.c ****     newRegValue &= ~(CapSense_CSD_CSD_CMOD_CONNECTION_MASK);
 305              		.loc 1 316 0
 306 0062 7A68     		ldr	r2, [r7, #4]
 307 0064 144B     		ldr	r3, .L7+32
 308 0066 1340     		and	r3, r2
 309 0068 7B60     		str	r3, [r7, #4]
 317:.\Generated_Source\PSoC4/CapSense_CSD.c ****     newRegValue |= CapSense_CSD_CSD_CMOD_TO_AMUXBUS_A;
 310              		.loc 1 317 0
 311 006a 7B68     		ldr	r3, [r7, #4]
 312 006c C022     		mov	r2, #192
 313 006e D200     		lsl	r2, r2, #3
 314 0070 1343     		orr	r3, r2
 315 0072 7B60     		str	r3, [r7, #4]
 318:.\Generated_Source\PSoC4/CapSense_CSD.c ****     CapSense_CSD_CMOD_CONNECTION_REG = newRegValue;
 316              		.loc 1 318 0
 317 0074 0F4B     		ldr	r3, .L7+28
 318 0076 7A68     		ldr	r2, [r7, #4]
 319 0078 1A60     		str	r2, [r3]
 319:.\Generated_Source\PSoC4/CapSense_CSD.c **** 	
 320:.\Generated_Source\PSoC4/CapSense_CSD.c **** 	/* Configure Dead Band PWM if it is enabled */
 321:.\Generated_Source\PSoC4/CapSense_CSD.c **** 	#if(CapSense_CSD_CSD_4B_PWM_MODE != CapSense_CSD__PWM_OFF)
 322:.\Generated_Source\PSoC4/CapSense_CSD.c **** 		CapSense_CSD_CSD_4B_PWM_REG = CapSense_CSD_DEFAULT_CSD_4B_PWM_CONFIG;
 323:.\Generated_Source\PSoC4/CapSense_CSD.c **** 	#endif /* (CapSense_CSD_CSD_4B_PWM_MODE != CapSense_CSD__PWM_OFF) */
 324:.\Generated_Source\PSoC4/CapSense_CSD.c **** 
 325:.\Generated_Source\PSoC4/CapSense_CSD.c **** 	/* Setup ISR */
 326:.\Generated_Source\PSoC4/CapSense_CSD.c **** 	CyIntDisable(CapSense_CSD_ISR_NUMBER);
 320              		.loc 1 326 0
 321 007a 0F20     		mov	r0, #15
 322 007c FFF7FEFF 		bl	CyIntDisable
 327:.\Generated_Source\PSoC4/CapSense_CSD.c **** 	#if !defined(CY_EXTERNAL_INTERRUPT_CONFIG)		
 328:.\Generated_Source\PSoC4/CapSense_CSD.c **** 	    (void)CyIntSetVector(CapSense_CSD_ISR_NUMBER, &CapSense_CSD_ISR);
 323              		.loc 1 328 0
 324 0080 0E4B     		ldr	r3, .L7+36
 325 0082 0F20     		mov	r0, #15
 326 0084 191C     		mov	r1, r3
 327 0086 FFF7FEFF 		bl	CyIntSetVector
 329:.\Generated_Source\PSoC4/CapSense_CSD.c **** 	    CyIntSetPriority(CapSense_CSD_ISR_NUMBER, CapSense_CSD_ISR_PRIORITY);
 328              		.loc 1 329 0
 329 008a 0F20     		mov	r0, #15
 330 008c 0321     		mov	r1, #3
 331 008e FFF7FEFF 		bl	CyIntSetPriority
 330:.\Generated_Source\PSoC4/CapSense_CSD.c **** 	#endif /* (CY_EXTERNAL_INTERRUPT_CONFIG) */
 331:.\Generated_Source\PSoC4/CapSense_CSD.c **** }
 332              		.loc 1 331 0
 333 0092 BD46     		mov	sp, r7
 334 0094 02B0     		add	sp, sp, #8
 335              		@ sp needed
 336 0096 80BD     		pop	{r7, pc}
 337              	.L8:
 338              		.align	2
 339              	.L7:
 340 0098 00FF0840 		.word	1074331392
 341 009c 00000000 		.word	CapSense_CSD_csdTrim1
 342 00a0 62F1FF0F 		.word	268431714
 343 00a4 08000840 		.word	1074266120
 344 00a8 00020001 		.word	16777728
 345 00ac 04000840 		.word	1074266116
ARM GAS  C:\Users\gsgill\AppData\Local\Temp\cc60Ptud.s 			page 13


 346 00b0 C008A001 		.word	27265216
 347 00b4 10000140 		.word	1073807376
 348 00b8 FFF0FFFF 		.word	-3841
 349 00bc 00000000 		.word	CapSense_CSD_ISR
 350              		.cfi_endproc
 351              	.LFE34:
 352              		.size	CapSense_CSD_CsdHwBlockInit, .-CapSense_CSD_CsdHwBlockInit
 353              		.section	.text.CapSense_CSD_Enable,"ax",%progbits
 354              		.align	2
 355              		.global	CapSense_CSD_Enable
 356              		.code	16
 357              		.thumb_func
 358              		.type	CapSense_CSD_Enable, %function
 359              	CapSense_CSD_Enable:
 360              	.LFB35:
 332:.\Generated_Source\PSoC4/CapSense_CSD.c **** 
 333:.\Generated_Source\PSoC4/CapSense_CSD.c **** 
 334:.\Generated_Source\PSoC4/CapSense_CSD.c **** /*******************************************************************************
 335:.\Generated_Source\PSoC4/CapSense_CSD.c **** * Function Name: CapSense_CSD_Enable
 336:.\Generated_Source\PSoC4/CapSense_CSD.c **** ********************************************************************************
 337:.\Generated_Source\PSoC4/CapSense_CSD.c **** *
 338:.\Generated_Source\PSoC4/CapSense_CSD.c **** * Summary:
 339:.\Generated_Source\PSoC4/CapSense_CSD.c **** *  Enables the CSD block and related resources to an active mode.
 340:.\Generated_Source\PSoC4/CapSense_CSD.c **** *
 341:.\Generated_Source\PSoC4/CapSense_CSD.c **** * Parameters:
 342:.\Generated_Source\PSoC4/CapSense_CSD.c **** *  None
 343:.\Generated_Source\PSoC4/CapSense_CSD.c **** *
 344:.\Generated_Source\PSoC4/CapSense_CSD.c **** * Return:
 345:.\Generated_Source\PSoC4/CapSense_CSD.c **** *  None
 346:.\Generated_Source\PSoC4/CapSense_CSD.c **** *
 347:.\Generated_Source\PSoC4/CapSense_CSD.c **** * Global Variables:
 348:.\Generated_Source\PSoC4/CapSense_CSD.c **** *  None.
 349:.\Generated_Source\PSoC4/CapSense_CSD.c **** *
 350:.\Generated_Source\PSoC4/CapSense_CSD.c **** * Side Effects:
 351:.\Generated_Source\PSoC4/CapSense_CSD.c **** *  None
 352:.\Generated_Source\PSoC4/CapSense_CSD.c **** * 
 353:.\Generated_Source\PSoC4/CapSense_CSD.c **** *******************************************************************************/
 354:.\Generated_Source\PSoC4/CapSense_CSD.c **** void CapSense_CSD_Enable(void)
 355:.\Generated_Source\PSoC4/CapSense_CSD.c **** {
 361              		.loc 1 355 0
 362              		.cfi_startproc
 363 0000 80B5     		push	{r7, lr}
 364              		.cfi_def_cfa_offset 8
 365              		.cfi_offset 7, -8
 366              		.cfi_offset 14, -4
 367 0002 82B0     		sub	sp, sp, #8
 368              		.cfi_def_cfa_offset 16
 369 0004 00AF     		add	r7, sp, #0
 370              		.cfi_def_cfa_register 7
 356:.\Generated_Source\PSoC4/CapSense_CSD.c ****     uint32 newRegValue;
 357:.\Generated_Source\PSoC4/CapSense_CSD.c ****     
 358:.\Generated_Source\PSoC4/CapSense_CSD.c ****     /* Enable Clocks */
 359:.\Generated_Source\PSoC4/CapSense_CSD.c **** 	CapSense_CSD_SenseClk_Stop();
 371              		.loc 1 359 0
 372 0006 FFF7FEFF 		bl	CapSense_CSD_SenseClk_Stop
 360:.\Generated_Source\PSoC4/CapSense_CSD.c **** 	CapSense_CSD_SampleClk_Stop();
 373              		.loc 1 360 0
ARM GAS  C:\Users\gsgill\AppData\Local\Temp\cc60Ptud.s 			page 14


 374 000a FFF7FEFF 		bl	CapSense_CSD_SampleClk_Stop
 361:.\Generated_Source\PSoC4/CapSense_CSD.c **** 	
 362:.\Generated_Source\PSoC4/CapSense_CSD.c **** 	CapSense_CSD_SampleClk_SetDividerValue((uint16)CapSense_CSD_INITIAL_CLK_DIVIDER);
 375              		.loc 1 362 0
 376 000e 0020     		mov	r0, #0
 377 0010 0021     		mov	r1, #0
 378 0012 FFF7FEFF 		bl	CapSense_CSD_SampleClk_SetFractionalDividerRegister
 363:.\Generated_Source\PSoC4/CapSense_CSD.c **** 	CapSense_CSD_SenseClk_SetDividerValue((uint16)CapSense_CSD_INITIAL_CLK_DIVIDER);
 379              		.loc 1 363 0
 380 0016 0020     		mov	r0, #0
 381 0018 0021     		mov	r1, #0
 382 001a FFF7FEFF 		bl	CapSense_CSD_SenseClk_SetFractionalDividerRegister
 364:.\Generated_Source\PSoC4/CapSense_CSD.c **** 	
 365:.\Generated_Source\PSoC4/CapSense_CSD.c **** 	#if (0u == CapSense_CSD_IS_M0S8PERI_BLOCK)
 366:.\Generated_Source\PSoC4/CapSense_CSD.c **** 		CapSense_CSD_SenseClk_Start();
 383              		.loc 1 366 0
 384 001e FFF7FEFF 		bl	CapSense_CSD_SenseClk_Start
 367:.\Generated_Source\PSoC4/CapSense_CSD.c **** 		CapSense_CSD_SampleClk_Start();
 385              		.loc 1 367 0
 386 0022 FFF7FEFF 		bl	CapSense_CSD_SampleClk_Start
 368:.\Generated_Source\PSoC4/CapSense_CSD.c **** 	#else
 369:.\Generated_Source\PSoC4/CapSense_CSD.c **** 		CapSense_CSD_SampleClk_Start();
 370:.\Generated_Source\PSoC4/CapSense_CSD.c **** 		CapSense_CSD_SenseClk_StartEx(CapSense_CSD_SampleClk__DIV_ID);
 371:.\Generated_Source\PSoC4/CapSense_CSD.c **** 	#endif /* (0u == CapSense_CSD_IS_M0S8PERI_BLOCK) */
 372:.\Generated_Source\PSoC4/CapSense_CSD.c **** 	
 373:.\Generated_Source\PSoC4/CapSense_CSD.c **** 	/* Enable the CSD block */
 374:.\Generated_Source\PSoC4/CapSense_CSD.c ****     newRegValue = CapSense_CSD_CSD_CFG_REG;
 387              		.loc 1 374 0
 388 0026 084B     		ldr	r3, .L10
 389 0028 1B68     		ldr	r3, [r3]
 390 002a 7B60     		str	r3, [r7, #4]
 375:.\Generated_Source\PSoC4/CapSense_CSD.c ****     newRegValue |= (CapSense_CSD_CSD_CFG_ENABLE | CapSense_CSD_CSD_CFG_SENSE_COMP_EN 
 391              		.loc 1 375 0
 392 002c 7B68     		ldr	r3, [r7, #4]
 393 002e 074A     		ldr	r2, .L10+4
 394 0030 1343     		orr	r3, r2
 395 0032 7B60     		str	r3, [r7, #4]
 376:.\Generated_Source\PSoC4/CapSense_CSD.c ****                                                    | CapSense_CSD_CSD_CFG_SENSE_EN);    
 377:.\Generated_Source\PSoC4/CapSense_CSD.c ****     CapSense_CSD_CSD_CFG_REG = newRegValue;
 396              		.loc 1 377 0
 397 0034 044B     		ldr	r3, .L10
 398 0036 7A68     		ldr	r2, [r7, #4]
 399 0038 1A60     		str	r2, [r3]
 378:.\Generated_Source\PSoC4/CapSense_CSD.c **** 
 379:.\Generated_Source\PSoC4/CapSense_CSD.c ****     /* Enable interrupt */
 380:.\Generated_Source\PSoC4/CapSense_CSD.c ****     CyIntEnable(CapSense_CSD_ISR_NUMBER);
 400              		.loc 1 380 0
 401 003a 0F20     		mov	r0, #15
 402 003c FFF7FEFF 		bl	CyIntEnable
 381:.\Generated_Source\PSoC4/CapSense_CSD.c **** }
 403              		.loc 1 381 0
 404 0040 BD46     		mov	sp, r7
 405 0042 02B0     		add	sp, sp, #8
 406              		@ sp needed
 407 0044 80BD     		pop	{r7, pc}
 408              	.L11:
 409 0046 C046     		.align	2
ARM GAS  C:\Users\gsgill\AppData\Local\Temp\cc60Ptud.s 			page 15


 410              	.L10:
 411 0048 04000840 		.word	1074266116
 412 004c 00100880 		.word	-2146955264
 413              		.cfi_endproc
 414              	.LFE35:
 415              		.size	CapSense_CSD_Enable, .-CapSense_CSD_Enable
 416              		.section	.text.CapSense_CSD_Start,"ax",%progbits
 417              		.align	2
 418              		.global	CapSense_CSD_Start
 419              		.code	16
 420              		.thumb_func
 421              		.type	CapSense_CSD_Start, %function
 422              	CapSense_CSD_Start:
 423              	.LFB36:
 382:.\Generated_Source\PSoC4/CapSense_CSD.c **** 
 383:.\Generated_Source\PSoC4/CapSense_CSD.c **** 
 384:.\Generated_Source\PSoC4/CapSense_CSD.c **** /*******************************************************************************
 385:.\Generated_Source\PSoC4/CapSense_CSD.c **** * Function Name: CapSense_CSD_Start
 386:.\Generated_Source\PSoC4/CapSense_CSD.c **** ********************************************************************************
 387:.\Generated_Source\PSoC4/CapSense_CSD.c **** *
 388:.\Generated_Source\PSoC4/CapSense_CSD.c **** * Summary:
 389:.\Generated_Source\PSoC4/CapSense_CSD.c **** *  This is the preferred method to begin the component operation. CapSense_Start() 
 390:.\Generated_Source\PSoC4/CapSense_CSD.c **** *  calls the CapSense_Init() function, and then calls the CapSense_Enable() 
 391:.\Generated_Source\PSoC4/CapSense_CSD.c **** *  function. Initializes the registers and starts the CSD method of the CapSense 
 392:.\Generated_Source\PSoC4/CapSense_CSD.c **** *  component. Resets all the sensors to an inactive state. Enables interrupts for 
 393:.\Generated_Source\PSoC4/CapSense_CSD.c **** *  sensors scanning. When the SmartSense tuning mode is selected, the tuning procedure
 394:.\Generated_Source\PSoC4/CapSense_CSD.c **** *  is applied for all the sensors. The CapSense_Start() routine must be called before 
 395:.\Generated_Source\PSoC4/CapSense_CSD.c **** *  any other API routines.
 396:.\Generated_Source\PSoC4/CapSense_CSD.c **** *
 397:.\Generated_Source\PSoC4/CapSense_CSD.c **** * Parameters:
 398:.\Generated_Source\PSoC4/CapSense_CSD.c **** *  None
 399:.\Generated_Source\PSoC4/CapSense_CSD.c **** *
 400:.\Generated_Source\PSoC4/CapSense_CSD.c **** * Return:
 401:.\Generated_Source\PSoC4/CapSense_CSD.c **** *  None
 402:.\Generated_Source\PSoC4/CapSense_CSD.c **** *
 403:.\Generated_Source\PSoC4/CapSense_CSD.c **** * Global Variables:
 404:.\Generated_Source\PSoC4/CapSense_CSD.c **** *   CapSense_CSD_initVar - used to check the initial configuration, 
 405:.\Generated_Source\PSoC4/CapSense_CSD.c **** *   modified on the first function call.
 406:.\Generated_Source\PSoC4/CapSense_CSD.c **** *  CapSense_CSD_lowLevelTuningDone - Used to notify the Tuner GUI that 
 407:.\Generated_Source\PSoC4/CapSense_CSD.c **** *   tuning of the scanning parameters is done. 
 408:.\Generated_Source\PSoC4/CapSense_CSD.c **** *
 409:.\Generated_Source\PSoC4/CapSense_CSD.c **** * Side Effects:
 410:.\Generated_Source\PSoC4/CapSense_CSD.c **** *  None
 411:.\Generated_Source\PSoC4/CapSense_CSD.c **** * 
 412:.\Generated_Source\PSoC4/CapSense_CSD.c **** *******************************************************************************/
 413:.\Generated_Source\PSoC4/CapSense_CSD.c **** void CapSense_CSD_Start(void)
 414:.\Generated_Source\PSoC4/CapSense_CSD.c **** {
 424              		.loc 1 414 0
 425              		.cfi_startproc
 426 0000 80B5     		push	{r7, lr}
 427              		.cfi_def_cfa_offset 8
 428              		.cfi_offset 7, -8
 429              		.cfi_offset 14, -4
 430 0002 00AF     		add	r7, sp, #0
 431              		.cfi_def_cfa_register 7
 415:.\Generated_Source\PSoC4/CapSense_CSD.c **** 
 416:.\Generated_Source\PSoC4/CapSense_CSD.c **** 	static uint8 CapSense_CSD_initVar = 0u;
ARM GAS  C:\Users\gsgill\AppData\Local\Temp\cc60Ptud.s 			page 16


 417:.\Generated_Source\PSoC4/CapSense_CSD.c **** 
 418:.\Generated_Source\PSoC4/CapSense_CSD.c **** 	#if((0u != CapSense_CSD_AUTOCALIBRATION_ENABLE) && (CapSense_CSD_TUNING_METHOD != CapSense_CSD__TU
 419:.\Generated_Source\PSoC4/CapSense_CSD.c **** 		uint32 curSensor;
 420:.\Generated_Source\PSoC4/CapSense_CSD.c **** 		uint32 rawLevel;
 421:.\Generated_Source\PSoC4/CapSense_CSD.c **** 		uint32 widget;
 422:.\Generated_Source\PSoC4/CapSense_CSD.c ****     #endif /* ((0u != CapSense_CSD_AUTOCALIBRATION_ENABLE) && (CapSense_CSD_TUNING_METHOD != CapSen
 423:.\Generated_Source\PSoC4/CapSense_CSD.c **** 	
 424:.\Generated_Source\PSoC4/CapSense_CSD.c ****     if (CapSense_CSD_initVar == 0u)
 432              		.loc 1 424 0
 433 0004 0C4B     		ldr	r3, .L14
 434 0006 1B78     		ldrb	r3, [r3]
 435 0008 002B     		cmp	r3, #0
 436 000a 04D1     		bne	.L13
 425:.\Generated_Source\PSoC4/CapSense_CSD.c ****     {
 426:.\Generated_Source\PSoC4/CapSense_CSD.c ****         CapSense_CSD_Init();
 437              		.loc 1 426 0
 438 000c FFF7FEFF 		bl	CapSense_CSD_Init
 427:.\Generated_Source\PSoC4/CapSense_CSD.c ****         CapSense_CSD_initVar = 1u;
 439              		.loc 1 427 0
 440 0010 094B     		ldr	r3, .L14
 441 0012 0122     		mov	r2, #1
 442 0014 1A70     		strb	r2, [r3]
 443              	.L13:
 428:.\Generated_Source\PSoC4/CapSense_CSD.c ****     }
 429:.\Generated_Source\PSoC4/CapSense_CSD.c ****     CapSense_CSD_Enable();
 444              		.loc 1 429 0
 445 0016 FFF7FEFF 		bl	CapSense_CSD_Enable
 430:.\Generated_Source\PSoC4/CapSense_CSD.c **** 	
 431:.\Generated_Source\PSoC4/CapSense_CSD.c ****     /* AutoTunning start */
 432:.\Generated_Source\PSoC4/CapSense_CSD.c ****     #if(CapSense_CSD_TUNING_METHOD == CapSense_CSD__TUNING_AUTO)
 433:.\Generated_Source\PSoC4/CapSense_CSD.c **** 		#if(0u != CapSense_CSD_CSHL_API_GENERATE)
 434:.\Generated_Source\PSoC4/CapSense_CSD.c **** 	        CapSense_CSD_AutoTune();
 446              		.loc 1 434 0
 447 001a FFF7FEFF 		bl	CapSense_CSD_AutoTune
 435:.\Generated_Source\PSoC4/CapSense_CSD.c **** 	        CapSense_CSD_lowLevelTuningDone = 1u;
 448              		.loc 1 435 0
 449 001e 074B     		ldr	r3, .L14+4
 450 0020 0122     		mov	r2, #1
 451 0022 1A70     		strb	r2, [r3]
 436:.\Generated_Source\PSoC4/CapSense_CSD.c **** 		#endif /* (0u != CapSense_CSD_CSHL_API_GENERATE) */
 437:.\Generated_Source\PSoC4/CapSense_CSD.c **** 	#else
 438:.\Generated_Source\PSoC4/CapSense_CSD.c **** 		#if(0u != CapSense_CSD_AUTOCALIBRATION_ENABLE)
 439:.\Generated_Source\PSoC4/CapSense_CSD.c **** 			
 440:.\Generated_Source\PSoC4/CapSense_CSD.c **** 			#if(CapSense_CSD_IDAC_CNT > 1u)
 441:.\Generated_Source\PSoC4/CapSense_CSD.c **** 				CapSense_CSD_CSD_IDAC_REG &= ~(CapSense_CSD_CSD_IDAC2_MODE_MASK);	
 442:.\Generated_Source\PSoC4/CapSense_CSD.c **** 			#endif /* (CapSense_CSD_IDAC_CNT > 1u) */
 443:.\Generated_Source\PSoC4/CapSense_CSD.c **** 			
 444:.\Generated_Source\PSoC4/CapSense_CSD.c **** 			for(curSensor = 0u; curSensor < CapSense_CSD_TOTAL_SCANSLOT_COUNT; curSensor++)
 445:.\Generated_Source\PSoC4/CapSense_CSD.c **** 			{
 446:.\Generated_Source\PSoC4/CapSense_CSD.c **** 				widget = CapSense_CSD_widgetNumber[curSensor];
 447:.\Generated_Source\PSoC4/CapSense_CSD.c **** 				rawLevel = CapSense_CSD_widgetResolution[widget] >> CapSense_CSD_RESOLUTION_OFFSET;
 448:.\Generated_Source\PSoC4/CapSense_CSD.c **** 				
 449:.\Generated_Source\PSoC4/CapSense_CSD.c **** 				/* Calibration level should be equal to 85% from scanning resolution */
 450:.\Generated_Source\PSoC4/CapSense_CSD.c **** 				rawLevel = (rawLevel * 85u) / 100u;
 451:.\Generated_Source\PSoC4/CapSense_CSD.c **** 				
 452:.\Generated_Source\PSoC4/CapSense_CSD.c **** 				CapSense_CSD_CalibrateSensor(curSensor, rawLevel, CapSense_CSD_modulationIDAC);
 453:.\Generated_Source\PSoC4/CapSense_CSD.c **** 			}
ARM GAS  C:\Users\gsgill\AppData\Local\Temp\cc60Ptud.s 			page 17


 454:.\Generated_Source\PSoC4/CapSense_CSD.c **** 
 455:.\Generated_Source\PSoC4/CapSense_CSD.c **** 			#if(0u != CapSense_CSD_TOTAL_CENTROIDS_COUNT) 
 456:.\Generated_Source\PSoC4/CapSense_CSD.c **** 				CapSense_CSD_NormalizeWidgets(CapSense_CSD_END_OF_WIDGETS_INDEX, CapSense_CSD_modulationIDAC);
 457:.\Generated_Source\PSoC4/CapSense_CSD.c **** 			#endif /* (0u != CapSense_CSD_TOTAL_CENTROIDS_COUNT)  */
 458:.\Generated_Source\PSoC4/CapSense_CSD.c **** 
 459:.\Generated_Source\PSoC4/CapSense_CSD.c **** 			#if(CapSense_CSD_IDAC_CNT > 1u)
 460:.\Generated_Source\PSoC4/CapSense_CSD.c **** 				for(curSensor = 0u; curSensor < CapSense_CSD_TOTAL_SCANSLOT_COUNT; curSensor++)
 461:.\Generated_Source\PSoC4/CapSense_CSD.c **** 			    {
 462:.\Generated_Source\PSoC4/CapSense_CSD.c **** 					CapSense_CSD_compensationIDAC[curSensor] = CapSense_CSD_modulationIDAC[curSensor] / 2u;
 463:.\Generated_Source\PSoC4/CapSense_CSD.c **** 					CapSense_CSD_modulationIDAC[curSensor] = (CapSense_CSD_modulationIDAC[curSensor] + 1u) / 2u;
 464:.\Generated_Source\PSoC4/CapSense_CSD.c **** 			    }
 465:.\Generated_Source\PSoC4/CapSense_CSD.c **** 				CapSense_CSD_CSD_IDAC_REG |= CapSense_CSD_CSD_IDAC2_MODE_FIXED;
 466:.\Generated_Source\PSoC4/CapSense_CSD.c **** 			#endif /* (CapSense_CSD_IDAC_CNT > 1u) */
 467:.\Generated_Source\PSoC4/CapSense_CSD.c **** 			
 468:.\Generated_Source\PSoC4/CapSense_CSD.c ****         #endif /* (0u != CapSense_CSD_AUTOCALIBRATION_ENABLE) */ 
 469:.\Generated_Source\PSoC4/CapSense_CSD.c **** 					
 470:.\Generated_Source\PSoC4/CapSense_CSD.c ****     #endif /* ((CapSense_CSD_TUNING_METHOD == CapSense_CSD__TUNING_AUTO) */	
 471:.\Generated_Source\PSoC4/CapSense_CSD.c **** 	
 472:.\Generated_Source\PSoC4/CapSense_CSD.c **** 	/* Initialize Advanced Centroid */
 473:.\Generated_Source\PSoC4/CapSense_CSD.c **** 	#if(CapSense_CSD_TOTAL_TRACKPAD_GESTURES_COUNT > 0u)
 474:.\Generated_Source\PSoC4/CapSense_CSD.c **** 		CapSense_CSD_AdvancedCentroidInit();
 475:.\Generated_Source\PSoC4/CapSense_CSD.c **** 	#endif /* (CapSense_CSD_TOTAL_TRACKPAD_GESTURES_COUNT > 0u) */
 476:.\Generated_Source\PSoC4/CapSense_CSD.c **** 	
 477:.\Generated_Source\PSoC4/CapSense_CSD.c **** 	/* Connect sense comparator input to AMUXA */
 478:.\Generated_Source\PSoC4/CapSense_CSD.c **** 	CapSense_CSD_CSD_CFG_REG |= CapSense_CSD_CSD_CFG_SENSE_INSEL;
 452              		.loc 1 478 0
 453 0024 064B     		ldr	r3, .L14+8
 454 0026 064A     		ldr	r2, .L14+8
 455 0028 1268     		ldr	r2, [r2]
 456 002a 8021     		mov	r1, #128
 457 002c C903     		lsl	r1, r1, #15
 458 002e 0A43     		orr	r2, r1
 459 0030 1A60     		str	r2, [r3]
 479:.\Generated_Source\PSoC4/CapSense_CSD.c **** }
 460              		.loc 1 479 0
 461 0032 BD46     		mov	sp, r7
 462              		@ sp needed
 463 0034 80BD     		pop	{r7, pc}
 464              	.L15:
 465 0036 C046     		.align	2
 466              	.L14:
 467 0038 1C000000 		.word	CapSense_CSD_initVar.5228
 468 003c 00000000 		.word	CapSense_CSD_lowLevelTuningDone
 469 0040 04000840 		.word	1074266116
 470              		.cfi_endproc
 471              	.LFE36:
 472              		.size	CapSense_CSD_Start, .-CapSense_CSD_Start
 473              		.section	.text.CapSense_CSD_Stop,"ax",%progbits
 474              		.align	2
 475              		.global	CapSense_CSD_Stop
 476              		.code	16
 477              		.thumb_func
 478              		.type	CapSense_CSD_Stop, %function
 479              	CapSense_CSD_Stop:
 480              	.LFB37:
 480:.\Generated_Source\PSoC4/CapSense_CSD.c **** 
 481:.\Generated_Source\PSoC4/CapSense_CSD.c **** 
ARM GAS  C:\Users\gsgill\AppData\Local\Temp\cc60Ptud.s 			page 18


 482:.\Generated_Source\PSoC4/CapSense_CSD.c **** /*******************************************************************************
 483:.\Generated_Source\PSoC4/CapSense_CSD.c **** * Function Name: CapSense_CSD_Stop
 484:.\Generated_Source\PSoC4/CapSense_CSD.c **** ********************************************************************************
 485:.\Generated_Source\PSoC4/CapSense_CSD.c **** *
 486:.\Generated_Source\PSoC4/CapSense_CSD.c **** * Summary:
 487:.\Generated_Source\PSoC4/CapSense_CSD.c **** *  Stops the sensor scanning, disables component interrupts, and resets all the 
 488:.\Generated_Source\PSoC4/CapSense_CSD.c **** *  sensors to an inactive state. Disables the Active mode power template bits for
 489:.\Generated_Source\PSoC4/CapSense_CSD.c **** *  the subcomponents used within CapSense.
 490:.\Generated_Source\PSoC4/CapSense_CSD.c **** *
 491:.\Generated_Source\PSoC4/CapSense_CSD.c **** * Parameters:
 492:.\Generated_Source\PSoC4/CapSense_CSD.c **** *  None
 493:.\Generated_Source\PSoC4/CapSense_CSD.c **** *
 494:.\Generated_Source\PSoC4/CapSense_CSD.c **** * Return:
 495:.\Generated_Source\PSoC4/CapSense_CSD.c **** *  None
 496:.\Generated_Source\PSoC4/CapSense_CSD.c **** *
 497:.\Generated_Source\PSoC4/CapSense_CSD.c **** * Global Variables:
 498:.\Generated_Source\PSoC4/CapSense_CSD.c **** *  CapSense_CSD_csdTrim1 - Contains the IDAC trim register value for the Sourcing Mode.
 499:.\Generated_Source\PSoC4/CapSense_CSD.c **** *  CapSense_CSD_csdTrim2 - Contains the IDAC trim register value for vSinking Mode.
 500:.\Generated_Source\PSoC4/CapSense_CSD.c **** *
 501:.\Generated_Source\PSoC4/CapSense_CSD.c **** * Side Effects:
 502:.\Generated_Source\PSoC4/CapSense_CSD.c **** *  This function should be called after scans are completed.
 503:.\Generated_Source\PSoC4/CapSense_CSD.c **** *
 504:.\Generated_Source\PSoC4/CapSense_CSD.c **** *******************************************************************************/
 505:.\Generated_Source\PSoC4/CapSense_CSD.c **** void CapSense_CSD_Stop(void)
 506:.\Generated_Source\PSoC4/CapSense_CSD.c **** {
 481              		.loc 1 506 0
 482              		.cfi_startproc
 483 0000 80B5     		push	{r7, lr}
 484              		.cfi_def_cfa_offset 8
 485              		.cfi_offset 7, -8
 486              		.cfi_offset 14, -4
 487 0002 00AF     		add	r7, sp, #0
 488              		.cfi_def_cfa_register 7
 507:.\Generated_Source\PSoC4/CapSense_CSD.c ****     /* Disable interrupt */
 508:.\Generated_Source\PSoC4/CapSense_CSD.c ****     CyIntDisable(CapSense_CSD_ISR_NUMBER);
 489              		.loc 1 508 0
 490 0004 0F20     		mov	r0, #15
 491 0006 FFF7FEFF 		bl	CyIntDisable
 509:.\Generated_Source\PSoC4/CapSense_CSD.c **** 	
 510:.\Generated_Source\PSoC4/CapSense_CSD.c **** 	CapSense_CSD_CSD_CFG_REG &= ~(CapSense_CSD_CSD_CFG_SENSE_COMP_EN | CapSense_CSD_CSD_CFG_SENSE_EN);
 492              		.loc 1 510 0
 493 000a 094B     		ldr	r3, .L17
 494 000c 084A     		ldr	r2, .L17
 495 000e 1168     		ldr	r1, [r2]
 496 0010 084A     		ldr	r2, .L17+4
 497 0012 0A40     		and	r2, r1
 498 0014 1A60     		str	r2, [r3]
 511:.\Generated_Source\PSoC4/CapSense_CSD.c **** 	
 512:.\Generated_Source\PSoC4/CapSense_CSD.c **** 	#if(CapSense_CSD_IDAC_CNT == 2u)
 513:.\Generated_Source\PSoC4/CapSense_CSD.c **** 		CapSense_CSD_CSD_CFG_REG &= ~(CapSense_CSD_CSD_CFG_ENABLE);
 499              		.loc 1 513 0
 500 0016 064B     		ldr	r3, .L17
 501 0018 054A     		ldr	r2, .L17
 502 001a 1268     		ldr	r2, [r2]
 503 001c 5200     		lsl	r2, r2, #1
 504 001e 5208     		lsr	r2, r2, #1
 505 0020 1A60     		str	r2, [r3]
ARM GAS  C:\Users\gsgill\AppData\Local\Temp\cc60Ptud.s 			page 19


 514:.\Generated_Source\PSoC4/CapSense_CSD.c **** 	#endif /* (CapSense_CSD_IDAC_CNT == 2u) */
 515:.\Generated_Source\PSoC4/CapSense_CSD.c **** 
 516:.\Generated_Source\PSoC4/CapSense_CSD.c ****     /* Disable the Clocks */
 517:.\Generated_Source\PSoC4/CapSense_CSD.c ****     CapSense_CSD_SenseClk_Stop();
 506              		.loc 1 517 0
 507 0022 FFF7FEFF 		bl	CapSense_CSD_SenseClk_Stop
 518:.\Generated_Source\PSoC4/CapSense_CSD.c ****     CapSense_CSD_SampleClk_Stop();
 508              		.loc 1 518 0
 509 0026 FFF7FEFF 		bl	CapSense_CSD_SampleClk_Stop
 519:.\Generated_Source\PSoC4/CapSense_CSD.c **** }
 510              		.loc 1 519 0
 511 002a BD46     		mov	sp, r7
 512              		@ sp needed
 513 002c 80BD     		pop	{r7, pc}
 514              	.L18:
 515 002e C046     		.align	2
 516              	.L17:
 517 0030 04000840 		.word	1074266116
 518 0034 FFEFF7FF 		.word	-528385
 519              		.cfi_endproc
 520              	.LFE37:
 521              		.size	CapSense_CSD_Stop, .-CapSense_CSD_Stop
 522              		.section	.text.CapSense_CSD_FindNextSensor,"ax",%progbits
 523              		.align	2
 524              		.global	CapSense_CSD_FindNextSensor
 525              		.code	16
 526              		.thumb_func
 527              		.type	CapSense_CSD_FindNextSensor, %function
 528              	CapSense_CSD_FindNextSensor:
 529              	.LFB38:
 520:.\Generated_Source\PSoC4/CapSense_CSD.c **** 
 521:.\Generated_Source\PSoC4/CapSense_CSD.c **** 
 522:.\Generated_Source\PSoC4/CapSense_CSD.c **** /*******************************************************************************
 523:.\Generated_Source\PSoC4/CapSense_CSD.c **** * Function Name: CapSense_CSD_FindNextSensor
 524:.\Generated_Source\PSoC4/CapSense_CSD.c **** ********************************************************************************
 525:.\Generated_Source\PSoC4/CapSense_CSD.c **** *
 526:.\Generated_Source\PSoC4/CapSense_CSD.c **** * Summary:
 527:.\Generated_Source\PSoC4/CapSense_CSD.c **** *  Finds the next sensor to scan. 
 528:.\Generated_Source\PSoC4/CapSense_CSD.c **** *
 529:.\Generated_Source\PSoC4/CapSense_CSD.c **** * Parameters:
 530:.\Generated_Source\PSoC4/CapSense_CSD.c **** *  snsIndex:  Current index of sensor.
 531:.\Generated_Source\PSoC4/CapSense_CSD.c **** *
 532:.\Generated_Source\PSoC4/CapSense_CSD.c **** * Return:
 533:.\Generated_Source\PSoC4/CapSense_CSD.c **** *  Returns the next sensor index to scan.
 534:.\Generated_Source\PSoC4/CapSense_CSD.c **** *
 535:.\Generated_Source\PSoC4/CapSense_CSD.c **** * Global Variables:
 536:.\Generated_Source\PSoC4/CapSense_CSD.c **** *  CapSense_CSD_sensorEnableMask[] - used to store bit masks of the enabled sensors.
 537:.\Generated_Source\PSoC4/CapSense_CSD.c **** *
 538:.\Generated_Source\PSoC4/CapSense_CSD.c **** * Side Effects:
 539:.\Generated_Source\PSoC4/CapSense_CSD.c **** *  This function affects the  current scanning and should not
 540:.\Generated_Source\PSoC4/CapSense_CSD.c **** *  be used outside the component.
 541:.\Generated_Source\PSoC4/CapSense_CSD.c **** *
 542:.\Generated_Source\PSoC4/CapSense_CSD.c **** *******************************************************************************/
 543:.\Generated_Source\PSoC4/CapSense_CSD.c **** uint8 CapSense_CSD_FindNextSensor(uint8 snsIndex)
 544:.\Generated_Source\PSoC4/CapSense_CSD.c **** {
 530              		.loc 1 544 0
 531              		.cfi_startproc
ARM GAS  C:\Users\gsgill\AppData\Local\Temp\cc60Ptud.s 			page 20


 532 0000 80B5     		push	{r7, lr}
 533              		.cfi_def_cfa_offset 8
 534              		.cfi_offset 7, -8
 535              		.cfi_offset 14, -4
 536 0002 84B0     		sub	sp, sp, #16
 537              		.cfi_def_cfa_offset 24
 538 0004 00AF     		add	r7, sp, #0
 539              		.cfi_def_cfa_register 7
 540 0006 021C     		mov	r2, r0
 541 0008 FB1D     		add	r3, r7, #7
 542 000a 1A70     		strb	r2, [r3]
 543              	.L22:
 545:.\Generated_Source\PSoC4/CapSense_CSD.c ****     uint32 enableFlag;
 546:.\Generated_Source\PSoC4/CapSense_CSD.c ****     
 547:.\Generated_Source\PSoC4/CapSense_CSD.c ****     /* Check if sensor enabled */
 548:.\Generated_Source\PSoC4/CapSense_CSD.c ****     do
 549:.\Generated_Source\PSoC4/CapSense_CSD.c ****     {
 550:.\Generated_Source\PSoC4/CapSense_CSD.c ****         /* Proceed with next sensor */
 551:.\Generated_Source\PSoC4/CapSense_CSD.c ****         snsIndex++;
 544              		.loc 1 551 0
 545 000c FB1D     		add	r3, r7, #7
 546 000e 1A78     		ldrb	r2, [r3]
 547 0010 FB1D     		add	r3, r7, #7
 548 0012 0132     		add	r2, r2, #1
 549 0014 1A70     		strb	r2, [r3]
 552:.\Generated_Source\PSoC4/CapSense_CSD.c ****         if(snsIndex == CapSense_CSD_TOTAL_SENSOR_COUNT)
 550              		.loc 1 552 0
 551 0016 FB1D     		add	r3, r7, #7
 552 0018 1B78     		ldrb	r3, [r3]
 553 001a 0C2B     		cmp	r3, #12
 554 001c 00D1     		bne	.L20
 553:.\Generated_Source\PSoC4/CapSense_CSD.c ****         {
 554:.\Generated_Source\PSoC4/CapSense_CSD.c ****             break;
 555              		.loc 1 554 0
 556 001e 0BE0     		b	.L21
 557              	.L20:
 555:.\Generated_Source\PSoC4/CapSense_CSD.c ****         }
 556:.\Generated_Source\PSoC4/CapSense_CSD.c ****         enableFlag = CapSense_CSD_GetBitValue(CapSense_CSD_sensorEnableMask, (uint32)snsIndex);
 558              		.loc 1 556 0
 559 0020 FB1D     		add	r3, r7, #7
 560 0022 1B78     		ldrb	r3, [r3]
 561 0024 074A     		ldr	r2, .L24
 562 0026 101C     		mov	r0, r2
 563 0028 191C     		mov	r1, r3
 564 002a FFF7FEFF 		bl	CapSense_CSD_GetBitValue
 565 002e 031C     		mov	r3, r0
 566 0030 FB60     		str	r3, [r7, #12]
 557:.\Generated_Source\PSoC4/CapSense_CSD.c ****     }    
 558:.\Generated_Source\PSoC4/CapSense_CSD.c ****     while(enableFlag == 0u);
 567              		.loc 1 558 0
 568 0032 FB68     		ldr	r3, [r7, #12]
 569 0034 002B     		cmp	r3, #0
 570 0036 E9D0     		beq	.L22
 571              	.L21:
 559:.\Generated_Source\PSoC4/CapSense_CSD.c ****     
 560:.\Generated_Source\PSoC4/CapSense_CSD.c ****     return ((uint8)snsIndex);
 572              		.loc 1 560 0
ARM GAS  C:\Users\gsgill\AppData\Local\Temp\cc60Ptud.s 			page 21


 573 0038 FB1D     		add	r3, r7, #7
 574 003a 1B78     		ldrb	r3, [r3]
 561:.\Generated_Source\PSoC4/CapSense_CSD.c **** }
 575              		.loc 1 561 0
 576 003c 181C     		mov	r0, r3
 577 003e BD46     		mov	sp, r7
 578 0040 04B0     		add	sp, sp, #16
 579              		@ sp needed
 580 0042 80BD     		pop	{r7, pc}
 581              	.L25:
 582              		.align	2
 583              	.L24:
 584 0044 00000000 		.word	CapSense_CSD_sensorEnableMask
 585              		.cfi_endproc
 586              	.LFE38:
 587              		.size	CapSense_CSD_FindNextSensor, .-CapSense_CSD_FindNextSensor
 588              		.section	.text.CapSense_CSD_ScanSensor,"ax",%progbits
 589              		.align	2
 590              		.global	CapSense_CSD_ScanSensor
 591              		.code	16
 592              		.thumb_func
 593              		.type	CapSense_CSD_ScanSensor, %function
 594              	CapSense_CSD_ScanSensor:
 595              	.LFB39:
 562:.\Generated_Source\PSoC4/CapSense_CSD.c **** 
 563:.\Generated_Source\PSoC4/CapSense_CSD.c **** 
 564:.\Generated_Source\PSoC4/CapSense_CSD.c **** /*******************************************************************************
 565:.\Generated_Source\PSoC4/CapSense_CSD.c **** * Function Name: CapSense_CSD_ScanSensor
 566:.\Generated_Source\PSoC4/CapSense_CSD.c **** ********************************************************************************
 567:.\Generated_Source\PSoC4/CapSense_CSD.c **** *
 568:.\Generated_Source\PSoC4/CapSense_CSD.c **** * Summary:
 569:.\Generated_Source\PSoC4/CapSense_CSD.c **** *  Sets the scan settings and starts scanning a sensor. After scanning is complete,
 570:.\Generated_Source\PSoC4/CapSense_CSD.c **** *  the ISR copies the measured sensor raw data to the global raw sensor array. 
 571:.\Generated_Source\PSoC4/CapSense_CSD.c **** *  Use of the ISR ensures this function is non-blocking. 
 572:.\Generated_Source\PSoC4/CapSense_CSD.c **** *  Each sensor has a unique number within the sensor array. 
 573:.\Generated_Source\PSoC4/CapSense_CSD.c **** *  This number is assigned by the CapSense customizer in sequence.
 574:.\Generated_Source\PSoC4/CapSense_CSD.c **** *
 575:.\Generated_Source\PSoC4/CapSense_CSD.c **** * Parameters:
 576:.\Generated_Source\PSoC4/CapSense_CSD.c **** *  sensor:  Sensor number.
 577:.\Generated_Source\PSoC4/CapSense_CSD.c **** *
 578:.\Generated_Source\PSoC4/CapSense_CSD.c **** * Return:
 579:.\Generated_Source\PSoC4/CapSense_CSD.c **** *  None
 580:.\Generated_Source\PSoC4/CapSense_CSD.c **** *
 581:.\Generated_Source\PSoC4/CapSense_CSD.c **** * Global Variables:
 582:.\Generated_Source\PSoC4/CapSense_CSD.c **** *  CapSense_CSD_csdStatusVar - used to provide the status and mode of the scanning process. 
 583:.\Generated_Source\PSoC4/CapSense_CSD.c **** *  Sets the busy status(scan in progress) and mode of scan as single scan.
 584:.\Generated_Source\PSoC4/CapSense_CSD.c **** *  CapSense_CSD_sensorIndex - used to store a sensor scanning sensor number.
 585:.\Generated_Source\PSoC4/CapSense_CSD.c **** *  Sets to the provided sensor argument.
 586:.\Generated_Source\PSoC4/CapSense_CSD.c **** *
 587:.\Generated_Source\PSoC4/CapSense_CSD.c **** * Side Effects:
 588:.\Generated_Source\PSoC4/CapSense_CSD.c **** *  None
 589:.\Generated_Source\PSoC4/CapSense_CSD.c **** * 
 590:.\Generated_Source\PSoC4/CapSense_CSD.c **** *******************************************************************************/
 591:.\Generated_Source\PSoC4/CapSense_CSD.c **** void CapSense_CSD_ScanSensor(uint32 sensor)
 592:.\Generated_Source\PSoC4/CapSense_CSD.c **** {
 596              		.loc 1 592 0
 597              		.cfi_startproc
ARM GAS  C:\Users\gsgill\AppData\Local\Temp\cc60Ptud.s 			page 22


 598 0000 80B5     		push	{r7, lr}
 599              		.cfi_def_cfa_offset 8
 600              		.cfi_offset 7, -8
 601              		.cfi_offset 14, -4
 602 0002 82B0     		sub	sp, sp, #8
 603              		.cfi_def_cfa_offset 16
 604 0004 00AF     		add	r7, sp, #0
 605              		.cfi_def_cfa_register 7
 606 0006 7860     		str	r0, [r7, #4]
 593:.\Generated_Source\PSoC4/CapSense_CSD.c ****     /* Clears status/control variable and set sensorIndex */
 594:.\Generated_Source\PSoC4/CapSense_CSD.c ****     CapSense_CSD_csdStatusVar = 0u;
 607              		.loc 1 594 0
 608 0008 084B     		ldr	r3, .L27
 609 000a 0022     		mov	r2, #0
 610 000c 1A70     		strb	r2, [r3]
 595:.\Generated_Source\PSoC4/CapSense_CSD.c ****     CapSense_CSD_sensorIndex = (uint8)sensor;
 611              		.loc 1 595 0
 612 000e 7B68     		ldr	r3, [r7, #4]
 613 0010 DAB2     		uxtb	r2, r3
 614 0012 074B     		ldr	r3, .L27+4
 615 0014 1A70     		strb	r2, [r3]
 596:.\Generated_Source\PSoC4/CapSense_CSD.c ****     
 597:.\Generated_Source\PSoC4/CapSense_CSD.c ****     /* Start of sensor scan */
 598:.\Generated_Source\PSoC4/CapSense_CSD.c ****     CapSense_CSD_csdStatusVar = (CapSense_CSD_SW_STS_BUSY | CapSense_CSD_SW_CTRL_SINGLE_SCAN);
 616              		.loc 1 598 0
 617 0016 054B     		ldr	r3, .L27
 618 0018 8122     		mov	r2, #129
 619 001a 1A70     		strb	r2, [r3]
 599:.\Generated_Source\PSoC4/CapSense_CSD.c ****     CapSense_CSD_PreScan(sensor);
 620              		.loc 1 599 0
 621 001c 7B68     		ldr	r3, [r7, #4]
 622 001e 181C     		mov	r0, r3
 623 0020 FFF7FEFF 		bl	CapSense_CSD_PreScan
 600:.\Generated_Source\PSoC4/CapSense_CSD.c **** }
 624              		.loc 1 600 0
 625 0024 BD46     		mov	sp, r7
 626 0026 02B0     		add	sp, sp, #8
 627              		@ sp needed
 628 0028 80BD     		pop	{r7, pc}
 629              	.L28:
 630 002a C046     		.align	2
 631              	.L27:
 632 002c 00000000 		.word	CapSense_CSD_csdStatusVar
 633 0030 00000000 		.word	CapSense_CSD_sensorIndex
 634              		.cfi_endproc
 635              	.LFE39:
 636              		.size	CapSense_CSD_ScanSensor, .-CapSense_CSD_ScanSensor
 637              		.section	.text.CapSense_CSD_ScanWidget,"ax",%progbits
 638              		.align	2
 639              		.global	CapSense_CSD_ScanWidget
 640              		.code	16
 641              		.thumb_func
 642              		.type	CapSense_CSD_ScanWidget, %function
 643              	CapSense_CSD_ScanWidget:
 644              	.LFB40:
 601:.\Generated_Source\PSoC4/CapSense_CSD.c **** 
 602:.\Generated_Source\PSoC4/CapSense_CSD.c **** 
ARM GAS  C:\Users\gsgill\AppData\Local\Temp\cc60Ptud.s 			page 23


 603:.\Generated_Source\PSoC4/CapSense_CSD.c **** #if(0u != CapSense_CSD_CSHL_API_GENERATE)
 604:.\Generated_Source\PSoC4/CapSense_CSD.c **** /*******************************************************************************
 605:.\Generated_Source\PSoC4/CapSense_CSD.c **** * Function Name: CapSense_CSD_ScanWidget
 606:.\Generated_Source\PSoC4/CapSense_CSD.c **** ********************************************************************************
 607:.\Generated_Source\PSoC4/CapSense_CSD.c **** *
 608:.\Generated_Source\PSoC4/CapSense_CSD.c **** * Summary:
 609:.\Generated_Source\PSoC4/CapSense_CSD.c **** *  Sets the scan settings and starts scanning a widget.
 610:.\Generated_Source\PSoC4/CapSense_CSD.c **** *
 611:.\Generated_Source\PSoC4/CapSense_CSD.c **** * Parameters:
 612:.\Generated_Source\PSoC4/CapSense_CSD.c **** *  uint32 widget: Widget number.
 613:.\Generated_Source\PSoC4/CapSense_CSD.c **** *
 614:.\Generated_Source\PSoC4/CapSense_CSD.c **** * Return:
 615:.\Generated_Source\PSoC4/CapSense_CSD.c **** *  None
 616:.\Generated_Source\PSoC4/CapSense_CSD.c **** *
 617:.\Generated_Source\PSoC4/CapSense_CSD.c **** * Global Variables:
 618:.\Generated_Source\PSoC4/CapSense_CSD.c **** *  CapSense_CSD_csdStatusVar - used to provide the status and mode of the scanning process. 
 619:.\Generated_Source\PSoC4/CapSense_CSD.c **** *  Sets the busy status(scan in progress) and clears the single scan mode.
 620:.\Generated_Source\PSoC4/CapSense_CSD.c **** *  CapSense_CSD_sensorIndex - used to store a sensor scanning sensor number.
 621:.\Generated_Source\PSoC4/CapSense_CSD.c **** *  Sets to 0xFF and provided to function CapSense_CSD_FindNextSensor or
 622:.\Generated_Source\PSoC4/CapSense_CSD.c **** *  CapSense_CSD_sensorEnableMask[] - used to store bit masks of the enabled sensors.
 623:.\Generated_Source\PSoC4/CapSense_CSD.c **** *  CapSense_CSD_sensorEnableMaskBackup[] - used to backup bit masks of the enabled
 624:.\Generated_Source\PSoC4/CapSense_CSD.c **** *   sensors.
 625:.\Generated_Source\PSoC4/CapSense_CSD.c **** *
 626:.\Generated_Source\PSoC4/CapSense_CSD.c **** * Side Effects:
 627:.\Generated_Source\PSoC4/CapSense_CSD.c **** *  None
 628:.\Generated_Source\PSoC4/CapSense_CSD.c **** * 
 629:.\Generated_Source\PSoC4/CapSense_CSD.c **** *******************************************************************************/
 630:.\Generated_Source\PSoC4/CapSense_CSD.c **** void CapSense_CSD_ScanWidget(uint32 widget)
 631:.\Generated_Source\PSoC4/CapSense_CSD.c **** {
 645              		.loc 1 631 0
 646              		.cfi_startproc
 647 0000 80B5     		push	{r7, lr}
 648              		.cfi_def_cfa_offset 8
 649              		.cfi_offset 7, -8
 650              		.cfi_offset 14, -4
 651 0002 86B0     		sub	sp, sp, #24
 652              		.cfi_def_cfa_offset 32
 653 0004 00AF     		add	r7, sp, #0
 654              		.cfi_def_cfa_register 7
 655 0006 7860     		str	r0, [r7, #4]
 632:.\Generated_Source\PSoC4/CapSense_CSD.c ****     uint32 sensorsPerWidget;
 633:.\Generated_Source\PSoC4/CapSense_CSD.c ****     uint32 lastSensor;
 634:.\Generated_Source\PSoC4/CapSense_CSD.c ****     uint32 snsIndex;
 635:.\Generated_Source\PSoC4/CapSense_CSD.c **** 
 636:.\Generated_Source\PSoC4/CapSense_CSD.c **** 	/* Get first sensor in widget */
 637:.\Generated_Source\PSoC4/CapSense_CSD.c **** 	CapSense_CSD_sensorIndex = CapSense_CSD_rawDataIndex[widget];
 656              		.loc 1 637 0
 657 0008 2E4A     		ldr	r2, .L38
 658 000a 7B68     		ldr	r3, [r7, #4]
 659 000c D318     		add	r3, r2, r3
 660 000e 1A78     		ldrb	r2, [r3]
 661 0010 2D4B     		ldr	r3, .L38+4
 662 0012 1A70     		strb	r2, [r3]
 638:.\Generated_Source\PSoC4/CapSense_CSD.c **** 	
 639:.\Generated_Source\PSoC4/CapSense_CSD.c **** 	/* Get number of sensors in widget */
 640:.\Generated_Source\PSoC4/CapSense_CSD.c **** 	sensorsPerWidget = CapSense_CSD_numberOfSensors[widget];
 663              		.loc 1 640 0
ARM GAS  C:\Users\gsgill\AppData\Local\Temp\cc60Ptud.s 			page 24


 664 0014 2D4A     		ldr	r2, .L38+8
 665 0016 7B68     		ldr	r3, [r7, #4]
 666 0018 D318     		add	r3, r2, r3
 667 001a 1B78     		ldrb	r3, [r3]
 668 001c 7B61     		str	r3, [r7, #20]
 641:.\Generated_Source\PSoC4/CapSense_CSD.c **** 	
 642:.\Generated_Source\PSoC4/CapSense_CSD.c **** 	/* Check if generic Sensor */
 643:.\Generated_Source\PSoC4/CapSense_CSD.c **** 	if(sensorsPerWidget == 0u)
 669              		.loc 1 643 0
 670 001e 7B69     		ldr	r3, [r7, #20]
 671 0020 002B     		cmp	r3, #0
 672 0022 01D1     		bne	.L30
 644:.\Generated_Source\PSoC4/CapSense_CSD.c **** 	{
 645:.\Generated_Source\PSoC4/CapSense_CSD.c **** 		sensorsPerWidget = 1u;
 673              		.loc 1 645 0
 674 0024 0123     		mov	r3, #1
 675 0026 7B61     		str	r3, [r7, #20]
 676              	.L30:
 646:.\Generated_Source\PSoC4/CapSense_CSD.c **** 	}
 647:.\Generated_Source\PSoC4/CapSense_CSD.c **** 	
 648:.\Generated_Source\PSoC4/CapSense_CSD.c **** 	/* Get last sensor in widget */
 649:.\Generated_Source\PSoC4/CapSense_CSD.c **** 	lastSensor = (CapSense_CSD_rawDataIndex[widget] + sensorsPerWidget) - 1u;
 677              		.loc 1 649 0
 678 0028 264A     		ldr	r2, .L38
 679 002a 7B68     		ldr	r3, [r7, #4]
 680 002c D318     		add	r3, r2, r3
 681 002e 1B78     		ldrb	r3, [r3]
 682 0030 1A1C     		mov	r2, r3
 683 0032 7B69     		ldr	r3, [r7, #20]
 684 0034 D318     		add	r3, r2, r3
 685 0036 013B     		sub	r3, r3, #1
 686 0038 FB60     		str	r3, [r7, #12]
 650:.\Generated_Source\PSoC4/CapSense_CSD.c **** 
 651:.\Generated_Source\PSoC4/CapSense_CSD.c **** 	/* Backup sensorEnableMask array */
 652:.\Generated_Source\PSoC4/CapSense_CSD.c **** 	for(snsIndex = 0u; snsIndex < CapSense_CSD_TOTAL_SENSOR_MASK; snsIndex++)
 687              		.loc 1 652 0
 688 003a 0023     		mov	r3, #0
 689 003c 3B61     		str	r3, [r7, #16]
 690 003e 0AE0     		b	.L31
 691              	.L32:
 653:.\Generated_Source\PSoC4/CapSense_CSD.c **** 	{
 654:.\Generated_Source\PSoC4/CapSense_CSD.c **** 		/* Backup sensorEnableMask array */
 655:.\Generated_Source\PSoC4/CapSense_CSD.c **** 		CapSense_CSD_sensorEnableMaskBackup[snsIndex] = CapSense_CSD_sensorEnableMask[snsIndex];
 692              		.loc 1 655 0 discriminator 2
 693 0040 234A     		ldr	r2, .L38+12
 694 0042 3B69     		ldr	r3, [r7, #16]
 695 0044 D318     		add	r3, r2, r3
 696 0046 1A78     		ldrb	r2, [r3]
 697 0048 2249     		ldr	r1, .L38+16
 698 004a 3B69     		ldr	r3, [r7, #16]
 699 004c CB18     		add	r3, r1, r3
 700 004e 1A70     		strb	r2, [r3]
 652:.\Generated_Source\PSoC4/CapSense_CSD.c **** 	for(snsIndex = 0u; snsIndex < CapSense_CSD_TOTAL_SENSOR_MASK; snsIndex++)
 701              		.loc 1 652 0 discriminator 2
 702 0050 3B69     		ldr	r3, [r7, #16]
 703 0052 0133     		add	r3, r3, #1
 704 0054 3B61     		str	r3, [r7, #16]
ARM GAS  C:\Users\gsgill\AppData\Local\Temp\cc60Ptud.s 			page 25


 705              	.L31:
 652:.\Generated_Source\PSoC4/CapSense_CSD.c **** 	for(snsIndex = 0u; snsIndex < CapSense_CSD_TOTAL_SENSOR_MASK; snsIndex++)
 706              		.loc 1 652 0 is_stmt 0 discriminator 1
 707 0056 3B69     		ldr	r3, [r7, #16]
 708 0058 012B     		cmp	r3, #1
 709 005a F1D9     		bls	.L32
 656:.\Generated_Source\PSoC4/CapSense_CSD.c **** 	}
 657:.\Generated_Source\PSoC4/CapSense_CSD.c **** 
 658:.\Generated_Source\PSoC4/CapSense_CSD.c **** 	/* Update sensorEnableMask to scan the sensors that belong to widget */
 659:.\Generated_Source\PSoC4/CapSense_CSD.c **** 	for(snsIndex = 0u; snsIndex < CapSense_CSD_TOTAL_SENSOR_COUNT; snsIndex++)
 710              		.loc 1 659 0 is_stmt 1
 711 005c 0023     		mov	r3, #0
 712 005e 3B61     		str	r3, [r7, #16]
 713 0060 1CE0     		b	.L33
 714              	.L36:
 660:.\Generated_Source\PSoC4/CapSense_CSD.c **** 	{
 661:.\Generated_Source\PSoC4/CapSense_CSD.c **** 		/* Update sensorEnableMask array bits to scan the widget only */ 
 662:.\Generated_Source\PSoC4/CapSense_CSD.c **** 	    if((snsIndex >= CapSense_CSD_sensorIndex) && (snsIndex <= lastSensor))
 715              		.loc 1 662 0
 716 0062 194B     		ldr	r3, .L38+4
 717 0064 1B78     		ldrb	r3, [r3]
 718 0066 DBB2     		uxtb	r3, r3
 719 0068 1A1C     		mov	r2, r3
 720 006a 3B69     		ldr	r3, [r7, #16]
 721 006c 9A42     		cmp	r2, r3
 722 006e 0BD8     		bhi	.L34
 723              		.loc 1 662 0 is_stmt 0 discriminator 1
 724 0070 3A69     		ldr	r2, [r7, #16]
 725 0072 FB68     		ldr	r3, [r7, #12]
 726 0074 9A42     		cmp	r2, r3
 727 0076 07D8     		bhi	.L34
 663:.\Generated_Source\PSoC4/CapSense_CSD.c **** 		{
 664:.\Generated_Source\PSoC4/CapSense_CSD.c **** 		    /* Set sensor bit to scan */
 665:.\Generated_Source\PSoC4/CapSense_CSD.c **** 			CapSense_CSD_SetBitValue(CapSense_CSD_sensorEnableMask, snsIndex, 1u);
 728              		.loc 1 665 0 is_stmt 1
 729 0078 154A     		ldr	r2, .L38+12
 730 007a 3B69     		ldr	r3, [r7, #16]
 731 007c 101C     		mov	r0, r2
 732 007e 191C     		mov	r1, r3
 733 0080 0122     		mov	r2, #1
 734 0082 FFF7FEFF 		bl	CapSense_CSD_SetBitValue
 735 0086 06E0     		b	.L35
 736              	.L34:
 666:.\Generated_Source\PSoC4/CapSense_CSD.c **** 		}
 667:.\Generated_Source\PSoC4/CapSense_CSD.c **** 		else
 668:.\Generated_Source\PSoC4/CapSense_CSD.c **** 		{
 669:.\Generated_Source\PSoC4/CapSense_CSD.c **** 		    /* Reset sensor bit to do not scan */
 670:.\Generated_Source\PSoC4/CapSense_CSD.c **** 		    CapSense_CSD_SetBitValue(CapSense_CSD_sensorEnableMask, snsIndex, 0u);
 737              		.loc 1 670 0
 738 0088 114A     		ldr	r2, .L38+12
 739 008a 3B69     		ldr	r3, [r7, #16]
 740 008c 101C     		mov	r0, r2
 741 008e 191C     		mov	r1, r3
 742 0090 0022     		mov	r2, #0
 743 0092 FFF7FEFF 		bl	CapSense_CSD_SetBitValue
 744              	.L35:
 659:.\Generated_Source\PSoC4/CapSense_CSD.c **** 	for(snsIndex = 0u; snsIndex < CapSense_CSD_TOTAL_SENSOR_COUNT; snsIndex++)
ARM GAS  C:\Users\gsgill\AppData\Local\Temp\cc60Ptud.s 			page 26


 745              		.loc 1 659 0
 746 0096 3B69     		ldr	r3, [r7, #16]
 747 0098 0133     		add	r3, r3, #1
 748 009a 3B61     		str	r3, [r7, #16]
 749              	.L33:
 659:.\Generated_Source\PSoC4/CapSense_CSD.c **** 	for(snsIndex = 0u; snsIndex < CapSense_CSD_TOTAL_SENSOR_COUNT; snsIndex++)
 750              		.loc 1 659 0 is_stmt 0 discriminator 1
 751 009c 3B69     		ldr	r3, [r7, #16]
 752 009e 0B2B     		cmp	r3, #11
 753 00a0 DFD9     		bls	.L36
 671:.\Generated_Source\PSoC4/CapSense_CSD.c **** 		}
 672:.\Generated_Source\PSoC4/CapSense_CSD.c **** 	}
 673:.\Generated_Source\PSoC4/CapSense_CSD.c **** 
 674:.\Generated_Source\PSoC4/CapSense_CSD.c ****     /* Check end of scan condition */
 675:.\Generated_Source\PSoC4/CapSense_CSD.c ****     if(CapSense_CSD_sensorIndex < CapSense_CSD_TOTAL_SENSOR_COUNT)
 754              		.loc 1 675 0 is_stmt 1
 755 00a2 094B     		ldr	r3, .L38+4
 756 00a4 1B78     		ldrb	r3, [r3]
 757 00a6 DBB2     		uxtb	r3, r3
 758 00a8 0B2B     		cmp	r3, #11
 759 00aa 08D8     		bhi	.L29
 676:.\Generated_Source\PSoC4/CapSense_CSD.c ****     {
 677:.\Generated_Source\PSoC4/CapSense_CSD.c **** 		/* Set widget busy bit in status/control variable*/ 
 678:.\Generated_Source\PSoC4/CapSense_CSD.c **** 		CapSense_CSD_csdStatusVar = (CapSense_CSD_SW_STS_BUSY | CapSense_CSD_SW_CTRL_WIDGET_SCAN);
 760              		.loc 1 678 0
 761 00ac 0A4B     		ldr	r3, .L38+20
 762 00ae 4122     		mov	r2, #65
 763 00b0 1A70     		strb	r2, [r3]
 679:.\Generated_Source\PSoC4/CapSense_CSD.c **** 		/* Scan first sensor of widget*/ 
 680:.\Generated_Source\PSoC4/CapSense_CSD.c ****         CapSense_CSD_PreScan((uint32)CapSense_CSD_sensorIndex);
 764              		.loc 1 680 0
 765 00b2 054B     		ldr	r3, .L38+4
 766 00b4 1B78     		ldrb	r3, [r3]
 767 00b6 DBB2     		uxtb	r3, r3
 768 00b8 181C     		mov	r0, r3
 769 00ba FFF7FEFF 		bl	CapSense_CSD_PreScan
 770              	.L29:
 681:.\Generated_Source\PSoC4/CapSense_CSD.c ****     }
 682:.\Generated_Source\PSoC4/CapSense_CSD.c **** }
 771              		.loc 1 682 0
 772 00be BD46     		mov	sp, r7
 773 00c0 06B0     		add	sp, sp, #24
 774              		@ sp needed
 775 00c2 80BD     		pop	{r7, pc}
 776              	.L39:
 777              		.align	2
 778              	.L38:
 779 00c4 00000000 		.word	CapSense_CSD_rawDataIndex
 780 00c8 00000000 		.word	CapSense_CSD_sensorIndex
 781 00cc 00000000 		.word	CapSense_CSD_numberOfSensors
 782 00d0 00000000 		.word	CapSense_CSD_sensorEnableMask
 783 00d4 00000000 		.word	CapSense_CSD_sensorEnableMaskBackup
 784 00d8 00000000 		.word	CapSense_CSD_csdStatusVar
 785              		.cfi_endproc
 786              	.LFE40:
 787              		.size	CapSense_CSD_ScanWidget, .-CapSense_CSD_ScanWidget
 788              		.section	.text.CapSense_CSD_ScanEnabledWidgets,"ax",%progbits
ARM GAS  C:\Users\gsgill\AppData\Local\Temp\cc60Ptud.s 			page 27


 789              		.align	2
 790              		.global	CapSense_CSD_ScanEnabledWidgets
 791              		.code	16
 792              		.thumb_func
 793              		.type	CapSense_CSD_ScanEnabledWidgets, %function
 794              	CapSense_CSD_ScanEnabledWidgets:
 795              	.LFB41:
 683:.\Generated_Source\PSoC4/CapSense_CSD.c **** #endif /* (0u != CapSense_CSD_CSHL_API_GENERATE) */
 684:.\Generated_Source\PSoC4/CapSense_CSD.c **** 
 685:.\Generated_Source\PSoC4/CapSense_CSD.c **** 
 686:.\Generated_Source\PSoC4/CapSense_CSD.c **** /*******************************************************************************
 687:.\Generated_Source\PSoC4/CapSense_CSD.c **** * Function Name: CapSense_CSD_ScanEnableWidgets
 688:.\Generated_Source\PSoC4/CapSense_CSD.c **** ********************************************************************************
 689:.\Generated_Source\PSoC4/CapSense_CSD.c **** *
 690:.\Generated_Source\PSoC4/CapSense_CSD.c **** * Summary:
 691:.\Generated_Source\PSoC4/CapSense_CSD.c **** *  This is the preferred method to scan all of the enabled widgets. 
 692:.\Generated_Source\PSoC4/CapSense_CSD.c **** *  The API starts scanning a sensor within the enabled widgets. 
 693:.\Generated_Source\PSoC4/CapSense_CSD.c **** *  The ISR continues scanning the sensors until all the enabled widgets are scanned. 
 694:.\Generated_Source\PSoC4/CapSense_CSD.c **** *  Use of the ISR ensures this function is non-blocking.
 695:.\Generated_Source\PSoC4/CapSense_CSD.c **** *  All the widgets are enabled by default except proximity widgets. 
 696:.\Generated_Source\PSoC4/CapSense_CSD.c **** *  The proximity widgets must be manually enabled as their long scan time 
 697:.\Generated_Source\PSoC4/CapSense_CSD.c **** *  is incompatible with a fast response required of other widget types.
 698:.\Generated_Source\PSoC4/CapSense_CSD.c **** *
 699:.\Generated_Source\PSoC4/CapSense_CSD.c **** * Parameters:
 700:.\Generated_Source\PSoC4/CapSense_CSD.c **** *  None
 701:.\Generated_Source\PSoC4/CapSense_CSD.c **** *
 702:.\Generated_Source\PSoC4/CapSense_CSD.c **** * Return:
 703:.\Generated_Source\PSoC4/CapSense_CSD.c **** *  None
 704:.\Generated_Source\PSoC4/CapSense_CSD.c **** *
 705:.\Generated_Source\PSoC4/CapSense_CSD.c **** * Global Variables:
 706:.\Generated_Source\PSoC4/CapSense_CSD.c **** *  CapSense_CSD_csdStatusVar - used to provide the status and mode of the scanning process. 
 707:.\Generated_Source\PSoC4/CapSense_CSD.c **** *  Sets the busy status(scan in progress) and clears the single scan mode.
 708:.\Generated_Source\PSoC4/CapSense_CSD.c **** *  CapSense_CSD_sensorIndex - used to store a sensor scanning sensor number.
 709:.\Generated_Source\PSoC4/CapSense_CSD.c **** *  Sets to 0xFF and provided to function CapSense_CSD_FindNextSensor or
 710:.\Generated_Source\PSoC4/CapSense_CSD.c **** *
 711:.\Generated_Source\PSoC4/CapSense_CSD.c **** * Side Effects:
 712:.\Generated_Source\PSoC4/CapSense_CSD.c **** *  None
 713:.\Generated_Source\PSoC4/CapSense_CSD.c **** * 
 714:.\Generated_Source\PSoC4/CapSense_CSD.c **** *******************************************************************************/
 715:.\Generated_Source\PSoC4/CapSense_CSD.c **** void CapSense_CSD_ScanEnabledWidgets(void)
 716:.\Generated_Source\PSoC4/CapSense_CSD.c **** {
 796              		.loc 1 716 0
 797              		.cfi_startproc
 798 0000 80B5     		push	{r7, lr}
 799              		.cfi_def_cfa_offset 8
 800              		.cfi_offset 7, -8
 801              		.cfi_offset 14, -4
 802 0002 00AF     		add	r7, sp, #0
 803              		.cfi_def_cfa_register 7
 717:.\Generated_Source\PSoC4/CapSense_CSD.c ****     /* Clears status/control variable and set sensorIndex */
 718:.\Generated_Source\PSoC4/CapSense_CSD.c ****     CapSense_CSD_csdStatusVar = 0u;
 804              		.loc 1 718 0
 805 0004 124B     		ldr	r3, .L42
 806 0006 0022     		mov	r2, #0
 807 0008 1A70     		strb	r2, [r3]
 719:.\Generated_Source\PSoC4/CapSense_CSD.c ****     CapSense_CSD_sensorIndex = 0xFFu;
 808              		.loc 1 719 0
ARM GAS  C:\Users\gsgill\AppData\Local\Temp\cc60Ptud.s 			page 28


 809 000a 124B     		ldr	r3, .L42+4
 810 000c FF22     		mov	r2, #255
 811 000e 1A70     		strb	r2, [r3]
 720:.\Generated_Source\PSoC4/CapSense_CSD.c ****     
 721:.\Generated_Source\PSoC4/CapSense_CSD.c ****     /* Find next sensor */
 722:.\Generated_Source\PSoC4/CapSense_CSD.c ****     CapSense_CSD_sensorIndex = (uint8)CapSense_CSD_FindNextSensor(CapSense_CSD_sensorIndex);
 812              		.loc 1 722 0
 813 0010 104B     		ldr	r3, .L42+4
 814 0012 1B78     		ldrb	r3, [r3]
 815 0014 DBB2     		uxtb	r3, r3
 816 0016 181C     		mov	r0, r3
 817 0018 FFF7FEFF 		bl	CapSense_CSD_FindNextSensor
 818 001c 031C     		mov	r3, r0
 819 001e 1A1C     		mov	r2, r3
 820 0020 0C4B     		ldr	r3, .L42+4
 821 0022 1A70     		strb	r2, [r3]
 723:.\Generated_Source\PSoC4/CapSense_CSD.c **** 
 724:.\Generated_Source\PSoC4/CapSense_CSD.c ****     /* Check end of scan condition */
 725:.\Generated_Source\PSoC4/CapSense_CSD.c ****     if(CapSense_CSD_sensorIndex < CapSense_CSD_TOTAL_SENSOR_COUNT)
 822              		.loc 1 725 0
 823 0024 0B4B     		ldr	r3, .L42+4
 824 0026 1B78     		ldrb	r3, [r3]
 825 0028 DBB2     		uxtb	r3, r3
 826 002a 0B2B     		cmp	r3, #11
 827 002c 0DD8     		bhi	.L40
 726:.\Generated_Source\PSoC4/CapSense_CSD.c ****     {
 727:.\Generated_Source\PSoC4/CapSense_CSD.c ****         CapSense_CSD_csdStatusVar |= CapSense_CSD_SW_STS_BUSY;
 828              		.loc 1 727 0
 829 002e 084B     		ldr	r3, .L42
 830 0030 1B78     		ldrb	r3, [r3]
 831 0032 DBB2     		uxtb	r3, r3
 832 0034 0122     		mov	r2, #1
 833 0036 1343     		orr	r3, r2
 834 0038 DAB2     		uxtb	r2, r3
 835 003a 054B     		ldr	r3, .L42
 836 003c 1A70     		strb	r2, [r3]
 728:.\Generated_Source\PSoC4/CapSense_CSD.c ****         CapSense_CSD_PreScan((uint32)CapSense_CSD_sensorIndex);
 837              		.loc 1 728 0
 838 003e 054B     		ldr	r3, .L42+4
 839 0040 1B78     		ldrb	r3, [r3]
 840 0042 DBB2     		uxtb	r3, r3
 841 0044 181C     		mov	r0, r3
 842 0046 FFF7FEFF 		bl	CapSense_CSD_PreScan
 843              	.L40:
 729:.\Generated_Source\PSoC4/CapSense_CSD.c ****     }
 730:.\Generated_Source\PSoC4/CapSense_CSD.c **** }
 844              		.loc 1 730 0
 845 004a BD46     		mov	sp, r7
 846              		@ sp needed
 847 004c 80BD     		pop	{r7, pc}
 848              	.L43:
 849 004e C046     		.align	2
 850              	.L42:
 851 0050 00000000 		.word	CapSense_CSD_csdStatusVar
 852 0054 00000000 		.word	CapSense_CSD_sensorIndex
 853              		.cfi_endproc
 854              	.LFE41:
ARM GAS  C:\Users\gsgill\AppData\Local\Temp\cc60Ptud.s 			page 29


 855              		.size	CapSense_CSD_ScanEnabledWidgets, .-CapSense_CSD_ScanEnabledWidgets
 856              		.section	.text.CapSense_CSD_IsBusy,"ax",%progbits
 857              		.align	2
 858              		.global	CapSense_CSD_IsBusy
 859              		.code	16
 860              		.thumb_func
 861              		.type	CapSense_CSD_IsBusy, %function
 862              	CapSense_CSD_IsBusy:
 863              	.LFB42:
 731:.\Generated_Source\PSoC4/CapSense_CSD.c **** 
 732:.\Generated_Source\PSoC4/CapSense_CSD.c **** 
 733:.\Generated_Source\PSoC4/CapSense_CSD.c **** /*******************************************************************************
 734:.\Generated_Source\PSoC4/CapSense_CSD.c **** * Function Name: CapSense_CSD_IsBusy
 735:.\Generated_Source\PSoC4/CapSense_CSD.c **** ********************************************************************************
 736:.\Generated_Source\PSoC4/CapSense_CSD.c **** *
 737:.\Generated_Source\PSoC4/CapSense_CSD.c **** * Summary:
 738:.\Generated_Source\PSoC4/CapSense_CSD.c **** *  Returns the state of the CapSense component. 1 means that scanning in 
 739:.\Generated_Source\PSoC4/CapSense_CSD.c **** *  progress and 0 means that scanning is complete.
 740:.\Generated_Source\PSoC4/CapSense_CSD.c **** *
 741:.\Generated_Source\PSoC4/CapSense_CSD.c **** * Parameters:
 742:.\Generated_Source\PSoC4/CapSense_CSD.c **** *  None
 743:.\Generated_Source\PSoC4/CapSense_CSD.c **** *
 744:.\Generated_Source\PSoC4/CapSense_CSD.c **** * Return:
 745:.\Generated_Source\PSoC4/CapSense_CSD.c **** *  Returns the state of scanning. 1 - scanning in progress, 0 - scanning 
 746:.\Generated_Source\PSoC4/CapSense_CSD.c **** *  completed.
 747:.\Generated_Source\PSoC4/CapSense_CSD.c **** *
 748:.\Generated_Source\PSoC4/CapSense_CSD.c **** * Global Variables:
 749:.\Generated_Source\PSoC4/CapSense_CSD.c **** *  CapSense_CSD_csdStatusVar - used to provide the status and mode of the scanning process. 
 750:.\Generated_Source\PSoC4/CapSense_CSD.c **** *  Checks the busy status.
 751:.\Generated_Source\PSoC4/CapSense_CSD.c **** *
 752:.\Generated_Source\PSoC4/CapSense_CSD.c **** * Side Effects:
 753:.\Generated_Source\PSoC4/CapSense_CSD.c **** *  None
 754:.\Generated_Source\PSoC4/CapSense_CSD.c **** * 
 755:.\Generated_Source\PSoC4/CapSense_CSD.c **** *******************************************************************************/
 756:.\Generated_Source\PSoC4/CapSense_CSD.c **** uint32 CapSense_CSD_IsBusy(void)
 757:.\Generated_Source\PSoC4/CapSense_CSD.c **** {
 864              		.loc 1 757 0
 865              		.cfi_startproc
 866 0000 80B5     		push	{r7, lr}
 867              		.cfi_def_cfa_offset 8
 868              		.cfi_offset 7, -8
 869              		.cfi_offset 14, -4
 870 0002 00AF     		add	r7, sp, #0
 871              		.cfi_def_cfa_register 7
 758:.\Generated_Source\PSoC4/CapSense_CSD.c ****     return ((uint32)((0u != (CapSense_CSD_csdStatusVar & CapSense_CSD_SW_STS_BUSY)) ? 1u : 0u));
 872              		.loc 1 758 0
 873 0004 044B     		ldr	r3, .L46
 874 0006 1B78     		ldrb	r3, [r3]
 875 0008 DBB2     		uxtb	r3, r3
 876 000a 1A1C     		mov	r2, r3
 877 000c 0123     		mov	r3, #1
 878 000e 1340     		and	r3, r2
 759:.\Generated_Source\PSoC4/CapSense_CSD.c **** }
 879              		.loc 1 759 0
 880 0010 181C     		mov	r0, r3
 881 0012 BD46     		mov	sp, r7
 882              		@ sp needed
ARM GAS  C:\Users\gsgill\AppData\Local\Temp\cc60Ptud.s 			page 30


 883 0014 80BD     		pop	{r7, pc}
 884              	.L47:
 885 0016 C046     		.align	2
 886              	.L46:
 887 0018 00000000 		.word	CapSense_CSD_csdStatusVar
 888              		.cfi_endproc
 889              	.LFE42:
 890              		.size	CapSense_CSD_IsBusy, .-CapSense_CSD_IsBusy
 891              		.section	.text.CapSense_CSD_ReadSensorRaw,"ax",%progbits
 892              		.align	2
 893              		.global	CapSense_CSD_ReadSensorRaw
 894              		.code	16
 895              		.thumb_func
 896              		.type	CapSense_CSD_ReadSensorRaw, %function
 897              	CapSense_CSD_ReadSensorRaw:
 898              	.LFB43:
 760:.\Generated_Source\PSoC4/CapSense_CSD.c **** 
 761:.\Generated_Source\PSoC4/CapSense_CSD.c **** 
 762:.\Generated_Source\PSoC4/CapSense_CSD.c **** /*******************************************************************************
 763:.\Generated_Source\PSoC4/CapSense_CSD.c **** * Function Name: CapSense_CSD_ReadSensorRaw
 764:.\Generated_Source\PSoC4/CapSense_CSD.c **** ********************************************************************************
 765:.\Generated_Source\PSoC4/CapSense_CSD.c **** *
 766:.\Generated_Source\PSoC4/CapSense_CSD.c **** * Summary:
 767:.\Generated_Source\PSoC4/CapSense_CSD.c **** *  Returns sensor raw data from the global CapSense_sensorRaw[ ] array. 
 768:.\Generated_Source\PSoC4/CapSense_CSD.c **** *  Each scan sensor has a unique number within the sensor array. 
 769:.\Generated_Source\PSoC4/CapSense_CSD.c **** *  This number is assigned by the CapSense customizer in sequence. 
 770:.\Generated_Source\PSoC4/CapSense_CSD.c **** *  Raw data can be used to perform calculations outside of the CapSense 
 771:.\Generated_Source\PSoC4/CapSense_CSD.c **** *  provided framework.
 772:.\Generated_Source\PSoC4/CapSense_CSD.c **** *
 773:.\Generated_Source\PSoC4/CapSense_CSD.c **** * Parameters:
 774:.\Generated_Source\PSoC4/CapSense_CSD.c **** *  sensor:  Sensor number.
 775:.\Generated_Source\PSoC4/CapSense_CSD.c **** *
 776:.\Generated_Source\PSoC4/CapSense_CSD.c **** * Return:
 777:.\Generated_Source\PSoC4/CapSense_CSD.c **** *  Returns the current raw data value for a defined sensor number.
 778:.\Generated_Source\PSoC4/CapSense_CSD.c **** *
 779:.\Generated_Source\PSoC4/CapSense_CSD.c **** * Global Variables:
 780:.\Generated_Source\PSoC4/CapSense_CSD.c **** *  CapSense_CSD_sensorRaw[] - used to store sensors raw data.
 781:.\Generated_Source\PSoC4/CapSense_CSD.c **** *
 782:.\Generated_Source\PSoC4/CapSense_CSD.c **** * Side Effects: 
 783:.\Generated_Source\PSoC4/CapSense_CSD.c **** *  None
 784:.\Generated_Source\PSoC4/CapSense_CSD.c **** *
 785:.\Generated_Source\PSoC4/CapSense_CSD.c **** *******************************************************************************/
 786:.\Generated_Source\PSoC4/CapSense_CSD.c **** uint16 CapSense_CSD_ReadSensorRaw(uint32 sensor)
 787:.\Generated_Source\PSoC4/CapSense_CSD.c **** {
 899              		.loc 1 787 0
 900              		.cfi_startproc
 901 0000 80B5     		push	{r7, lr}
 902              		.cfi_def_cfa_offset 8
 903              		.cfi_offset 7, -8
 904              		.cfi_offset 14, -4
 905 0002 82B0     		sub	sp, sp, #8
 906              		.cfi_def_cfa_offset 16
 907 0004 00AF     		add	r7, sp, #0
 908              		.cfi_def_cfa_register 7
 909 0006 7860     		str	r0, [r7, #4]
 788:.\Generated_Source\PSoC4/CapSense_CSD.c ****     return CapSense_CSD_sensorRaw[sensor];
 910              		.loc 1 788 0
ARM GAS  C:\Users\gsgill\AppData\Local\Temp\cc60Ptud.s 			page 31


 911 0008 034B     		ldr	r3, .L50
 912 000a 7A68     		ldr	r2, [r7, #4]
 913 000c 5200     		lsl	r2, r2, #1
 914 000e D35A     		ldrh	r3, [r2, r3]
 789:.\Generated_Source\PSoC4/CapSense_CSD.c **** }
 915              		.loc 1 789 0
 916 0010 181C     		mov	r0, r3
 917 0012 BD46     		mov	sp, r7
 918 0014 02B0     		add	sp, sp, #8
 919              		@ sp needed
 920 0016 80BD     		pop	{r7, pc}
 921              	.L51:
 922              		.align	2
 923              	.L50:
 924 0018 00000000 		.word	CapSense_CSD_sensorRaw
 925              		.cfi_endproc
 926              	.LFE43:
 927              		.size	CapSense_CSD_ReadSensorRaw, .-CapSense_CSD_ReadSensorRaw
 928              		.section	.text.CapSense_CSD_WriteSensorRaw,"ax",%progbits
 929              		.align	2
 930              		.global	CapSense_CSD_WriteSensorRaw
 931              		.code	16
 932              		.thumb_func
 933              		.type	CapSense_CSD_WriteSensorRaw, %function
 934              	CapSense_CSD_WriteSensorRaw:
 935              	.LFB44:
 790:.\Generated_Source\PSoC4/CapSense_CSD.c **** 
 791:.\Generated_Source\PSoC4/CapSense_CSD.c **** 
 792:.\Generated_Source\PSoC4/CapSense_CSD.c **** /*******************************************************************************
 793:.\Generated_Source\PSoC4/CapSense_CSD.c **** * Function Name: CapSense_CSD_WriteSensorRaw
 794:.\Generated_Source\PSoC4/CapSense_CSD.c **** ********************************************************************************
 795:.\Generated_Source\PSoC4/CapSense_CSD.c **** *
 796:.\Generated_Source\PSoC4/CapSense_CSD.c **** * Summary:
 797:.\Generated_Source\PSoC4/CapSense_CSD.c **** *  This API writes the raw count value passed as an argument to the sensor Raw count array.
 798:.\Generated_Source\PSoC4/CapSense_CSD.c **** *
 799:.\Generated_Source\PSoC4/CapSense_CSD.c **** * Parameters:
 800:.\Generated_Source\PSoC4/CapSense_CSD.c **** *  sensor:  Sensor number.
 801:.\Generated_Source\PSoC4/CapSense_CSD.c **** *  value: Raw count value.
 802:.\Generated_Source\PSoC4/CapSense_CSD.c **** *
 803:.\Generated_Source\PSoC4/CapSense_CSD.c **** * Global Variables:
 804:.\Generated_Source\PSoC4/CapSense_CSD.c **** *  CapSense_CSD_sensorRaw[] - used to store sensors raw data.
 805:.\Generated_Source\PSoC4/CapSense_CSD.c **** *
 806:.\Generated_Source\PSoC4/CapSense_CSD.c **** * Return:
 807:.\Generated_Source\PSoC4/CapSense_CSD.c **** *  None
 808:.\Generated_Source\PSoC4/CapSense_CSD.c **** *
 809:.\Generated_Source\PSoC4/CapSense_CSD.c **** * Side Effects: 
 810:.\Generated_Source\PSoC4/CapSense_CSD.c **** *  None
 811:.\Generated_Source\PSoC4/CapSense_CSD.c **** *
 812:.\Generated_Source\PSoC4/CapSense_CSD.c **** *******************************************************************************/
 813:.\Generated_Source\PSoC4/CapSense_CSD.c **** void CapSense_CSD_WriteSensorRaw(uint32 sensor, uint16 value)
 814:.\Generated_Source\PSoC4/CapSense_CSD.c **** {
 936              		.loc 1 814 0
 937              		.cfi_startproc
 938 0000 80B5     		push	{r7, lr}
 939              		.cfi_def_cfa_offset 8
 940              		.cfi_offset 7, -8
 941              		.cfi_offset 14, -4
ARM GAS  C:\Users\gsgill\AppData\Local\Temp\cc60Ptud.s 			page 32


 942 0002 82B0     		sub	sp, sp, #8
 943              		.cfi_def_cfa_offset 16
 944 0004 00AF     		add	r7, sp, #0
 945              		.cfi_def_cfa_register 7
 946 0006 7860     		str	r0, [r7, #4]
 947 0008 0A1C     		mov	r2, r1
 948 000a BB1C     		add	r3, r7, #2
 949 000c 1A80     		strh	r2, [r3]
 815:.\Generated_Source\PSoC4/CapSense_CSD.c **** 	CapSense_CSD_sensorRaw[sensor] = value;
 950              		.loc 1 815 0
 951 000e 044B     		ldr	r3, .L53
 952 0010 7A68     		ldr	r2, [r7, #4]
 953 0012 5200     		lsl	r2, r2, #1
 954 0014 B91C     		add	r1, r7, #2
 955 0016 0988     		ldrh	r1, [r1]
 956 0018 D152     		strh	r1, [r2, r3]
 816:.\Generated_Source\PSoC4/CapSense_CSD.c **** }
 957              		.loc 1 816 0
 958 001a BD46     		mov	sp, r7
 959 001c 02B0     		add	sp, sp, #8
 960              		@ sp needed
 961 001e 80BD     		pop	{r7, pc}
 962              	.L54:
 963              		.align	2
 964              	.L53:
 965 0020 00000000 		.word	CapSense_CSD_sensorRaw
 966              		.cfi_endproc
 967              	.LFE44:
 968              		.size	CapSense_CSD_WriteSensorRaw, .-CapSense_CSD_WriteSensorRaw
 969              		.section	.text.CapSense_CSD_SetScanResolution,"ax",%progbits
 970              		.align	2
 971              		.global	CapSense_CSD_SetScanResolution
 972              		.code	16
 973              		.thumb_func
 974              		.type	CapSense_CSD_SetScanResolution, %function
 975              	CapSense_CSD_SetScanResolution:
 976              	.LFB45:
 817:.\Generated_Source\PSoC4/CapSense_CSD.c **** 
 818:.\Generated_Source\PSoC4/CapSense_CSD.c **** 
 819:.\Generated_Source\PSoC4/CapSense_CSD.c **** #if (CapSense_CSD_TUNING_METHOD != CapSense_CSD__TUNING_NONE)
 820:.\Generated_Source\PSoC4/CapSense_CSD.c **** 	/*******************************************************************************
 821:.\Generated_Source\PSoC4/CapSense_CSD.c **** 	* Function Name: CapSense_CSD_SetScanResolution
 822:.\Generated_Source\PSoC4/CapSense_CSD.c **** 	********************************************************************************
 823:.\Generated_Source\PSoC4/CapSense_CSD.c **** 	*
 824:.\Generated_Source\PSoC4/CapSense_CSD.c **** 	* Summary:
 825:.\Generated_Source\PSoC4/CapSense_CSD.c **** 	*  Sets a value of the sensor scan resolution for a widget. 
 826:.\Generated_Source\PSoC4/CapSense_CSD.c **** 	*  The MIN resolution can be set 8-bit. The MAX Resolution can be set 16 bit.
 827:.\Generated_Source\PSoC4/CapSense_CSD.c **** 	*  This function is not available for the tuning mode "None".
 828:.\Generated_Source\PSoC4/CapSense_CSD.c **** 	*
 829:.\Generated_Source\PSoC4/CapSense_CSD.c **** 	* Parameters:
 830:.\Generated_Source\PSoC4/CapSense_CSD.c **** 	*  widget:     Widget index.
 831:.\Generated_Source\PSoC4/CapSense_CSD.c **** 	*  resolution: Represents the resolution value. The following defines which are available in the
 832:.\Generated_Source\PSoC4/CapSense_CSD.c **** 	*			   CapSense_CSD.h file should be used:
 833:.\Generated_Source\PSoC4/CapSense_CSD.c **** 	*			   CapSense_CSD_RESOLUTION_6_BITS
 834:.\Generated_Source\PSoC4/CapSense_CSD.c **** 	*			   CapSense_CSD_RESOLUTION_7_BITS
 835:.\Generated_Source\PSoC4/CapSense_CSD.c **** 	*			   CapSense_CSD_RESOLUTION_8_BITS
 836:.\Generated_Source\PSoC4/CapSense_CSD.c **** 	*			   CapSense_CSD_RESOLUTION_9_BITS
ARM GAS  C:\Users\gsgill\AppData\Local\Temp\cc60Ptud.s 			page 33


 837:.\Generated_Source\PSoC4/CapSense_CSD.c **** 	*			   CapSense_CSD_RESOLUTION_10_BITS
 838:.\Generated_Source\PSoC4/CapSense_CSD.c **** 	*			   CapSense_CSD_RESOLUTION_11_BITS
 839:.\Generated_Source\PSoC4/CapSense_CSD.c **** 	*			   CapSense_CSD_RESOLUTION_12_BITS
 840:.\Generated_Source\PSoC4/CapSense_CSD.c **** 	*			   CapSense_CSD_RESOLUTION_13_BITS
 841:.\Generated_Source\PSoC4/CapSense_CSD.c **** 	*			   CapSense_CSD_RESOLUTION_14_BITS
 842:.\Generated_Source\PSoC4/CapSense_CSD.c **** 	*			   CapSense_CSD_RESOLUTION_15_BITS
 843:.\Generated_Source\PSoC4/CapSense_CSD.c **** 	*			   CapSense_CSD_RESOLUTION_16_BITS
 844:.\Generated_Source\PSoC4/CapSense_CSD.c **** 	*
 845:.\Generated_Source\PSoC4/CapSense_CSD.c **** 	* Return:
 846:.\Generated_Source\PSoC4/CapSense_CSD.c **** 	*  None
 847:.\Generated_Source\PSoC4/CapSense_CSD.c **** 	*
 848:.\Generated_Source\PSoC4/CapSense_CSD.c **** 	* Global Variables:
 849:.\Generated_Source\PSoC4/CapSense_CSD.c **** 	*  CapSense_CSD_widgetResolution[] - used to store scan resolution of each widget.
 850:.\Generated_Source\PSoC4/CapSense_CSD.c **** 	*
 851:.\Generated_Source\PSoC4/CapSense_CSD.c **** 	* Side Effects: 
 852:.\Generated_Source\PSoC4/CapSense_CSD.c **** 	*  None
 853:.\Generated_Source\PSoC4/CapSense_CSD.c **** 	*
 854:.\Generated_Source\PSoC4/CapSense_CSD.c **** 	*******************************************************************************/
 855:.\Generated_Source\PSoC4/CapSense_CSD.c **** 	void CapSense_CSD_SetScanResolution(uint32 widget, uint32 resolution)
 856:.\Generated_Source\PSoC4/CapSense_CSD.c **** 	{ 
 977              		.loc 1 856 0
 978              		.cfi_startproc
 979 0000 80B5     		push	{r7, lr}
 980              		.cfi_def_cfa_offset 8
 981              		.cfi_offset 7, -8
 982              		.cfi_offset 14, -4
 983 0002 82B0     		sub	sp, sp, #8
 984              		.cfi_def_cfa_offset 16
 985 0004 00AF     		add	r7, sp, #0
 986              		.cfi_def_cfa_register 7
 987 0006 7860     		str	r0, [r7, #4]
 988 0008 3960     		str	r1, [r7]
 857:.\Generated_Source\PSoC4/CapSense_CSD.c ****         CapSense_CSD_widgetResolution[widget] = resolution;
 989              		.loc 1 857 0
 990 000a 044B     		ldr	r3, .L56
 991 000c 7A68     		ldr	r2, [r7, #4]
 992 000e 9200     		lsl	r2, r2, #2
 993 0010 3968     		ldr	r1, [r7]
 994 0012 D150     		str	r1, [r2, r3]
 858:.\Generated_Source\PSoC4/CapSense_CSD.c **** 	}
 995              		.loc 1 858 0
 996 0014 BD46     		mov	sp, r7
 997 0016 02B0     		add	sp, sp, #8
 998              		@ sp needed
 999 0018 80BD     		pop	{r7, pc}
 1000              	.L57:
 1001 001a C046     		.align	2
 1002              	.L56:
 1003 001c 00000000 		.word	CapSense_CSD_widgetResolution
 1004              		.cfi_endproc
 1005              	.LFE45:
 1006              		.size	CapSense_CSD_SetScanResolution, .-CapSense_CSD_SetScanResolution
 1007              		.section	.text.CapSense_CSD_GetScanResolution,"ax",%progbits
 1008              		.align	2
 1009              		.global	CapSense_CSD_GetScanResolution
 1010              		.code	16
 1011              		.thumb_func
ARM GAS  C:\Users\gsgill\AppData\Local\Temp\cc60Ptud.s 			page 34


 1012              		.type	CapSense_CSD_GetScanResolution, %function
 1013              	CapSense_CSD_GetScanResolution:
 1014              	.LFB46:
 859:.\Generated_Source\PSoC4/CapSense_CSD.c **** #endif /* (CapSense_CSD_TUNING_METHOD != CapSense_CSD__TUNING_NONE) */
 860:.\Generated_Source\PSoC4/CapSense_CSD.c **** 
 861:.\Generated_Source\PSoC4/CapSense_CSD.c **** 
 862:.\Generated_Source\PSoC4/CapSense_CSD.c **** /*******************************************************************************
 863:.\Generated_Source\PSoC4/CapSense_CSD.c **** * Function Name: CapSense_CSD_GetScanResolution
 864:.\Generated_Source\PSoC4/CapSense_CSD.c **** ********************************************************************************
 865:.\Generated_Source\PSoC4/CapSense_CSD.c **** *
 866:.\Generated_Source\PSoC4/CapSense_CSD.c **** * Summary:
 867:.\Generated_Source\PSoC4/CapSense_CSD.c **** *  Returns the resolution value for the appropriate sensor.
 868:.\Generated_Source\PSoC4/CapSense_CSD.c **** *  This function is not available for tuning mode "None".
 869:.\Generated_Source\PSoC4/CapSense_CSD.c **** *
 870:.\Generated_Source\PSoC4/CapSense_CSD.c **** * Parameters:
 871:.\Generated_Source\PSoC4/CapSense_CSD.c **** *  widget:     Widget index.
 872:.\Generated_Source\PSoC4/CapSense_CSD.c **** *
 873:.\Generated_Source\PSoC4/CapSense_CSD.c **** * Return:
 874:.\Generated_Source\PSoC4/CapSense_CSD.c **** *  resolution: Returns the resolution value for the appropriate sensor. 
 875:.\Generated_Source\PSoC4/CapSense_CSD.c **** *              The resolution values are defined in the CapSense_CSD.h file 
 876:.\Generated_Source\PSoC4/CapSense_CSD.c **** *              The defines are encountered below:
 877:.\Generated_Source\PSoC4/CapSense_CSD.c **** *			   CapSense_CSD_RESOLUTION_6_BITS
 878:.\Generated_Source\PSoC4/CapSense_CSD.c **** *			   CapSense_CSD_RESOLUTION_7_BITS
 879:.\Generated_Source\PSoC4/CapSense_CSD.c **** *			   CapSense_CSD_RESOLUTION_8_BITS
 880:.\Generated_Source\PSoC4/CapSense_CSD.c **** *			   CapSense_CSD_RESOLUTION_9_BITS
 881:.\Generated_Source\PSoC4/CapSense_CSD.c **** *			   CapSense_CSD_RESOLUTION_10_BITS
 882:.\Generated_Source\PSoC4/CapSense_CSD.c **** *			   CapSense_CSD_RESOLUTION_11_BITS
 883:.\Generated_Source\PSoC4/CapSense_CSD.c **** *			   CapSense_CSD_RESOLUTION_12_BITS
 884:.\Generated_Source\PSoC4/CapSense_CSD.c **** *			   CapSense_CSD_RESOLUTION_13_BITS
 885:.\Generated_Source\PSoC4/CapSense_CSD.c **** *			   CapSense_CSD_RESOLUTION_14_BITS
 886:.\Generated_Source\PSoC4/CapSense_CSD.c **** *			   CapSense_CSD_RESOLUTION_15_BITS
 887:.\Generated_Source\PSoC4/CapSense_CSD.c **** *			   CapSense_CSD_RESOLUTION_16_BITS
 888:.\Generated_Source\PSoC4/CapSense_CSD.c **** *
 889:.\Generated_Source\PSoC4/CapSense_CSD.c **** * Global Variables:
 890:.\Generated_Source\PSoC4/CapSense_CSD.c **** *  CapSense_CSD_widgetResolution[] - used to store scan resolution of every widget.
 891:.\Generated_Source\PSoC4/CapSense_CSD.c **** *
 892:.\Generated_Source\PSoC4/CapSense_CSD.c **** * Side Effects: 
 893:.\Generated_Source\PSoC4/CapSense_CSD.c **** *  None
 894:.\Generated_Source\PSoC4/CapSense_CSD.c **** *
 895:.\Generated_Source\PSoC4/CapSense_CSD.c **** *******************************************************************************/
 896:.\Generated_Source\PSoC4/CapSense_CSD.c **** uint32 CapSense_CSD_GetScanResolution(uint32 widget)
 897:.\Generated_Source\PSoC4/CapSense_CSD.c **** {
 1015              		.loc 1 897 0
 1016              		.cfi_startproc
 1017 0000 80B5     		push	{r7, lr}
 1018              		.cfi_def_cfa_offset 8
 1019              		.cfi_offset 7, -8
 1020              		.cfi_offset 14, -4
 1021 0002 82B0     		sub	sp, sp, #8
 1022              		.cfi_def_cfa_offset 16
 1023 0004 00AF     		add	r7, sp, #0
 1024              		.cfi_def_cfa_register 7
 1025 0006 7860     		str	r0, [r7, #4]
 898:.\Generated_Source\PSoC4/CapSense_CSD.c **** 	return(CapSense_CSD_widgetResolution[widget]);
 1026              		.loc 1 898 0
 1027 0008 034B     		ldr	r3, .L60
 1028 000a 7A68     		ldr	r2, [r7, #4]
ARM GAS  C:\Users\gsgill\AppData\Local\Temp\cc60Ptud.s 			page 35


 1029 000c 9200     		lsl	r2, r2, #2
 1030 000e D358     		ldr	r3, [r2, r3]
 899:.\Generated_Source\PSoC4/CapSense_CSD.c **** }
 1031              		.loc 1 899 0
 1032 0010 181C     		mov	r0, r3
 1033 0012 BD46     		mov	sp, r7
 1034 0014 02B0     		add	sp, sp, #8
 1035              		@ sp needed
 1036 0016 80BD     		pop	{r7, pc}
 1037              	.L61:
 1038              		.align	2
 1039              	.L60:
 1040 0018 00000000 		.word	CapSense_CSD_widgetResolution
 1041              		.cfi_endproc
 1042              	.LFE46:
 1043              		.size	CapSense_CSD_GetScanResolution, .-CapSense_CSD_GetScanResolution
 1044              		.section	.text.CapSense_CSD_ClearSensors,"ax",%progbits
 1045              		.align	2
 1046              		.global	CapSense_CSD_ClearSensors
 1047              		.code	16
 1048              		.thumb_func
 1049              		.type	CapSense_CSD_ClearSensors, %function
 1050              	CapSense_CSD_ClearSensors:
 1051              	.LFB47:
 900:.\Generated_Source\PSoC4/CapSense_CSD.c **** 
 901:.\Generated_Source\PSoC4/CapSense_CSD.c **** 
 902:.\Generated_Source\PSoC4/CapSense_CSD.c **** /*******************************************************************************
 903:.\Generated_Source\PSoC4/CapSense_CSD.c **** * Function Name: CapSense_CSD_ClearSensors
 904:.\Generated_Source\PSoC4/CapSense_CSD.c **** ********************************************************************************
 905:.\Generated_Source\PSoC4/CapSense_CSD.c **** *
 906:.\Generated_Source\PSoC4/CapSense_CSD.c **** * Summary:
 907:.\Generated_Source\PSoC4/CapSense_CSD.c **** *  Resets all the sensors to the non-sampling state by sequentially disconnecting
 908:.\Generated_Source\PSoC4/CapSense_CSD.c **** *  all the sensors from Analog MUX Bus and putting them to an inactive state.
 909:.\Generated_Source\PSoC4/CapSense_CSD.c **** *
 910:.\Generated_Source\PSoC4/CapSense_CSD.c **** * Parameters:
 911:.\Generated_Source\PSoC4/CapSense_CSD.c **** *  None
 912:.\Generated_Source\PSoC4/CapSense_CSD.c **** *
 913:.\Generated_Source\PSoC4/CapSense_CSD.c **** * Return:
 914:.\Generated_Source\PSoC4/CapSense_CSD.c **** *  None
 915:.\Generated_Source\PSoC4/CapSense_CSD.c **** *
 916:.\Generated_Source\PSoC4/CapSense_CSD.c **** * Global Variables:
 917:.\Generated_Source\PSoC4/CapSense_CSD.c **** *  None
 918:.\Generated_Source\PSoC4/CapSense_CSD.c **** *
 919:.\Generated_Source\PSoC4/CapSense_CSD.c **** * Side Effects: 
 920:.\Generated_Source\PSoC4/CapSense_CSD.c **** *  None
 921:.\Generated_Source\PSoC4/CapSense_CSD.c **** *
 922:.\Generated_Source\PSoC4/CapSense_CSD.c **** *******************************************************************************/
 923:.\Generated_Source\PSoC4/CapSense_CSD.c **** void CapSense_CSD_ClearSensors(void)
 924:.\Generated_Source\PSoC4/CapSense_CSD.c **** {
 1052              		.loc 1 924 0
 1053              		.cfi_startproc
 1054 0000 80B5     		push	{r7, lr}
 1055              		.cfi_def_cfa_offset 8
 1056              		.cfi_offset 7, -8
 1057              		.cfi_offset 14, -4
 1058 0002 82B0     		sub	sp, sp, #8
 1059              		.cfi_def_cfa_offset 16
ARM GAS  C:\Users\gsgill\AppData\Local\Temp\cc60Ptud.s 			page 36


 1060 0004 00AF     		add	r7, sp, #0
 1061              		.cfi_def_cfa_register 7
 925:.\Generated_Source\PSoC4/CapSense_CSD.c **** 	uint32 snsIndex;
 926:.\Generated_Source\PSoC4/CapSense_CSD.c **** 	
 927:.\Generated_Source\PSoC4/CapSense_CSD.c ****     for (snsIndex = 0u; snsIndex < CapSense_CSD_TOTAL_SENSOR_COUNT; snsIndex++)
 1062              		.loc 1 927 0
 1063 0006 0023     		mov	r3, #0
 1064 0008 7B60     		str	r3, [r7, #4]
 1065 000a 06E0     		b	.L63
 1066              	.L64:
 928:.\Generated_Source\PSoC4/CapSense_CSD.c ****     {
 929:.\Generated_Source\PSoC4/CapSense_CSD.c ****         CapSense_CSD_DisableScanSlot(snsIndex);
 1067              		.loc 1 929 0 discriminator 2
 1068 000c 7B68     		ldr	r3, [r7, #4]
 1069 000e 181C     		mov	r0, r3
 1070 0010 FFF7FEFF 		bl	CapSense_CSD_DisableSensor
 927:.\Generated_Source\PSoC4/CapSense_CSD.c ****     for (snsIndex = 0u; snsIndex < CapSense_CSD_TOTAL_SENSOR_COUNT; snsIndex++)
 1071              		.loc 1 927 0 discriminator 2
 1072 0014 7B68     		ldr	r3, [r7, #4]
 1073 0016 0133     		add	r3, r3, #1
 1074 0018 7B60     		str	r3, [r7, #4]
 1075              	.L63:
 927:.\Generated_Source\PSoC4/CapSense_CSD.c ****     for (snsIndex = 0u; snsIndex < CapSense_CSD_TOTAL_SENSOR_COUNT; snsIndex++)
 1076              		.loc 1 927 0 is_stmt 0 discriminator 1
 1077 001a 7B68     		ldr	r3, [r7, #4]
 1078 001c 0B2B     		cmp	r3, #11
 1079 001e F5D9     		bls	.L64
 930:.\Generated_Source\PSoC4/CapSense_CSD.c ****     }
 931:.\Generated_Source\PSoC4/CapSense_CSD.c **** }
 1080              		.loc 1 931 0 is_stmt 1
 1081 0020 BD46     		mov	sp, r7
 1082 0022 02B0     		add	sp, sp, #8
 1083              		@ sp needed
 1084 0024 80BD     		pop	{r7, pc}
 1085              		.cfi_endproc
 1086              	.LFE47:
 1087              		.size	CapSense_CSD_ClearSensors, .-CapSense_CSD_ClearSensors
 1088 0026 C046     		.section	.text.CapSense_CSD_EnableSensor,"ax",%progbits
 1089              		.align	2
 1090              		.global	CapSense_CSD_EnableSensor
 1091              		.code	16
 1092              		.thumb_func
 1093              		.type	CapSense_CSD_EnableSensor, %function
 1094              	CapSense_CSD_EnableSensor:
 1095              	.LFB48:
 932:.\Generated_Source\PSoC4/CapSense_CSD.c **** 
 933:.\Generated_Source\PSoC4/CapSense_CSD.c **** 
 934:.\Generated_Source\PSoC4/CapSense_CSD.c **** #if (CapSense_CSD_IS_COMPLEX_SCANSLOTS)
 935:.\Generated_Source\PSoC4/CapSense_CSD.c ****     /*******************************************************************************
 936:.\Generated_Source\PSoC4/CapSense_CSD.c ****     * Function Name: CapSense_CSD_EnableScanSlot
 937:.\Generated_Source\PSoC4/CapSense_CSD.c ****     ********************************************************************************
 938:.\Generated_Source\PSoC4/CapSense_CSD.c ****     *
 939:.\Generated_Source\PSoC4/CapSense_CSD.c ****     * Summary:
 940:.\Generated_Source\PSoC4/CapSense_CSD.c ****     *  Configures the selected slot to measure during the next measurement 
 941:.\Generated_Source\PSoC4/CapSense_CSD.c ****     *  cycle. The corresponding pin/pins are set to Analog High-Z mode and 
 942:.\Generated_Source\PSoC4/CapSense_CSD.c ****     *  connected to the Analog Mux Bus. This also enables the comparator function.
 943:.\Generated_Source\PSoC4/CapSense_CSD.c ****     *
ARM GAS  C:\Users\gsgill\AppData\Local\Temp\cc60Ptud.s 			page 37


 944:.\Generated_Source\PSoC4/CapSense_CSD.c ****     * Parameters:
 945:.\Generated_Source\PSoC4/CapSense_CSD.c ****     *  slot:  Slot number.
 946:.\Generated_Source\PSoC4/CapSense_CSD.c ****     *
 947:.\Generated_Source\PSoC4/CapSense_CSD.c ****     * Return:
 948:.\Generated_Source\PSoC4/CapSense_CSD.c ****     *  None
 949:.\Generated_Source\PSoC4/CapSense_CSD.c ****     *
 950:.\Generated_Source\PSoC4/CapSense_CSD.c ****     * Global Constants:
 951:.\Generated_Source\PSoC4/CapSense_CSD.c ****     *  CapSense_CSD_portTable[]  - used to store the port number that pin 
 952:.\Generated_Source\PSoC4/CapSense_CSD.c ****     *  belongs to for each sensor.
 953:.\Generated_Source\PSoC4/CapSense_CSD.c ****     *  CapSense_CSD_maskTable[]  - used to store the pin within the port for 
 954:.\Generated_Source\PSoC4/CapSense_CSD.c ****     *  each sensor.
 955:.\Generated_Source\PSoC4/CapSense_CSD.c ****     *  CapSense_CSD_indexTable[] - used to store indexes of complex sensors.
 956:.\Generated_Source\PSoC4/CapSense_CSD.c ****     *  The offset and position in this array are stored in a port and mask table for 
 957:.\Generated_Source\PSoC4/CapSense_CSD.c ****     *  complex sensors.
 958:.\Generated_Source\PSoC4/CapSense_CSD.c ****     *  Bit 7 (msb) is used to define the sensor type: single or complex.
 959:.\Generated_Source\PSoC4/CapSense_CSD.c ****     *
 960:.\Generated_Source\PSoC4/CapSense_CSD.c **** 	* Side Effects: 
 961:.\Generated_Source\PSoC4/CapSense_CSD.c **** 	*  None
 962:.\Generated_Source\PSoC4/CapSense_CSD.c **** 	*
 963:.\Generated_Source\PSoC4/CapSense_CSD.c ****     *******************************************************************************/
 964:.\Generated_Source\PSoC4/CapSense_CSD.c ****     void CapSense_CSD_EnableScanSlot(uint32 slot)
 965:.\Generated_Source\PSoC4/CapSense_CSD.c ****     {
 966:.\Generated_Source\PSoC4/CapSense_CSD.c ****         uint8 j;
 967:.\Generated_Source\PSoC4/CapSense_CSD.c ****         uint8 snsNumber;
 968:.\Generated_Source\PSoC4/CapSense_CSD.c ****         const uint8 *index;
 969:.\Generated_Source\PSoC4/CapSense_CSD.c ****         /* Read sensor type: single or complex */
 970:.\Generated_Source\PSoC4/CapSense_CSD.c ****         uint8 snsType = CapSense_CSD_portTable[slot];
 971:.\Generated_Source\PSoC4/CapSense_CSD.c **** 
 972:.\Generated_Source\PSoC4/CapSense_CSD.c ****         /* Check if sensor is complex */
 973:.\Generated_Source\PSoC4/CapSense_CSD.c ****         if ((snsType & CapSense_CSD_COMPLEX_SS_FLAG) == 0u)
 974:.\Generated_Source\PSoC4/CapSense_CSD.c ****         {
 975:.\Generated_Source\PSoC4/CapSense_CSD.c ****             /* Enable sensor (single) */
 976:.\Generated_Source\PSoC4/CapSense_CSD.c ****             CapSense_CSD_EnableSensor(slot);
 977:.\Generated_Source\PSoC4/CapSense_CSD.c ****         }
 978:.\Generated_Source\PSoC4/CapSense_CSD.c ****         else
 979:.\Generated_Source\PSoC4/CapSense_CSD.c ****         {
 980:.\Generated_Source\PSoC4/CapSense_CSD.c ****             /* Enable complex sensor */
 981:.\Generated_Source\PSoC4/CapSense_CSD.c ****             snsType &= ~CapSense_CSD_COMPLEX_SS_FLAG;
 982:.\Generated_Source\PSoC4/CapSense_CSD.c ****             index = &CapSense_CSD_indexTable[snsType];
 983:.\Generated_Source\PSoC4/CapSense_CSD.c ****             snsNumber = CapSense_CSD_maskTable[slot];
 984:.\Generated_Source\PSoC4/CapSense_CSD.c ****                         
 985:.\Generated_Source\PSoC4/CapSense_CSD.c ****             for (j = 0u; j < snsNumber; j++)
 986:.\Generated_Source\PSoC4/CapSense_CSD.c ****             {
 987:.\Generated_Source\PSoC4/CapSense_CSD.c ****                 CapSense_CSD_EnableSensor(index[j]);
 988:.\Generated_Source\PSoC4/CapSense_CSD.c ****             }
 989:.\Generated_Source\PSoC4/CapSense_CSD.c ****         }
 990:.\Generated_Source\PSoC4/CapSense_CSD.c ****     }
 991:.\Generated_Source\PSoC4/CapSense_CSD.c ****     
 992:.\Generated_Source\PSoC4/CapSense_CSD.c ****     
 993:.\Generated_Source\PSoC4/CapSense_CSD.c ****     /*******************************************************************************
 994:.\Generated_Source\PSoC4/CapSense_CSD.c ****     * Function Name: CapSense_CSD_DisableScanSlot
 995:.\Generated_Source\PSoC4/CapSense_CSD.c ****     ********************************************************************************
 996:.\Generated_Source\PSoC4/CapSense_CSD.c ****     *
 997:.\Generated_Source\PSoC4/CapSense_CSD.c ****     * Summary:
 998:.\Generated_Source\PSoC4/CapSense_CSD.c ****     *  Disables the selected slot. The corresponding pin/pins is/are disconnected 
 999:.\Generated_Source\PSoC4/CapSense_CSD.c ****     *  from the Analog Mux Bus and connected to GND, High_Z or Shield electrode.
1000:.\Generated_Source\PSoC4/CapSense_CSD.c ****     *
ARM GAS  C:\Users\gsgill\AppData\Local\Temp\cc60Ptud.s 			page 38


1001:.\Generated_Source\PSoC4/CapSense_CSD.c ****     * Parameters:
1002:.\Generated_Source\PSoC4/CapSense_CSD.c ****     *  slot:  Slot number.
1003:.\Generated_Source\PSoC4/CapSense_CSD.c ****     *
1004:.\Generated_Source\PSoC4/CapSense_CSD.c ****     * Return:
1005:.\Generated_Source\PSoC4/CapSense_CSD.c ****     *  None
1006:.\Generated_Source\PSoC4/CapSense_CSD.c ****     *
1007:.\Generated_Source\PSoC4/CapSense_CSD.c ****     * Global Variables:
1008:.\Generated_Source\PSoC4/CapSense_CSD.c ****     *  CapSense_CSD_portTable[]  - used to store the port number that pin 
1009:.\Generated_Source\PSoC4/CapSense_CSD.c ****     *  belongs to for each sensor.
1010:.\Generated_Source\PSoC4/CapSense_CSD.c ****     *  CapSense_CSD_maskTable[]  - used to store the pin within the port for 
1011:.\Generated_Source\PSoC4/CapSense_CSD.c ****     *  each sensor.
1012:.\Generated_Source\PSoC4/CapSense_CSD.c ****     *  CapSense_CSD_indexTable[] - used to store indexes of complex sensors.
1013:.\Generated_Source\PSoC4/CapSense_CSD.c ****     *  The offset and position in this array are stored in a port and mask table for 
1014:.\Generated_Source\PSoC4/CapSense_CSD.c ****     *  complex sensors.
1015:.\Generated_Source\PSoC4/CapSense_CSD.c ****     *  7bit(msb) is used to define the sensor type: single or complex.
1016:.\Generated_Source\PSoC4/CapSense_CSD.c ****     *
1017:.\Generated_Source\PSoC4/CapSense_CSD.c **** 	* Side Effects: 
1018:.\Generated_Source\PSoC4/CapSense_CSD.c **** 	*  None
1019:.\Generated_Source\PSoC4/CapSense_CSD.c **** 	*
1020:.\Generated_Source\PSoC4/CapSense_CSD.c ****     *******************************************************************************/
1021:.\Generated_Source\PSoC4/CapSense_CSD.c ****     void CapSense_CSD_DisableScanSlot(uint32 slot)
1022:.\Generated_Source\PSoC4/CapSense_CSD.c ****     {
1023:.\Generated_Source\PSoC4/CapSense_CSD.c ****         uint8 j;
1024:.\Generated_Source\PSoC4/CapSense_CSD.c ****         uint8 snsNumber;
1025:.\Generated_Source\PSoC4/CapSense_CSD.c ****         const uint8 *index;
1026:.\Generated_Source\PSoC4/CapSense_CSD.c **** 
1027:.\Generated_Source\PSoC4/CapSense_CSD.c ****         /* Read sensor type: single or complex */
1028:.\Generated_Source\PSoC4/CapSense_CSD.c ****         uint8 snsType = CapSense_CSD_portTable[slot];
1029:.\Generated_Source\PSoC4/CapSense_CSD.c ****         
1030:.\Generated_Source\PSoC4/CapSense_CSD.c ****         /* Check if sensor is complex */
1031:.\Generated_Source\PSoC4/CapSense_CSD.c ****         if ((snsType & CapSense_CSD_COMPLEX_SS_FLAG) == 0u)
1032:.\Generated_Source\PSoC4/CapSense_CSD.c ****         {
1033:.\Generated_Source\PSoC4/CapSense_CSD.c ****             /* Disable sensor (single) */
1034:.\Generated_Source\PSoC4/CapSense_CSD.c ****             CapSense_CSD_DisableSensor(slot);
1035:.\Generated_Source\PSoC4/CapSense_CSD.c ****         }
1036:.\Generated_Source\PSoC4/CapSense_CSD.c ****         else
1037:.\Generated_Source\PSoC4/CapSense_CSD.c ****         {
1038:.\Generated_Source\PSoC4/CapSense_CSD.c ****             /* Disable complex sensor */
1039:.\Generated_Source\PSoC4/CapSense_CSD.c ****             snsType &= ~CapSense_CSD_COMPLEX_SS_FLAG;
1040:.\Generated_Source\PSoC4/CapSense_CSD.c ****             index = &CapSense_CSD_indexTable[snsType];
1041:.\Generated_Source\PSoC4/CapSense_CSD.c ****             snsNumber = CapSense_CSD_maskTable[slot];
1042:.\Generated_Source\PSoC4/CapSense_CSD.c ****                         
1043:.\Generated_Source\PSoC4/CapSense_CSD.c ****             for (j=0; j < snsNumber; j++)
1044:.\Generated_Source\PSoC4/CapSense_CSD.c ****             {
1045:.\Generated_Source\PSoC4/CapSense_CSD.c ****                 CapSense_CSD_DisableSensor(index[j]);
1046:.\Generated_Source\PSoC4/CapSense_CSD.c ****             }
1047:.\Generated_Source\PSoC4/CapSense_CSD.c ****         } 
1048:.\Generated_Source\PSoC4/CapSense_CSD.c ****     }
1049:.\Generated_Source\PSoC4/CapSense_CSD.c **** #endif  /* CapSense_CSD_IS_COMPLEX_SCANSLOTS */
1050:.\Generated_Source\PSoC4/CapSense_CSD.c **** 
1051:.\Generated_Source\PSoC4/CapSense_CSD.c **** 
1052:.\Generated_Source\PSoC4/CapSense_CSD.c **** /*******************************************************************************
1053:.\Generated_Source\PSoC4/CapSense_CSD.c **** * Function Name: CapSense_CSD_EnableSensor
1054:.\Generated_Source\PSoC4/CapSense_CSD.c **** ********************************************************************************
1055:.\Generated_Source\PSoC4/CapSense_CSD.c **** *
1056:.\Generated_Source\PSoC4/CapSense_CSD.c **** * Summary:
1057:.\Generated_Source\PSoC4/CapSense_CSD.c **** *  Configures the selected sensor to measure during the next measurement cycle.
ARM GAS  C:\Users\gsgill\AppData\Local\Temp\cc60Ptud.s 			page 39


1058:.\Generated_Source\PSoC4/CapSense_CSD.c **** *  The corresponding pins are set to Analog High-Z mode and connected to the
1059:.\Generated_Source\PSoC4/CapSense_CSD.c **** *  Analog Mux Bus. This also enables the comparator function.
1060:.\Generated_Source\PSoC4/CapSense_CSD.c **** *
1061:.\Generated_Source\PSoC4/CapSense_CSD.c **** * Parameters:
1062:.\Generated_Source\PSoC4/CapSense_CSD.c **** *  sensor:  Sensor number.
1063:.\Generated_Source\PSoC4/CapSense_CSD.c **** *
1064:.\Generated_Source\PSoC4/CapSense_CSD.c **** * Return:
1065:.\Generated_Source\PSoC4/CapSense_CSD.c **** *  None
1066:.\Generated_Source\PSoC4/CapSense_CSD.c **** *
1067:.\Generated_Source\PSoC4/CapSense_CSD.c **** * Global Variables:
1068:.\Generated_Source\PSoC4/CapSense_CSD.c **** *  CapSense_CSD_portTable[] - used to store the port number that pin 
1069:.\Generated_Source\PSoC4/CapSense_CSD.c **** *  belongs to for each sensor.
1070:.\Generated_Source\PSoC4/CapSense_CSD.c **** *  CapSense_CSD_pinShiftTbl[] - used to store position of pin that 
1071:.\Generated_Source\PSoC4/CapSense_CSD.c **** *  configured as sensor in port. 
1072:.\Generated_Source\PSoC4/CapSense_CSD.c **** *  CapSense_CSD_prtSelTbl[] - Contains pointers to the HSIOM 
1073:.\Generated_Source\PSoC4/CapSense_CSD.c **** *  registers for each port. 
1074:.\Generated_Source\PSoC4/CapSense_CSD.c **** *  CapSense_CSD_PrtCfgTb[] - Contains pointers to the port config 
1075:.\Generated_Source\PSoC4/CapSense_CSD.c **** *  registers for each port.
1076:.\Generated_Source\PSoC4/CapSense_CSD.c **** *
1077:.\Generated_Source\PSoC4/CapSense_CSD.c **** * Side Effects: 
1078:.\Generated_Source\PSoC4/CapSense_CSD.c **** *  None
1079:.\Generated_Source\PSoC4/CapSense_CSD.c **** *
1080:.\Generated_Source\PSoC4/CapSense_CSD.c **** *******************************************************************************/
1081:.\Generated_Source\PSoC4/CapSense_CSD.c **** __INLINE void CapSense_CSD_EnableSensor(uint32 sensor)
1082:.\Generated_Source\PSoC4/CapSense_CSD.c **** {
 1096              		.loc 1 1082 0
 1097              		.cfi_startproc
 1098 0000 90B5     		push	{r4, r7, lr}
 1099              		.cfi_def_cfa_offset 12
 1100              		.cfi_offset 4, -12
 1101              		.cfi_offset 7, -8
 1102              		.cfi_offset 14, -4
 1103 0002 87B0     		sub	sp, sp, #28
 1104              		.cfi_def_cfa_offset 40
 1105 0004 00AF     		add	r7, sp, #0
 1106              		.cfi_def_cfa_register 7
 1107 0006 7860     		str	r0, [r7, #4]
1083:.\Generated_Source\PSoC4/CapSense_CSD.c **** 	uint8  pinModeShift;
1084:.\Generated_Source\PSoC4/CapSense_CSD.c ****     uint8  pinHSIOMShift;
1085:.\Generated_Source\PSoC4/CapSense_CSD.c **** 	uint8 interruptState;
1086:.\Generated_Source\PSoC4/CapSense_CSD.c **** 	uint32 newRegisterValue;
1087:.\Generated_Source\PSoC4/CapSense_CSD.c ****     uint32 port;
1088:.\Generated_Source\PSoC4/CapSense_CSD.c **** 	
1089:.\Generated_Source\PSoC4/CapSense_CSD.c **** 	port = (uint32) CapSense_CSD_portTable[sensor];
 1108              		.loc 1 1089 0
 1109 0008 2C4A     		ldr	r2, .L66
 1110 000a 7B68     		ldr	r3, [r7, #4]
 1111 000c D318     		add	r3, r2, r3
 1112 000e 1B78     		ldrb	r3, [r3]
 1113 0010 7B61     		str	r3, [r7, #20]
1090:.\Generated_Source\PSoC4/CapSense_CSD.c ****     pinModeShift = CapSense_CSD_pinShiftTbl[sensor]  * CapSense_CSD_PC_PIN_CFG_SIZE;
 1114              		.loc 1 1090 0
 1115 0012 2B4A     		ldr	r2, .L66+4
 1116 0014 7B68     		ldr	r3, [r7, #4]
 1117 0016 D318     		add	r3, r2, r3
 1118 0018 1B78     		ldrb	r3, [r3]
 1119 001a 391C     		mov	r1, r7
ARM GAS  C:\Users\gsgill\AppData\Local\Temp\cc60Ptud.s 			page 40


 1120 001c 1331     		add	r1, r1, #19
 1121 001e 1A1C     		add	r2, r3, #0
 1122 0020 9218     		add	r2, r2, r2
 1123 0022 D318     		add	r3, r2, r3
 1124 0024 0B70     		strb	r3, [r1]
1091:.\Generated_Source\PSoC4/CapSense_CSD.c ****     pinHSIOMShift = CapSense_CSD_pinShiftTbl[sensor] * CapSense_CSD_HSIOM_PIN_CFG_SIZE;
 1125              		.loc 1 1091 0
 1126 0026 264A     		ldr	r2, .L66+4
 1127 0028 7B68     		ldr	r3, [r7, #4]
 1128 002a D318     		add	r3, r2, r3
 1129 002c 1A78     		ldrb	r2, [r3]
 1130 002e 3B1C     		mov	r3, r7
 1131 0030 1233     		add	r3, r3, #18
 1132 0032 9200     		lsl	r2, r2, #2
 1133 0034 1A70     		strb	r2, [r3]
1092:.\Generated_Source\PSoC4/CapSense_CSD.c **** 
1093:.\Generated_Source\PSoC4/CapSense_CSD.c **** 	interruptState = CyEnterCriticalSection();
 1134              		.loc 1 1093 0
 1135 0036 3C1C     		mov	r4, r7
 1136 0038 1134     		add	r4, r4, #17
 1137 003a FFF7FEFF 		bl	CyEnterCriticalSection
 1138 003e 031C     		mov	r3, r0
 1139 0040 2370     		strb	r3, [r4]
1094:.\Generated_Source\PSoC4/CapSense_CSD.c **** 	
1095:.\Generated_Source\PSoC4/CapSense_CSD.c **** 	newRegisterValue = *CapSense_CSD_prtSelTbl[port];
 1140              		.loc 1 1095 0
 1141 0042 204B     		ldr	r3, .L66+8
 1142 0044 7A69     		ldr	r2, [r7, #20]
 1143 0046 9200     		lsl	r2, r2, #2
 1144 0048 D358     		ldr	r3, [r2, r3]
 1145 004a 1B68     		ldr	r3, [r3]
 1146 004c FB60     		str	r3, [r7, #12]
1096:.\Generated_Source\PSoC4/CapSense_CSD.c **** 	newRegisterValue &= ~(CapSense_CSD_CSD_HSIOM_MASK << pinHSIOMShift);
 1147              		.loc 1 1096 0
 1148 004e 3B1C     		mov	r3, r7
 1149 0050 1233     		add	r3, r3, #18
 1150 0052 1B78     		ldrb	r3, [r3]
 1151 0054 0F22     		mov	r2, #15
 1152 0056 111C     		mov	r1, r2
 1153 0058 9940     		lsl	r1, r1, r3
 1154 005a 0B1C     		mov	r3, r1
 1155 005c DA43     		mvn	r2, r3
 1156 005e FB68     		ldr	r3, [r7, #12]
 1157 0060 1340     		and	r3, r2
 1158 0062 FB60     		str	r3, [r7, #12]
1097:.\Generated_Source\PSoC4/CapSense_CSD.c **** 	newRegisterValue |= (uint32)((uint32)CapSense_CSD_CSD_SENSE_PORT_MODE << pinHSIOMShift);
 1159              		.loc 1 1097 0
 1160 0064 3B1C     		mov	r3, r7
 1161 0066 1233     		add	r3, r3, #18
 1162 0068 1B78     		ldrb	r3, [r3]
 1163 006a 0422     		mov	r2, #4
 1164 006c 141C     		mov	r4, r2
 1165 006e 9C40     		lsl	r4, r4, r3
 1166 0070 231C     		mov	r3, r4
 1167 0072 FA68     		ldr	r2, [r7, #12]
 1168 0074 1343     		orr	r3, r2
 1169 0076 FB60     		str	r3, [r7, #12]
ARM GAS  C:\Users\gsgill\AppData\Local\Temp\cc60Ptud.s 			page 41


1098:.\Generated_Source\PSoC4/CapSense_CSD.c ****    
1099:.\Generated_Source\PSoC4/CapSense_CSD.c ****     *CapSense_CSD_prtCfgTbl[port] &= (uint32)~((uint32)CapSense_CSD_CSD_PIN_MODE_MASK << pinModeShi
 1170              		.loc 1 1099 0
 1171 0078 134B     		ldr	r3, .L66+12
 1172 007a 7A69     		ldr	r2, [r7, #20]
 1173 007c 9200     		lsl	r2, r2, #2
 1174 007e D358     		ldr	r3, [r2, r3]
 1175 0080 114A     		ldr	r2, .L66+12
 1176 0082 7969     		ldr	r1, [r7, #20]
 1177 0084 8900     		lsl	r1, r1, #2
 1178 0086 8A58     		ldr	r2, [r1, r2]
 1179 0088 1268     		ldr	r2, [r2]
 1180 008a 391C     		mov	r1, r7
 1181 008c 1331     		add	r1, r1, #19
 1182 008e 0978     		ldrb	r1, [r1]
 1183 0090 0720     		mov	r0, #7
 1184 0092 041C     		mov	r4, r0
 1185 0094 8C40     		lsl	r4, r4, r1
 1186 0096 211C     		mov	r1, r4
 1187 0098 C943     		mvn	r1, r1
 1188 009a 0A40     		and	r2, r1
 1189 009c 1A60     		str	r2, [r3]
1100:.\Generated_Source\PSoC4/CapSense_CSD.c ****     *CapSense_CSD_prtSelTbl[port] = newRegisterValue;
 1190              		.loc 1 1100 0
 1191 009e 094B     		ldr	r3, .L66+8
 1192 00a0 7A69     		ldr	r2, [r7, #20]
 1193 00a2 9200     		lsl	r2, r2, #2
 1194 00a4 D358     		ldr	r3, [r2, r3]
 1195 00a6 FA68     		ldr	r2, [r7, #12]
 1196 00a8 1A60     		str	r2, [r3]
1101:.\Generated_Source\PSoC4/CapSense_CSD.c **** 	
1102:.\Generated_Source\PSoC4/CapSense_CSD.c **** 	CyExitCriticalSection(interruptState);
 1197              		.loc 1 1102 0
 1198 00aa 3B1C     		mov	r3, r7
 1199 00ac 1133     		add	r3, r3, #17
 1200 00ae 1B78     		ldrb	r3, [r3]
 1201 00b0 181C     		mov	r0, r3
 1202 00b2 FFF7FEFF 		bl	CyExitCriticalSection
1103:.\Generated_Source\PSoC4/CapSense_CSD.c **** }
 1203              		.loc 1 1103 0
 1204 00b6 BD46     		mov	sp, r7
 1205 00b8 07B0     		add	sp, sp, #28
 1206              		@ sp needed
 1207 00ba 90BD     		pop	{r4, r7, pc}
 1208              	.L67:
 1209              		.align	2
 1210              	.L66:
 1211 00bc 00000000 		.word	CapSense_CSD_portTable
 1212 00c0 00000000 		.word	CapSense_CSD_pinShiftTbl
 1213 00c4 00000000 		.word	CapSense_CSD_prtSelTbl
 1214 00c8 00000000 		.word	CapSense_CSD_prtCfgTbl
 1215              		.cfi_endproc
 1216              	.LFE48:
 1217              		.size	CapSense_CSD_EnableSensor, .-CapSense_CSD_EnableSensor
 1218              		.section	.text.CapSense_CSD_DisableSensor,"ax",%progbits
 1219              		.align	2
 1220              		.global	CapSense_CSD_DisableSensor
ARM GAS  C:\Users\gsgill\AppData\Local\Temp\cc60Ptud.s 			page 42


 1221              		.code	16
 1222              		.thumb_func
 1223              		.type	CapSense_CSD_DisableSensor, %function
 1224              	CapSense_CSD_DisableSensor:
 1225              	.LFB49:
1104:.\Generated_Source\PSoC4/CapSense_CSD.c **** 
1105:.\Generated_Source\PSoC4/CapSense_CSD.c **** 
1106:.\Generated_Source\PSoC4/CapSense_CSD.c **** /*******************************************************************************
1107:.\Generated_Source\PSoC4/CapSense_CSD.c **** * Function Name: CapSense_CSD_DisableSensor
1108:.\Generated_Source\PSoC4/CapSense_CSD.c **** ********************************************************************************
1109:.\Generated_Source\PSoC4/CapSense_CSD.c **** *
1110:.\Generated_Source\PSoC4/CapSense_CSD.c **** * Summary:
1111:.\Generated_Source\PSoC4/CapSense_CSD.c **** *  Disables the selected sensor. The corresponding pin is disconnected from the
1112:.\Generated_Source\PSoC4/CapSense_CSD.c **** *  Analog Mux Bus and connected to GND, High_Z or Shield electrode.
1113:.\Generated_Source\PSoC4/CapSense_CSD.c **** *
1114:.\Generated_Source\PSoC4/CapSense_CSD.c **** * Parameters:
1115:.\Generated_Source\PSoC4/CapSense_CSD.c **** *  sensor:  Sensor number
1116:.\Generated_Source\PSoC4/CapSense_CSD.c **** *
1117:.\Generated_Source\PSoC4/CapSense_CSD.c **** * Return:
1118:.\Generated_Source\PSoC4/CapSense_CSD.c **** *  None
1119:.\Generated_Source\PSoC4/CapSense_CSD.c **** *
1120:.\Generated_Source\PSoC4/CapSense_CSD.c **** * Global Variables:
1121:.\Generated_Source\PSoC4/CapSense_CSD.c **** *  CapSense_CSD_portTable[] - used to store the port number that pin 
1122:.\Generated_Source\PSoC4/CapSense_CSD.c **** *  belongs to for each sensor.
1123:.\Generated_Source\PSoC4/CapSense_CSD.c **** *  CapSense_CSD_pinShiftTbl[] - used to store position of pin that 
1124:.\Generated_Source\PSoC4/CapSense_CSD.c **** *  configured as a sensor in the port. 
1125:.\Generated_Source\PSoC4/CapSense_CSD.c **** *  CapSense_CSD_prtSelTbl[] - Contains pointers to the HSIOM 
1126:.\Generated_Source\PSoC4/CapSense_CSD.c **** *  registers for each port. 
1127:.\Generated_Source\PSoC4/CapSense_CSD.c **** *  CapSense_CSD_PrtCfgTb[] - Contains pointers to the port config 
1128:.\Generated_Source\PSoC4/CapSense_CSD.c **** *  registers for each port.
1129:.\Generated_Source\PSoC4/CapSense_CSD.c **** *
1130:.\Generated_Source\PSoC4/CapSense_CSD.c **** * Side Effects: 
1131:.\Generated_Source\PSoC4/CapSense_CSD.c **** *  None
1132:.\Generated_Source\PSoC4/CapSense_CSD.c **** *
1133:.\Generated_Source\PSoC4/CapSense_CSD.c **** *******************************************************************************/
1134:.\Generated_Source\PSoC4/CapSense_CSD.c **** __INLINE void CapSense_CSD_DisableSensor(uint32 sensor)
1135:.\Generated_Source\PSoC4/CapSense_CSD.c **** {
 1226              		.loc 1 1135 0
 1227              		.cfi_startproc
 1228 0000 90B5     		push	{r4, r7, lr}
 1229              		.cfi_def_cfa_offset 12
 1230              		.cfi_offset 4, -12
 1231              		.cfi_offset 7, -8
 1232              		.cfi_offset 14, -4
 1233 0002 89B0     		sub	sp, sp, #36
 1234              		.cfi_def_cfa_offset 48
 1235 0004 00AF     		add	r7, sp, #0
 1236              		.cfi_def_cfa_register 7
 1237 0006 7860     		str	r0, [r7, #4]
1136:.\Generated_Source\PSoC4/CapSense_CSD.c ****     uint8 interruptState;
1137:.\Generated_Source\PSoC4/CapSense_CSD.c **** 	uint32 newRegisterValue;
1138:.\Generated_Source\PSoC4/CapSense_CSD.c **** 	
1139:.\Generated_Source\PSoC4/CapSense_CSD.c ****     uint32 port = (uint32) CapSense_CSD_portTable[sensor];
 1238              		.loc 1 1139 0
 1239 0008 3F4A     		ldr	r2, .L71
 1240 000a 7B68     		ldr	r3, [r7, #4]
 1241 000c D318     		add	r3, r2, r3
ARM GAS  C:\Users\gsgill\AppData\Local\Temp\cc60Ptud.s 			page 43


 1242 000e 1B78     		ldrb	r3, [r3]
 1243 0010 7B61     		str	r3, [r7, #20]
1140:.\Generated_Source\PSoC4/CapSense_CSD.c ****     uint8  pinHSIOMShift = CapSense_CSD_pinShiftTbl[sensor] * CapSense_CSD_HSIOM_PIN_CFG_SIZE;
 1244              		.loc 1 1140 0
 1245 0012 3E4A     		ldr	r2, .L71+4
 1246 0014 7B68     		ldr	r3, [r7, #4]
 1247 0016 D318     		add	r3, r2, r3
 1248 0018 1A78     		ldrb	r2, [r3]
 1249 001a 3B1C     		mov	r3, r7
 1250 001c 1333     		add	r3, r3, #19
 1251 001e 9200     		lsl	r2, r2, #2
 1252 0020 1A70     		strb	r2, [r3]
1141:.\Generated_Source\PSoC4/CapSense_CSD.c ****     uint8  pinModeShift = CapSense_CSD_pinShiftTbl[sensor]  * CapSense_CSD_PC_PIN_CFG_SIZE;
 1253              		.loc 1 1141 0
 1254 0022 3A4A     		ldr	r2, .L71+4
 1255 0024 7B68     		ldr	r3, [r7, #4]
 1256 0026 D318     		add	r3, r2, r3
 1257 0028 1B78     		ldrb	r3, [r3]
 1258 002a 391C     		mov	r1, r7
 1259 002c 1231     		add	r1, r1, #18
 1260 002e 1A1C     		add	r2, r3, #0
 1261 0030 9218     		add	r2, r2, r2
 1262 0032 D318     		add	r3, r2, r3
 1263 0034 0B70     		strb	r3, [r1]
1142:.\Generated_Source\PSoC4/CapSense_CSD.c **** 
1143:.\Generated_Source\PSoC4/CapSense_CSD.c **** 	uint32 inactiveConnect = CapSense_CSD_SNS_HIZANALOG_CONNECT;
 1264              		.loc 1 1143 0
 1265 0036 0023     		mov	r3, #0
 1266 0038 FB61     		str	r3, [r7, #28]
1144:.\Generated_Source\PSoC4/CapSense_CSD.c **** 	uint32 sensorState = CapSense_CSD_unscannedSnsDriveMode[sensor];
 1267              		.loc 1 1144 0
 1268 003a 354A     		ldr	r2, .L71+8
 1269 003c 7B68     		ldr	r3, [r7, #4]
 1270 003e D318     		add	r3, r2, r3
 1271 0040 1B78     		ldrb	r3, [r3]
 1272 0042 BB61     		str	r3, [r7, #24]
1145:.\Generated_Source\PSoC4/CapSense_CSD.c **** 
1146:.\Generated_Source\PSoC4/CapSense_CSD.c ****     *CapSense_CSD_prtSelTbl[port] &= ~(CapSense_CSD_CSD_HSIOM_MASK << pinHSIOMShift);
 1273              		.loc 1 1146 0
 1274 0044 334B     		ldr	r3, .L71+12
 1275 0046 7A69     		ldr	r2, [r7, #20]
 1276 0048 9200     		lsl	r2, r2, #2
 1277 004a D358     		ldr	r3, [r2, r3]
 1278 004c 314A     		ldr	r2, .L71+12
 1279 004e 7969     		ldr	r1, [r7, #20]
 1280 0050 8900     		lsl	r1, r1, #2
 1281 0052 8A58     		ldr	r2, [r1, r2]
 1282 0054 1268     		ldr	r2, [r2]
 1283 0056 391C     		mov	r1, r7
 1284 0058 1331     		add	r1, r1, #19
 1285 005a 0978     		ldrb	r1, [r1]
 1286 005c 0F20     		mov	r0, #15
 1287 005e 041C     		mov	r4, r0
 1288 0060 8C40     		lsl	r4, r4, r1
 1289 0062 211C     		mov	r1, r4
 1290 0064 C943     		mvn	r1, r1
 1291 0066 0A40     		and	r2, r1
ARM GAS  C:\Users\gsgill\AppData\Local\Temp\cc60Ptud.s 			page 44


 1292 0068 1A60     		str	r2, [r3]
1147:.\Generated_Source\PSoC4/CapSense_CSD.c **** 
1148:.\Generated_Source\PSoC4/CapSense_CSD.c **** 	#if(CapSense_CSD_IS_SHIELD_ENABLE != 0)
1149:.\Generated_Source\PSoC4/CapSense_CSD.c **** 	if(sensorState != (uint32)CapSense_CSD__SHIELD)
1150:.\Generated_Source\PSoC4/CapSense_CSD.c **** 	{
1151:.\Generated_Source\PSoC4/CapSense_CSD.c **** 	#else
1152:.\Generated_Source\PSoC4/CapSense_CSD.c **** 	    /* Connected to Ground if shield is disabled */
1153:.\Generated_Source\PSoC4/CapSense_CSD.c **** 	    if(sensorState == (uint32)CapSense_CSD__SHIELD)
 1293              		.loc 1 1153 0
 1294 006a BB69     		ldr	r3, [r7, #24]
 1295 006c 022B     		cmp	r3, #2
 1296 006e 01D1     		bne	.L69
1154:.\Generated_Source\PSoC4/CapSense_CSD.c **** 		{
1155:.\Generated_Source\PSoC4/CapSense_CSD.c **** 			sensorState = (uint32)CapSense_CSD__GROUND;
 1297              		.loc 1 1155 0
 1298 0070 0023     		mov	r3, #0
 1299 0072 BB61     		str	r3, [r7, #24]
 1300              	.L69:
1156:.\Generated_Source\PSoC4/CapSense_CSD.c **** 		}
1157:.\Generated_Source\PSoC4/CapSense_CSD.c **** 	#endif /* (CapSense_CSD_IS_SHIELD_ENABLE) */
1158:.\Generated_Source\PSoC4/CapSense_CSD.c **** 	    if(sensorState != (uint32)CapSense_CSD__HIZ_ANALOG)
 1301              		.loc 1 1158 0
 1302 0074 BB69     		ldr	r3, [r7, #24]
 1303 0076 012B     		cmp	r3, #1
 1304 0078 01D0     		beq	.L70
1159:.\Generated_Source\PSoC4/CapSense_CSD.c **** 		{   
1160:.\Generated_Source\PSoC4/CapSense_CSD.c **** 		    /* Connected to Ground */
1161:.\Generated_Source\PSoC4/CapSense_CSD.c **** 		    inactiveConnect = (uint32)CapSense_CSD_SNS_GROUND_CONNECT;
 1305              		.loc 1 1161 0
 1306 007a 0623     		mov	r3, #6
 1307 007c FB61     		str	r3, [r7, #28]
 1308              	.L70:
1162:.\Generated_Source\PSoC4/CapSense_CSD.c **** 		}
1163:.\Generated_Source\PSoC4/CapSense_CSD.c **** 		
1164:.\Generated_Source\PSoC4/CapSense_CSD.c ****         interruptState = CyEnterCriticalSection();
 1309              		.loc 1 1164 0
 1310 007e 3C1C     		mov	r4, r7
 1311 0080 1134     		add	r4, r4, #17
 1312 0082 FFF7FEFF 		bl	CyEnterCriticalSection
 1313 0086 031C     		mov	r3, r0
 1314 0088 2370     		strb	r3, [r4]
1165:.\Generated_Source\PSoC4/CapSense_CSD.c **** 
1166:.\Generated_Source\PSoC4/CapSense_CSD.c ****         /* Set drive mode */
1167:.\Generated_Source\PSoC4/CapSense_CSD.c ****     	newRegisterValue = *CapSense_CSD_prtCfgTbl[port];
 1315              		.loc 1 1167 0
 1316 008a 234B     		ldr	r3, .L71+16
 1317 008c 7A69     		ldr	r2, [r7, #20]
 1318 008e 9200     		lsl	r2, r2, #2
 1319 0090 D358     		ldr	r3, [r2, r3]
 1320 0092 1B68     		ldr	r3, [r3]
 1321 0094 FB60     		str	r3, [r7, #12]
1168:.\Generated_Source\PSoC4/CapSense_CSD.c ****     	newRegisterValue &= ~(CapSense_CSD_CSD_PIN_MODE_MASK << pinModeShift);
 1322              		.loc 1 1168 0
 1323 0096 3B1C     		mov	r3, r7
 1324 0098 1233     		add	r3, r3, #18
 1325 009a 1B78     		ldrb	r3, [r3]
 1326 009c 0722     		mov	r2, #7
ARM GAS  C:\Users\gsgill\AppData\Local\Temp\cc60Ptud.s 			page 45


 1327 009e 111C     		mov	r1, r2
 1328 00a0 9940     		lsl	r1, r1, r3
 1329 00a2 0B1C     		mov	r3, r1
 1330 00a4 DA43     		mvn	r2, r3
 1331 00a6 FB68     		ldr	r3, [r7, #12]
 1332 00a8 1340     		and	r3, r2
 1333 00aa FB60     		str	r3, [r7, #12]
1169:.\Generated_Source\PSoC4/CapSense_CSD.c ****     	newRegisterValue |=  (uint32)(inactiveConnect << pinModeShift);
 1334              		.loc 1 1169 0
 1335 00ac 3B1C     		mov	r3, r7
 1336 00ae 1233     		add	r3, r3, #18
 1337 00b0 1B78     		ldrb	r3, [r3]
 1338 00b2 FA69     		ldr	r2, [r7, #28]
 1339 00b4 141C     		mov	r4, r2
 1340 00b6 9C40     		lsl	r4, r4, r3
 1341 00b8 231C     		mov	r3, r4
 1342 00ba FA68     		ldr	r2, [r7, #12]
 1343 00bc 1343     		orr	r3, r2
 1344 00be FB60     		str	r3, [r7, #12]
1170:.\Generated_Source\PSoC4/CapSense_CSD.c ****         *CapSense_CSD_prtCfgTbl[port] =  newRegisterValue;
 1345              		.loc 1 1170 0
 1346 00c0 154B     		ldr	r3, .L71+16
 1347 00c2 7A69     		ldr	r2, [r7, #20]
 1348 00c4 9200     		lsl	r2, r2, #2
 1349 00c6 D358     		ldr	r3, [r2, r3]
 1350 00c8 FA68     		ldr	r2, [r7, #12]
 1351 00ca 1A60     		str	r2, [r3]
1171:.\Generated_Source\PSoC4/CapSense_CSD.c ****         
1172:.\Generated_Source\PSoC4/CapSense_CSD.c ****         CyExitCriticalSection(interruptState);
 1352              		.loc 1 1172 0
 1353 00cc 3B1C     		mov	r3, r7
 1354 00ce 1133     		add	r3, r3, #17
 1355 00d0 1B78     		ldrb	r3, [r3]
 1356 00d2 181C     		mov	r0, r3
 1357 00d4 FFF7FEFF 		bl	CyExitCriticalSection
1173:.\Generated_Source\PSoC4/CapSense_CSD.c **** 
1174:.\Generated_Source\PSoC4/CapSense_CSD.c ****     	*CapSense_CSD_prtDRTbl[port]  &=  (uint32)~(uint32)((uint32)1u << CapSense_CSD_pinShiftTbl[sen
 1358              		.loc 1 1174 0
 1359 00d8 104B     		ldr	r3, .L71+20
 1360 00da 7A69     		ldr	r2, [r7, #20]
 1361 00dc 9200     		lsl	r2, r2, #2
 1362 00de D358     		ldr	r3, [r2, r3]
 1363 00e0 0E4A     		ldr	r2, .L71+20
 1364 00e2 7969     		ldr	r1, [r7, #20]
 1365 00e4 8900     		lsl	r1, r1, #2
 1366 00e6 8A58     		ldr	r2, [r1, r2]
 1367 00e8 1268     		ldr	r2, [r2]
 1368 00ea 0848     		ldr	r0, .L71+4
 1369 00ec 7968     		ldr	r1, [r7, #4]
 1370 00ee 4118     		add	r1, r0, r1
 1371 00f0 0978     		ldrb	r1, [r1]
 1372 00f2 0120     		mov	r0, #1
 1373 00f4 041C     		mov	r4, r0
 1374 00f6 8C40     		lsl	r4, r4, r1
 1375 00f8 211C     		mov	r1, r4
 1376 00fa C943     		mvn	r1, r1
 1377 00fc 0A40     		and	r2, r1
ARM GAS  C:\Users\gsgill\AppData\Local\Temp\cc60Ptud.s 			page 46


 1378 00fe 1A60     		str	r2, [r3]
1175:.\Generated_Source\PSoC4/CapSense_CSD.c **** 	#if(CapSense_CSD_IS_SHIELD_ENABLE != 0)
1176:.\Generated_Source\PSoC4/CapSense_CSD.c **** 	}
1177:.\Generated_Source\PSoC4/CapSense_CSD.c **** 	else
1178:.\Generated_Source\PSoC4/CapSense_CSD.c **** 	{
1179:.\Generated_Source\PSoC4/CapSense_CSD.c **** 		/* Connect to Shield */
1180:.\Generated_Source\PSoC4/CapSense_CSD.c **** 		*CapSense_CSD_prtSelTbl[port] |= (CapSense_CSD_CSD_SHIELD_PORT_MODE << pinHSIOMShift);
1181:.\Generated_Source\PSoC4/CapSense_CSD.c **** 	}
1182:.\Generated_Source\PSoC4/CapSense_CSD.c **** 	#endif /* (CapSense_CSD_IS_SHIELD_ENABLE) */
1183:.\Generated_Source\PSoC4/CapSense_CSD.c **** }
 1379              		.loc 1 1183 0
 1380 0100 BD46     		mov	sp, r7
 1381 0102 09B0     		add	sp, sp, #36
 1382              		@ sp needed
 1383 0104 90BD     		pop	{r4, r7, pc}
 1384              	.L72:
 1385 0106 C046     		.align	2
 1386              	.L71:
 1387 0108 00000000 		.word	CapSense_CSD_portTable
 1388 010c 00000000 		.word	CapSense_CSD_pinShiftTbl
 1389 0110 00000000 		.word	CapSense_CSD_unscannedSnsDriveMode
 1390 0114 00000000 		.word	CapSense_CSD_prtSelTbl
 1391 0118 00000000 		.word	CapSense_CSD_prtCfgTbl
 1392 011c 00000000 		.word	CapSense_CSD_prtDRTbl
 1393              		.cfi_endproc
 1394              	.LFE49:
 1395              		.size	CapSense_CSD_DisableSensor, .-CapSense_CSD_DisableSensor
 1396              		.section	.text.CapSense_CSD_SetDriveModeAllPins,"ax",%progbits
 1397              		.align	2
 1398              		.global	CapSense_CSD_SetDriveModeAllPins
 1399              		.code	16
 1400              		.thumb_func
 1401              		.type	CapSense_CSD_SetDriveModeAllPins, %function
 1402              	CapSense_CSD_SetDriveModeAllPins:
 1403              	.LFB50:
1184:.\Generated_Source\PSoC4/CapSense_CSD.c **** 
1185:.\Generated_Source\PSoC4/CapSense_CSD.c **** 
1186:.\Generated_Source\PSoC4/CapSense_CSD.c **** /*******************************************************************************
1187:.\Generated_Source\PSoC4/CapSense_CSD.c **** * Function Name: CapSense_CSD_SetDriveModeAllPins
1188:.\Generated_Source\PSoC4/CapSense_CSD.c **** ********************************************************************************
1189:.\Generated_Source\PSoC4/CapSense_CSD.c **** *
1190:.\Generated_Source\PSoC4/CapSense_CSD.c **** * Summary:
1191:.\Generated_Source\PSoC4/CapSense_CSD.c **** * This API sets the drive mode of port pins used by the CapSense
1192:.\Generated_Source\PSoC4/CapSense_CSD.c **** * component (sensors, guard, shield, shield tank and Cmod) to drive the 
1193:.\Generated_Source\PSoC4/CapSense_CSD.c **** * mode specified by the argument.
1194:.\Generated_Source\PSoC4/CapSense_CSD.c **** *
1195:.\Generated_Source\PSoC4/CapSense_CSD.c **** * Parameters:
1196:.\Generated_Source\PSoC4/CapSense_CSD.c **** *  driveMode:  Drive mode definition.
1197:.\Generated_Source\PSoC4/CapSense_CSD.c **** *
1198:.\Generated_Source\PSoC4/CapSense_CSD.c **** * Return:
1199:.\Generated_Source\PSoC4/CapSense_CSD.c **** *  None
1200:.\Generated_Source\PSoC4/CapSense_CSD.c **** *
1201:.\Generated_Source\PSoC4/CapSense_CSD.c **** * Global Variables:
1202:.\Generated_Source\PSoC4/CapSense_CSD.c **** *  CapSense_CSD_portTable[] - used to store the port number that pin 
1203:.\Generated_Source\PSoC4/CapSense_CSD.c **** *  belongs to for each sensor.
1204:.\Generated_Source\PSoC4/CapSense_CSD.c **** *  CapSense_CSD_pinShiftTbl[] - used to store position of pin that 
1205:.\Generated_Source\PSoC4/CapSense_CSD.c **** *  configured as a sensor in the port. 
ARM GAS  C:\Users\gsgill\AppData\Local\Temp\cc60Ptud.s 			page 47


1206:.\Generated_Source\PSoC4/CapSense_CSD.c **** *
1207:.\Generated_Source\PSoC4/CapSense_CSD.c **** * Side Effects: 
1208:.\Generated_Source\PSoC4/CapSense_CSD.c **** *  This API shall be called only after CapSense component is stopped.
1209:.\Generated_Source\PSoC4/CapSense_CSD.c **** *
1210:.\Generated_Source\PSoC4/CapSense_CSD.c **** *******************************************************************************/
1211:.\Generated_Source\PSoC4/CapSense_CSD.c **** void CapSense_CSD_SetDriveModeAllPins(uint32 driveMode)
1212:.\Generated_Source\PSoC4/CapSense_CSD.c **** {
 1404              		.loc 1 1212 0
 1405              		.cfi_startproc
 1406 0000 80B5     		push	{r7, lr}
 1407              		.cfi_def_cfa_offset 8
 1408              		.cfi_offset 7, -8
 1409              		.cfi_offset 14, -4
 1410 0002 86B0     		sub	sp, sp, #24
 1411              		.cfi_def_cfa_offset 32
 1412 0004 00AF     		add	r7, sp, #0
 1413              		.cfi_def_cfa_register 7
 1414 0006 7860     		str	r0, [r7, #4]
1213:.\Generated_Source\PSoC4/CapSense_CSD.c **** 	uint8 curSensor;
1214:.\Generated_Source\PSoC4/CapSense_CSD.c **** 	#if (CapSense_CSD_IS_COMPLEX_SCANSLOTS)
1215:.\Generated_Source\PSoC4/CapSense_CSD.c **** 		uint8 snsNumber;
1216:.\Generated_Source\PSoC4/CapSense_CSD.c **** 		uint8 snsType;
1217:.\Generated_Source\PSoC4/CapSense_CSD.c **** 	#endif  /* CapSense_CSD_IS_COMPLEX_SCANSLOTS */
1218:.\Generated_Source\PSoC4/CapSense_CSD.c **** 	uint32 prtNumberTmp;
1219:.\Generated_Source\PSoC4/CapSense_CSD.c **** 	uint32 pinNumberTmp;
1220:.\Generated_Source\PSoC4/CapSense_CSD.c **** 
1221:.\Generated_Source\PSoC4/CapSense_CSD.c **** 	for(curSensor = 0u; curSensor < CapSense_CSD_TOTAL_SENSOR_COUNT; curSensor++)
 1415              		.loc 1 1221 0
 1416 0008 3B1C     		mov	r3, r7
 1417 000a 1733     		add	r3, r3, #23
 1418 000c 0022     		mov	r2, #0
 1419 000e 1A70     		strb	r2, [r3]
 1420 0010 1AE0     		b	.L74
 1421              	.L75:
1222:.\Generated_Source\PSoC4/CapSense_CSD.c **** 	{	
1223:.\Generated_Source\PSoC4/CapSense_CSD.c **** 		#if (CapSense_CSD_IS_COMPLEX_SCANSLOTS)
1224:.\Generated_Source\PSoC4/CapSense_CSD.c **** 			/* Read sensor type: single or complex */
1225:.\Generated_Source\PSoC4/CapSense_CSD.c **** 			snsType = CapSense_CSD_portTable[curSensor];
1226:.\Generated_Source\PSoC4/CapSense_CSD.c **** 		
1227:.\Generated_Source\PSoC4/CapSense_CSD.c **** 			/* Check if sensor is complex */
1228:.\Generated_Source\PSoC4/CapSense_CSD.c **** 			if ((snsType & CapSense_CSD_COMPLEX_SS_FLAG) == 0u)
1229:.\Generated_Source\PSoC4/CapSense_CSD.c **** 			{
1230:.\Generated_Source\PSoC4/CapSense_CSD.c **** 				/* The sensor is not complex */
1231:.\Generated_Source\PSoC4/CapSense_CSD.c **** 				snsNumber = curSensor;
1232:.\Generated_Source\PSoC4/CapSense_CSD.c **** 			}
1233:.\Generated_Source\PSoC4/CapSense_CSD.c **** 			else
1234:.\Generated_Source\PSoC4/CapSense_CSD.c **** 			{
1235:.\Generated_Source\PSoC4/CapSense_CSD.c **** 				/* Get dedicated sensor ID of the complex sensor */
1236:.\Generated_Source\PSoC4/CapSense_CSD.c **** 				snsType &= ~CapSense_CSD_COMPLEX_SS_FLAG;
1237:.\Generated_Source\PSoC4/CapSense_CSD.c **** 				snsNumber = CapSense_CSD_indexTable[snsType];
1238:.\Generated_Source\PSoC4/CapSense_CSD.c **** 			}
1239:.\Generated_Source\PSoC4/CapSense_CSD.c **** 
1240:.\Generated_Source\PSoC4/CapSense_CSD.c **** 			prtNumberTmp = CapSense_CSD_portTable[snsNumber];
1241:.\Generated_Source\PSoC4/CapSense_CSD.c **** 			pinNumberTmp = CapSense_CSD_pinShiftTbl[snsNumber];
1242:.\Generated_Source\PSoC4/CapSense_CSD.c **** 		#else
1243:.\Generated_Source\PSoC4/CapSense_CSD.c **** 			prtNumberTmp = CapSense_CSD_portTable[curSensor];
 1422              		.loc 1 1243 0 discriminator 2
ARM GAS  C:\Users\gsgill\AppData\Local\Temp\cc60Ptud.s 			page 48


 1423 0012 3B1C     		mov	r3, r7
 1424 0014 1733     		add	r3, r3, #23
 1425 0016 1B78     		ldrb	r3, [r3]
 1426 0018 124A     		ldr	r2, .L76
 1427 001a D35C     		ldrb	r3, [r2, r3]
 1428 001c 3B61     		str	r3, [r7, #16]
1244:.\Generated_Source\PSoC4/CapSense_CSD.c **** 			pinNumberTmp = CapSense_CSD_pinShiftTbl[curSensor];
 1429              		.loc 1 1244 0 discriminator 2
 1430 001e 3B1C     		mov	r3, r7
 1431 0020 1733     		add	r3, r3, #23
 1432 0022 1B78     		ldrb	r3, [r3]
 1433 0024 104A     		ldr	r2, .L76+4
 1434 0026 D35C     		ldrb	r3, [r2, r3]
 1435 0028 FB60     		str	r3, [r7, #12]
1245:.\Generated_Source\PSoC4/CapSense_CSD.c **** 		#endif  /* CapSense_CSD_IS_COMPLEX_SCANSLOTS */
1246:.\Generated_Source\PSoC4/CapSense_CSD.c **** 	
1247:.\Generated_Source\PSoC4/CapSense_CSD.c **** 		CapSense_CSD_SetPinDriveMode(driveMode, pinNumberTmp, prtNumberTmp);
 1436              		.loc 1 1247 0 discriminator 2
 1437 002a 7968     		ldr	r1, [r7, #4]
 1438 002c FA68     		ldr	r2, [r7, #12]
 1439 002e 3B69     		ldr	r3, [r7, #16]
 1440 0030 081C     		mov	r0, r1
 1441 0032 111C     		mov	r1, r2
 1442 0034 1A1C     		mov	r2, r3
 1443 0036 FFF7FEFF 		bl	CapSense_CSD_SetPinDriveMode
1221:.\Generated_Source\PSoC4/CapSense_CSD.c **** 	for(curSensor = 0u; curSensor < CapSense_CSD_TOTAL_SENSOR_COUNT; curSensor++)
 1444              		.loc 1 1221 0 discriminator 2
 1445 003a 3B1C     		mov	r3, r7
 1446 003c 1733     		add	r3, r3, #23
 1447 003e 1A78     		ldrb	r2, [r3]
 1448 0040 3B1C     		mov	r3, r7
 1449 0042 1733     		add	r3, r3, #23
 1450 0044 0132     		add	r2, r2, #1
 1451 0046 1A70     		strb	r2, [r3]
 1452              	.L74:
1221:.\Generated_Source\PSoC4/CapSense_CSD.c **** 	for(curSensor = 0u; curSensor < CapSense_CSD_TOTAL_SENSOR_COUNT; curSensor++)
 1453              		.loc 1 1221 0 is_stmt 0 discriminator 1
 1454 0048 3B1C     		mov	r3, r7
 1455 004a 1733     		add	r3, r3, #23
 1456 004c 1B78     		ldrb	r3, [r3]
 1457 004e 0B2B     		cmp	r3, #11
 1458 0050 DFD9     		bls	.L75
1248:.\Generated_Source\PSoC4/CapSense_CSD.c **** 	}
1249:.\Generated_Source\PSoC4/CapSense_CSD.c **** 	
1250:.\Generated_Source\PSoC4/CapSense_CSD.c **** 	CapSense_CSD_SetPinDriveMode(driveMode, (uint32)CapSense_CSD_CMOD_PIN_NUMBER, (uint32)CapSense_CSD
 1459              		.loc 1 1250 0 is_stmt 1
 1460 0052 7B68     		ldr	r3, [r7, #4]
 1461 0054 181C     		mov	r0, r3
 1462 0056 0221     		mov	r1, #2
 1463 0058 0422     		mov	r2, #4
 1464 005a FFF7FEFF 		bl	CapSense_CSD_SetPinDriveMode
1251:.\Generated_Source\PSoC4/CapSense_CSD.c **** 	
1252:.\Generated_Source\PSoC4/CapSense_CSD.c **** 	#if(0u != CapSense_CSD_CSH_TANK_ENABLE)
1253:.\Generated_Source\PSoC4/CapSense_CSD.c **** 		CapSense_CSD_SetPinDriveMode(driveMode, (uint32)CapSense_CSD_CTANK_PIN_NUMBER, (uint32)CapSense_C
1254:.\Generated_Source\PSoC4/CapSense_CSD.c **** 	#endif /* (0u != CapSense_CSD_CSH_TANK_ENABLE) */	
1255:.\Generated_Source\PSoC4/CapSense_CSD.c **** 	
1256:.\Generated_Source\PSoC4/CapSense_CSD.c **** 	#if(0u != CapSense_CSD_IS_SHIELD_ENABLE)
ARM GAS  C:\Users\gsgill\AppData\Local\Temp\cc60Ptud.s 			page 49


1257:.\Generated_Source\PSoC4/CapSense_CSD.c **** 		CapSense_CSD_SetPinDriveMode(driveMode, (uint32)CapSense_CSD_SHIELD_PIN_NUMBER, (uint32)CapSense_
1258:.\Generated_Source\PSoC4/CapSense_CSD.c **** 	#endif /* (0u != CapSense_CSD_IS_SHIELD_ENABLE) */	
1259:.\Generated_Source\PSoC4/CapSense_CSD.c **** }
 1465              		.loc 1 1259 0
 1466 005e BD46     		mov	sp, r7
 1467 0060 06B0     		add	sp, sp, #24
 1468              		@ sp needed
 1469 0062 80BD     		pop	{r7, pc}
 1470              	.L77:
 1471              		.align	2
 1472              	.L76:
 1473 0064 00000000 		.word	CapSense_CSD_portTable
 1474 0068 00000000 		.word	CapSense_CSD_pinShiftTbl
 1475              		.cfi_endproc
 1476              	.LFE50:
 1477              		.size	CapSense_CSD_SetDriveModeAllPins, .-CapSense_CSD_SetDriveModeAllPins
 1478              		.section	.text.CapSense_CSD_RestoreDriveModeAllPins,"ax",%progbits
 1479              		.align	2
 1480              		.global	CapSense_CSD_RestoreDriveModeAllPins
 1481              		.code	16
 1482              		.thumb_func
 1483              		.type	CapSense_CSD_RestoreDriveModeAllPins, %function
 1484              	CapSense_CSD_RestoreDriveModeAllPins:
 1485              	.LFB51:
1260:.\Generated_Source\PSoC4/CapSense_CSD.c **** 
1261:.\Generated_Source\PSoC4/CapSense_CSD.c **** 
1262:.\Generated_Source\PSoC4/CapSense_CSD.c **** /*******************************************************************************
1263:.\Generated_Source\PSoC4/CapSense_CSD.c **** * Function Name: CapSense_CSD_RestoreDriveModeAllPins
1264:.\Generated_Source\PSoC4/CapSense_CSD.c **** ********************************************************************************
1265:.\Generated_Source\PSoC4/CapSense_CSD.c **** *
1266:.\Generated_Source\PSoC4/CapSense_CSD.c **** * Summary:
1267:.\Generated_Source\PSoC4/CapSense_CSD.c **** *  This API restores the drive for all the CapSense port pins to the original
1268:.\Generated_Source\PSoC4/CapSense_CSD.c **** *  state.
1269:.\Generated_Source\PSoC4/CapSense_CSD.c **** *
1270:.\Generated_Source\PSoC4/CapSense_CSD.c **** * Parameters:
1271:.\Generated_Source\PSoC4/CapSense_CSD.c **** *  None
1272:.\Generated_Source\PSoC4/CapSense_CSD.c **** *
1273:.\Generated_Source\PSoC4/CapSense_CSD.c **** * Return:
1274:.\Generated_Source\PSoC4/CapSense_CSD.c **** *  None
1275:.\Generated_Source\PSoC4/CapSense_CSD.c **** *
1276:.\Generated_Source\PSoC4/CapSense_CSD.c **** * Global Variables:
1277:.\Generated_Source\PSoC4/CapSense_CSD.c **** *  CapSense_CSD_prtSelTbl[] - Contains pointers to the HSIOM 
1278:.\Generated_Source\PSoC4/CapSense_CSD.c **** *  registers for each port. 
1279:.\Generated_Source\PSoC4/CapSense_CSD.c **** *
1280:.\Generated_Source\PSoC4/CapSense_CSD.c **** * Side Effects: 
1281:.\Generated_Source\PSoC4/CapSense_CSD.c **** *  This API is called only after the CapSense component is stopped.
1282:.\Generated_Source\PSoC4/CapSense_CSD.c **** *
1283:.\Generated_Source\PSoC4/CapSense_CSD.c **** *******************************************************************************/
1284:.\Generated_Source\PSoC4/CapSense_CSD.c **** void CapSense_CSD_RestoreDriveModeAllPins(void)
1285:.\Generated_Source\PSoC4/CapSense_CSD.c **** {
 1486              		.loc 1 1285 0
 1487              		.cfi_startproc
 1488 0000 80B5     		push	{r7, lr}
 1489              		.cfi_def_cfa_offset 8
 1490              		.cfi_offset 7, -8
 1491              		.cfi_offset 14, -4
 1492 0002 82B0     		sub	sp, sp, #8
ARM GAS  C:\Users\gsgill\AppData\Local\Temp\cc60Ptud.s 			page 50


 1493              		.cfi_def_cfa_offset 16
 1494 0004 00AF     		add	r7, sp, #0
 1495              		.cfi_def_cfa_register 7
1286:.\Generated_Source\PSoC4/CapSense_CSD.c **** 	uint32 newRegisterValue;
1287:.\Generated_Source\PSoC4/CapSense_CSD.c **** 	
1288:.\Generated_Source\PSoC4/CapSense_CSD.c **** 	CapSense_CSD_SetDriveModeAllPins(CY_SYS_PINS_DM_ALG_HIZ);
 1496              		.loc 1 1288 0
 1497 0006 0020     		mov	r0, #0
 1498 0008 FFF7FEFF 		bl	CapSense_CSD_SetDriveModeAllPins
1289:.\Generated_Source\PSoC4/CapSense_CSD.c **** 	
1290:.\Generated_Source\PSoC4/CapSense_CSD.c **** 	newRegisterValue = CapSense_CSD_CMOD_CONNECTION_REG; 
 1499              		.loc 1 1290 0
 1500 000c 084B     		ldr	r3, .L79
 1501 000e 1B68     		ldr	r3, [r3]
 1502 0010 7B60     		str	r3, [r7, #4]
1291:.\Generated_Source\PSoC4/CapSense_CSD.c ****     newRegisterValue &= ~(CapSense_CSD_CSD_CMOD_CONNECTION_MASK);
 1503              		.loc 1 1291 0
 1504 0012 7A68     		ldr	r2, [r7, #4]
 1505 0014 074B     		ldr	r3, .L79+4
 1506 0016 1340     		and	r3, r2
 1507 0018 7B60     		str	r3, [r7, #4]
1292:.\Generated_Source\PSoC4/CapSense_CSD.c ****     newRegisterValue |= CapSense_CSD_CSD_CMOD_TO_AMUXBUS_A;
 1508              		.loc 1 1292 0
 1509 001a 7B68     		ldr	r3, [r7, #4]
 1510 001c C022     		mov	r2, #192
 1511 001e D200     		lsl	r2, r2, #3
 1512 0020 1343     		orr	r3, r2
 1513 0022 7B60     		str	r3, [r7, #4]
1293:.\Generated_Source\PSoC4/CapSense_CSD.c ****     CapSense_CSD_CMOD_CONNECTION_REG = newRegisterValue;
 1514              		.loc 1 1293 0
 1515 0024 024B     		ldr	r3, .L79
 1516 0026 7A68     		ldr	r2, [r7, #4]
 1517 0028 1A60     		str	r2, [r3]
1294:.\Generated_Source\PSoC4/CapSense_CSD.c **** 	
1295:.\Generated_Source\PSoC4/CapSense_CSD.c **** 	#if(0u != CapSense_CSD_CSH_TANK_ENABLE)
1296:.\Generated_Source\PSoC4/CapSense_CSD.c **** 		newRegisterValue = CapSense_CSD_CTANK_CONNECTION_REG;
1297:.\Generated_Source\PSoC4/CapSense_CSD.c ****         newRegisterValue &= ~(CapSense_CSD_CSD_CTANK_CONNECTION_MASK);
1298:.\Generated_Source\PSoC4/CapSense_CSD.c **** 		newRegisterValue |= CapSense_CSD_CSD_CTANK_TO_AMUXBUS_B;
1299:.\Generated_Source\PSoC4/CapSense_CSD.c ****         CapSense_CSD_CTANK_CONNECTION_REG = newRegisterValue;
1300:.\Generated_Source\PSoC4/CapSense_CSD.c **** 	#endif/* (0u != CapSense_CSD_CSH_TANK_ENABLE) */
1301:.\Generated_Source\PSoC4/CapSense_CSD.c **** 	
1302:.\Generated_Source\PSoC4/CapSense_CSD.c **** 	#if(0u != CapSense_CSD_IS_SHIELD_ENABLE)
1303:.\Generated_Source\PSoC4/CapSense_CSD.c **** 		newRegisterValue = *CapSense_CSD_prtSelTbl[CapSense_CSD_SHIELD_PORT_NUMBER];
1304:.\Generated_Source\PSoC4/CapSense_CSD.c ****         newRegisterValue &= ~(CapSense_CSD_CSD_HSIOM_MASK << ((uint32)CapSense_CSD_SHIELD_PIN_NUMBE
1305:.\Generated_Source\PSoC4/CapSense_CSD.c ****         newRegisterValue |= (CapSense_CSD_CSD_SHIELD_PORT_MODE << ((uint32)CapSense_CSD_SHIELD_PIN_
1306:.\Generated_Source\PSoC4/CapSense_CSD.c ****         *CapSense_CSD_prtSelTbl[CapSense_CSD_SHIELD_PORT_NUMBER] = newRegisterValue;
1307:.\Generated_Source\PSoC4/CapSense_CSD.c **** 	#endif /* (0u != CapSense_CSD_IS_SHIELD_ENABLE) */	
1308:.\Generated_Source\PSoC4/CapSense_CSD.c **** }
 1518              		.loc 1 1308 0
 1519 002a BD46     		mov	sp, r7
 1520 002c 02B0     		add	sp, sp, #8
 1521              		@ sp needed
 1522 002e 80BD     		pop	{r7, pc}
 1523              	.L80:
 1524              		.align	2
 1525              	.L79:
 1526 0030 10000140 		.word	1073807376
ARM GAS  C:\Users\gsgill\AppData\Local\Temp\cc60Ptud.s 			page 51


 1527 0034 FFF0FFFF 		.word	-3841
 1528              		.cfi_endproc
 1529              	.LFE51:
 1530              		.size	CapSense_CSD_RestoreDriveModeAllPins, .-CapSense_CSD_RestoreDriveModeAllPins
 1531              		.section	.text.CapSense_CSD_SetPinDriveMode,"ax",%progbits
 1532              		.align	2
 1533              		.global	CapSense_CSD_SetPinDriveMode
 1534              		.code	16
 1535              		.thumb_func
 1536              		.type	CapSense_CSD_SetPinDriveMode, %function
 1537              	CapSense_CSD_SetPinDriveMode:
 1538              	.LFB52:
1309:.\Generated_Source\PSoC4/CapSense_CSD.c **** 
1310:.\Generated_Source\PSoC4/CapSense_CSD.c **** 
1311:.\Generated_Source\PSoC4/CapSense_CSD.c **** /*******************************************************************************
1312:.\Generated_Source\PSoC4/CapSense_CSD.c **** * Function Name: CapSense_CSD_SetPinDriveMode
1313:.\Generated_Source\PSoC4/CapSense_CSD.c **** ********************************************************************************
1314:.\Generated_Source\PSoC4/CapSense_CSD.c **** *
1315:.\Generated_Source\PSoC4/CapSense_CSD.c **** * Summary:
1316:.\Generated_Source\PSoC4/CapSense_CSD.c **** * This API sets the drive mode for the appropriate port/pin.
1317:.\Generated_Source\PSoC4/CapSense_CSD.c **** *
1318:.\Generated_Source\PSoC4/CapSense_CSD.c **** * Parameters:
1319:.\Generated_Source\PSoC4/CapSense_CSD.c **** *  driveMode:  Drive mode definition.
1320:.\Generated_Source\PSoC4/CapSense_CSD.c **** *  portNumber: contains port number (0, 1, 2).
1321:.\Generated_Source\PSoC4/CapSense_CSD.c **** *  pinNumber: contains pin number (0, 1, 2, ... , 7).
1322:.\Generated_Source\PSoC4/CapSense_CSD.c **** *
1323:.\Generated_Source\PSoC4/CapSense_CSD.c **** * Return:
1324:.\Generated_Source\PSoC4/CapSense_CSD.c **** *  None
1325:.\Generated_Source\PSoC4/CapSense_CSD.c **** *
1326:.\Generated_Source\PSoC4/CapSense_CSD.c **** * Global Variables:
1327:.\Generated_Source\PSoC4/CapSense_CSD.c **** *  CapSense_CSD_prtSelTbl[] - Contains pointers to the HSIOM 
1328:.\Generated_Source\PSoC4/CapSense_CSD.c **** *  registers for each port. 
1329:.\Generated_Source\PSoC4/CapSense_CSD.c **** *  CapSense_CSD_prtCfgTb[] - Contains pointers to the port config 
1330:.\Generated_Source\PSoC4/CapSense_CSD.c **** *  registers for each port.
1331:.\Generated_Source\PSoC4/CapSense_CSD.c **** *
1332:.\Generated_Source\PSoC4/CapSense_CSD.c **** * Side Effects: 
1333:.\Generated_Source\PSoC4/CapSense_CSD.c **** *  This API is called only after CapSense component is stopped.
1334:.\Generated_Source\PSoC4/CapSense_CSD.c **** *
1335:.\Generated_Source\PSoC4/CapSense_CSD.c **** *******************************************************************************/
1336:.\Generated_Source\PSoC4/CapSense_CSD.c **** void CapSense_CSD_SetPinDriveMode(uint32 driveMode, uint32 pinNumber, uint32 portNumber)
1337:.\Generated_Source\PSoC4/CapSense_CSD.c **** {	
 1539              		.loc 1 1337 0
 1540              		.cfi_startproc
 1541 0000 80B5     		push	{r7, lr}
 1542              		.cfi_def_cfa_offset 8
 1543              		.cfi_offset 7, -8
 1544              		.cfi_offset 14, -4
 1545 0002 86B0     		sub	sp, sp, #24
 1546              		.cfi_def_cfa_offset 32
 1547 0004 00AF     		add	r7, sp, #0
 1548              		.cfi_def_cfa_register 7
 1549 0006 F860     		str	r0, [r7, #12]
 1550 0008 B960     		str	r1, [r7, #8]
 1551 000a 7A60     		str	r2, [r7, #4]
1338:.\Generated_Source\PSoC4/CapSense_CSD.c **** 	uint32  pinModeShift;
1339:.\Generated_Source\PSoC4/CapSense_CSD.c **** 	uint32 newRegisterValue;
1340:.\Generated_Source\PSoC4/CapSense_CSD.c **** 	
ARM GAS  C:\Users\gsgill\AppData\Local\Temp\cc60Ptud.s 			page 52


1341:.\Generated_Source\PSoC4/CapSense_CSD.c **** 	pinModeShift  = pinNumber * CapSense_CSD_PC_PIN_CFG_SIZE;
 1552              		.loc 1 1341 0
 1553 000c BA68     		ldr	r2, [r7, #8]
 1554 000e 131C     		mov	r3, r2
 1555 0010 5B00     		lsl	r3, r3, #1
 1556 0012 9B18     		add	r3, r3, r2
 1557 0014 7B61     		str	r3, [r7, #20]
1342:.\Generated_Source\PSoC4/CapSense_CSD.c **** 	
1343:.\Generated_Source\PSoC4/CapSense_CSD.c **** 	newRegisterValue = *CapSense_CSD_prtCfgTbl[portNumber];
 1558              		.loc 1 1343 0
 1559 0016 104B     		ldr	r3, .L82
 1560 0018 7A68     		ldr	r2, [r7, #4]
 1561 001a 9200     		lsl	r2, r2, #2
 1562 001c D358     		ldr	r3, [r2, r3]
 1563 001e 1B68     		ldr	r3, [r3]
 1564 0020 3B61     		str	r3, [r7, #16]
1344:.\Generated_Source\PSoC4/CapSense_CSD.c **** 	newRegisterValue &= ~(CapSense_CSD_CSD_PIN_MODE_MASK << pinModeShift);
 1565              		.loc 1 1344 0
 1566 0022 7B69     		ldr	r3, [r7, #20]
 1567 0024 0722     		mov	r2, #7
 1568 0026 111C     		mov	r1, r2
 1569 0028 9940     		lsl	r1, r1, r3
 1570 002a 0B1C     		mov	r3, r1
 1571 002c DA43     		mvn	r2, r3
 1572 002e 3B69     		ldr	r3, [r7, #16]
 1573 0030 1340     		and	r3, r2
 1574 0032 3B61     		str	r3, [r7, #16]
1345:.\Generated_Source\PSoC4/CapSense_CSD.c **** 	newRegisterValue |=  (uint32)((uint32)driveMode << pinModeShift);
 1575              		.loc 1 1345 0
 1576 0034 7B69     		ldr	r3, [r7, #20]
 1577 0036 FA68     		ldr	r2, [r7, #12]
 1578 0038 111C     		mov	r1, r2
 1579 003a 9940     		lsl	r1, r1, r3
 1580 003c 0B1C     		mov	r3, r1
 1581 003e 3A69     		ldr	r2, [r7, #16]
 1582 0040 1343     		orr	r3, r2
 1583 0042 3B61     		str	r3, [r7, #16]
1346:.\Generated_Source\PSoC4/CapSense_CSD.c ****     *CapSense_CSD_prtCfgTbl[portNumber] =  newRegisterValue;
 1584              		.loc 1 1346 0
 1585 0044 044B     		ldr	r3, .L82
 1586 0046 7A68     		ldr	r2, [r7, #4]
 1587 0048 9200     		lsl	r2, r2, #2
 1588 004a D358     		ldr	r3, [r2, r3]
 1589 004c 3A69     		ldr	r2, [r7, #16]
 1590 004e 1A60     		str	r2, [r3]
1347:.\Generated_Source\PSoC4/CapSense_CSD.c **** }
 1591              		.loc 1 1347 0
 1592 0050 BD46     		mov	sp, r7
 1593 0052 06B0     		add	sp, sp, #24
 1594              		@ sp needed
 1595 0054 80BD     		pop	{r7, pc}
 1596              	.L83:
 1597 0056 C046     		.align	2
 1598              	.L82:
 1599 0058 00000000 		.word	CapSense_CSD_prtCfgTbl
 1600              		.cfi_endproc
 1601              	.LFE52:
ARM GAS  C:\Users\gsgill\AppData\Local\Temp\cc60Ptud.s 			page 53


 1602              		.size	CapSense_CSD_SetPinDriveMode, .-CapSense_CSD_SetPinDriveMode
 1603              		.section	.text.CapSense_CSD_PreScan,"ax",%progbits
 1604              		.align	2
 1605              		.global	CapSense_CSD_PreScan
 1606              		.code	16
 1607              		.thumb_func
 1608              		.type	CapSense_CSD_PreScan, %function
 1609              	CapSense_CSD_PreScan:
 1610              	.LFB53:
1348:.\Generated_Source\PSoC4/CapSense_CSD.c **** 
1349:.\Generated_Source\PSoC4/CapSense_CSD.c **** 
1350:.\Generated_Source\PSoC4/CapSense_CSD.c **** /*******************************************************************************
1351:.\Generated_Source\PSoC4/CapSense_CSD.c **** * Function Name: CapSense_CSD_PreScan
1352:.\Generated_Source\PSoC4/CapSense_CSD.c **** ********************************************************************************
1353:.\Generated_Source\PSoC4/CapSense_CSD.c **** *
1354:.\Generated_Source\PSoC4/CapSense_CSD.c **** * Summary:
1355:.\Generated_Source\PSoC4/CapSense_CSD.c **** *  Sets required settings, enables a sensor, removes Vref from AMUX and starts the 
1356:.\Generated_Source\PSoC4/CapSense_CSD.c **** *  scanning process of the sensor.
1357:.\Generated_Source\PSoC4/CapSense_CSD.c **** *
1358:.\Generated_Source\PSoC4/CapSense_CSD.c **** * Parameters:
1359:.\Generated_Source\PSoC4/CapSense_CSD.c **** *  sensor:  Sensor number.
1360:.\Generated_Source\PSoC4/CapSense_CSD.c **** *
1361:.\Generated_Source\PSoC4/CapSense_CSD.c **** * Return:
1362:.\Generated_Source\PSoC4/CapSense_CSD.c **** *  None
1363:.\Generated_Source\PSoC4/CapSense_CSD.c **** *
1364:.\Generated_Source\PSoC4/CapSense_CSD.c **** * Global Variables:
1365:.\Generated_Source\PSoC4/CapSense_CSD.c **** * CapSense_CSD_widgetNumber[] - This array contains numbers of widgets for each sensor.
1366:.\Generated_Source\PSoC4/CapSense_CSD.c **** * CapSense_CSD_widgetResolution[] - Contains the widget resolution.
1367:.\Generated_Source\PSoC4/CapSense_CSD.c **** *
1368:.\Generated_Source\PSoC4/CapSense_CSD.c **** * Side Effects: 
1369:.\Generated_Source\PSoC4/CapSense_CSD.c **** *  None
1370:.\Generated_Source\PSoC4/CapSense_CSD.c **** *
1371:.\Generated_Source\PSoC4/CapSense_CSD.c **** *******************************************************************************/
1372:.\Generated_Source\PSoC4/CapSense_CSD.c **** void CapSense_CSD_PreScan(uint32 sensor)
1373:.\Generated_Source\PSoC4/CapSense_CSD.c **** {
 1611              		.loc 1 1373 0
 1612              		.cfi_startproc
 1613 0000 90B5     		push	{r4, r7, lr}
 1614              		.cfi_def_cfa_offset 12
 1615              		.cfi_offset 4, -12
 1616              		.cfi_offset 7, -8
 1617              		.cfi_offset 14, -4
 1618 0002 87B0     		sub	sp, sp, #28
 1619              		.cfi_def_cfa_offset 40
 1620 0004 00AF     		add	r7, sp, #0
 1621              		.cfi_def_cfa_register 7
 1622 0006 7860     		str	r0, [r7, #4]
1374:.\Generated_Source\PSoC4/CapSense_CSD.c ****     uint8 widget;
1375:.\Generated_Source\PSoC4/CapSense_CSD.c ****     uint8 interruptState;
1376:.\Generated_Source\PSoC4/CapSense_CSD.c **** 	uint32 newRegValue;
1377:.\Generated_Source\PSoC4/CapSense_CSD.c **** 	uint32 counterResolution;
1378:.\Generated_Source\PSoC4/CapSense_CSD.c **** 	
1379:.\Generated_Source\PSoC4/CapSense_CSD.c **** 	#if(CapSense_CSD_PRS_OPTIONS == CapSense_CSD__PRS_AUTO)
1380:.\Generated_Source\PSoC4/CapSense_CSD.c **** 		uint8 senseClkDivMath;
1381:.\Generated_Source\PSoC4/CapSense_CSD.c **** 		uint8 sampleClkDivMath;
1382:.\Generated_Source\PSoC4/CapSense_CSD.c **** 	#endif /* (CapSense_CSD_PRS_OPTIONS == CapSense_CSD__PRS_AUTO) */	
1383:.\Generated_Source\PSoC4/CapSense_CSD.c **** 	
ARM GAS  C:\Users\gsgill\AppData\Local\Temp\cc60Ptud.s 			page 54


1384:.\Generated_Source\PSoC4/CapSense_CSD.c **** 	#if ((CapSense_CSD_TUNING_METHOD == CapSense_CSD__TUNING_AUTO) &&\
1385:.\Generated_Source\PSoC4/CapSense_CSD.c **** 		 (0 != CapSense_CSD_IS_OVERSAMPLING_EN))
1386:.\Generated_Source\PSoC4/CapSense_CSD.c **** 		uint32 oversamplingFactor;
1387:.\Generated_Source\PSoC4/CapSense_CSD.c **** 	#endif /* ((CapSense_CSD_TUNING_METHOD == CapSense_CSD__TUNING_AUTO) &&\
1388:.\Generated_Source\PSoC4/CapSense_CSD.c **** 	           (0 != CapSense_CSD_IS_OVERSAMPLING_EN)) */
1389:.\Generated_Source\PSoC4/CapSense_CSD.c **** 
1390:.\Generated_Source\PSoC4/CapSense_CSD.c ****     /* Define widget sensor belongs to */
1391:.\Generated_Source\PSoC4/CapSense_CSD.c ****     widget = CapSense_CSD_widgetNumber[sensor];
 1623              		.loc 1 1391 0
 1624 0008 3B1C     		mov	r3, r7
 1625 000a 1733     		add	r3, r3, #23
 1626 000c 3C49     		ldr	r1, .L86
 1627 000e 7A68     		ldr	r2, [r7, #4]
 1628 0010 8A18     		add	r2, r1, r2
 1629 0012 1278     		ldrb	r2, [r2]
 1630 0014 1A70     		strb	r2, [r3]
1392:.\Generated_Source\PSoC4/CapSense_CSD.c **** 
1393:.\Generated_Source\PSoC4/CapSense_CSD.c **** 	/* Recalculate Counter Resolution to MSB 16 bits */
1394:.\Generated_Source\PSoC4/CapSense_CSD.c **** 	counterResolution = CapSense_CSD_widgetResolution[widget];
 1631              		.loc 1 1394 0
 1632 0016 3B1C     		mov	r3, r7
 1633 0018 1733     		add	r3, r3, #23
 1634 001a 1A78     		ldrb	r2, [r3]
 1635 001c 394B     		ldr	r3, .L86+4
 1636 001e 9200     		lsl	r2, r2, #2
 1637 0020 D358     		ldr	r3, [r2, r3]
 1638 0022 3B61     		str	r3, [r7, #16]
1395:.\Generated_Source\PSoC4/CapSense_CSD.c **** 	
1396:.\Generated_Source\PSoC4/CapSense_CSD.c **** 	#if ((CapSense_CSD_TUNING_METHOD == CapSense_CSD__TUNING_AUTO) &&\
1397:.\Generated_Source\PSoC4/CapSense_CSD.c **** 		 (0 != CapSense_CSD_IS_OVERSAMPLING_EN))
1398:.\Generated_Source\PSoC4/CapSense_CSD.c **** 	    oversamplingFactor = CapSense_CSD_GetBitValue(scanSpeedTbl, sensor);
1399:.\Generated_Source\PSoC4/CapSense_CSD.c **** 
1400:.\Generated_Source\PSoC4/CapSense_CSD.c **** 		if(counterResolution < CapSense_CSD_RESOLUTION_16_BITS)
1401:.\Generated_Source\PSoC4/CapSense_CSD.c **** 		{
1402:.\Generated_Source\PSoC4/CapSense_CSD.c **** 			counterResolution <<= oversamplingFactor;
1403:.\Generated_Source\PSoC4/CapSense_CSD.c **** 			counterResolution |= (uint32)(CapSense_CSD_RESOLUTION_8_BITS);
1404:.\Generated_Source\PSoC4/CapSense_CSD.c **** 		}
1405:.\Generated_Source\PSoC4/CapSense_CSD.c **** 	#endif /* ((CapSense_CSD_TUNING_METHOD == CapSense_CSD__TUNING_AUTO) &&\
1406:.\Generated_Source\PSoC4/CapSense_CSD.c **** 	           (0 != CapSense_CSD_IS_OVERSAMPLING_EN)) */
1407:.\Generated_Source\PSoC4/CapSense_CSD.c **** 	
1408:.\Generated_Source\PSoC4/CapSense_CSD.c **** 	#if (0u != CapSense_CSD_IS_M0S8PERI_BLOCK)
1409:.\Generated_Source\PSoC4/CapSense_CSD.c **** 		CapSense_CSD_SenseClk_Stop();
1410:.\Generated_Source\PSoC4/CapSense_CSD.c **** 		CapSense_CSD_SampleClk_Stop();
1411:.\Generated_Source\PSoC4/CapSense_CSD.c **** 	#endif /* (0u != CapSense_CSD_IS_M0S8PERI_BLOCK) */
1412:.\Generated_Source\PSoC4/CapSense_CSD.c **** 
1413:.\Generated_Source\PSoC4/CapSense_CSD.c **** 	#if (0u != CapSense_CSD_MULTIPLE_FREQUENCY_SET)
1414:.\Generated_Source\PSoC4/CapSense_CSD.c **** 		CapSense_CSD_SampleClk_SetDividerValue((uint16)CapSense_CSD_sampleClkDividerVal[sensor]);
 1639              		.loc 1 1414 0
 1640 0024 384A     		ldr	r2, .L86+8
 1641 0026 7B68     		ldr	r3, [r7, #4]
 1642 0028 D318     		add	r3, r2, r3
 1643 002a 1B78     		ldrb	r3, [r3]
 1644 002c 013B     		sub	r3, r3, #1
 1645 002e 9BB2     		uxth	r3, r3
 1646 0030 181C     		mov	r0, r3
 1647 0032 0021     		mov	r1, #0
 1648 0034 FFF7FEFF 		bl	CapSense_CSD_SampleClk_SetFractionalDividerRegister
ARM GAS  C:\Users\gsgill\AppData\Local\Temp\cc60Ptud.s 			page 55


1415:.\Generated_Source\PSoC4/CapSense_CSD.c **** 		CapSense_CSD_SenseClk_SetDividerValue((uint16)CapSense_CSD_senseClkDividerVal[sensor]);
 1649              		.loc 1 1415 0
 1650 0038 344A     		ldr	r2, .L86+12
 1651 003a 7B68     		ldr	r3, [r7, #4]
 1652 003c D318     		add	r3, r2, r3
 1653 003e 1B78     		ldrb	r3, [r3]
 1654 0040 013B     		sub	r3, r3, #1
 1655 0042 9BB2     		uxth	r3, r3
 1656 0044 181C     		mov	r0, r3
 1657 0046 0021     		mov	r1, #0
 1658 0048 FFF7FEFF 		bl	CapSense_CSD_SenseClk_SetFractionalDividerRegister
1416:.\Generated_Source\PSoC4/CapSense_CSD.c **** 	#else
1417:.\Generated_Source\PSoC4/CapSense_CSD.c **** 		CapSense_CSD_SampleClk_SetDividerValue((uint16)CapSense_CSD_sampleClkDividerVal);
1418:.\Generated_Source\PSoC4/CapSense_CSD.c **** 		CapSense_CSD_SenseClk_SetDividerValue((uint16)CapSense_CSD_senseClkDividerVal);
1419:.\Generated_Source\PSoC4/CapSense_CSD.c **** 	#endif /* (0u != CapSense_CSD_MULTIPLE_FREQUENCY_SET) */
1420:.\Generated_Source\PSoC4/CapSense_CSD.c **** 
1421:.\Generated_Source\PSoC4/CapSense_CSD.c **** 	#if (0u != CapSense_CSD_IS_M0S8PERI_BLOCK)
1422:.\Generated_Source\PSoC4/CapSense_CSD.c **** 		CapSense_CSD_SampleClk_Start();
1423:.\Generated_Source\PSoC4/CapSense_CSD.c **** 		CapSense_CSD_SenseClk_StartEx(CapSense_CSD_SampleClk__DIV_ID);
1424:.\Generated_Source\PSoC4/CapSense_CSD.c **** 		
1425:.\Generated_Source\PSoC4/CapSense_CSD.c **** 		#if(CapSense_CSD_PRS_OPTIONS == CapSense_CSD__PRS_NONE)
1426:.\Generated_Source\PSoC4/CapSense_CSD.c **** 			CyIntDisable(CapSense_CSD_ISR_NUMBER);
1427:.\Generated_Source\PSoC4/CapSense_CSD.c **** 			CapSense_CSD_CSD_CNT_REG = CapSense_CSD_ONE_CYCLE;
1428:.\Generated_Source\PSoC4/CapSense_CSD.c **** 			while(0u != (CapSense_CSD_CSD_CNT_REG & CapSense_CSD_RESOLUTION_16_BITS))
1429:.\Generated_Source\PSoC4/CapSense_CSD.c **** 			{
1430:.\Generated_Source\PSoC4/CapSense_CSD.c **** 			/* Wait until scanning is complete */ 
1431:.\Generated_Source\PSoC4/CapSense_CSD.c **** 			}
1432:.\Generated_Source\PSoC4/CapSense_CSD.c **** 			CapSense_CSD_CSD_INTR_REG = 1u;
1433:.\Generated_Source\PSoC4/CapSense_CSD.c **** 			CyIntClearPending(CapSense_CSD_ISR_NUMBER);
1434:.\Generated_Source\PSoC4/CapSense_CSD.c **** 			CyIntEnable(CapSense_CSD_ISR_NUMBER); 
1435:.\Generated_Source\PSoC4/CapSense_CSD.c **** 		#endif /* CapSense_CSD_PRS_OPTIONS == CapSense_CSD__PRS_NONE */
1436:.\Generated_Source\PSoC4/CapSense_CSD.c **** 	#endif /* (0u != CapSense_CSD_IS_M0S8PERI_BLOCK) */
1437:.\Generated_Source\PSoC4/CapSense_CSD.c **** 
1438:.\Generated_Source\PSoC4/CapSense_CSD.c **** #if(CapSense_CSD_PRS_OPTIONS != CapSense_CSD__PRS_NONE)
1439:.\Generated_Source\PSoC4/CapSense_CSD.c **** 
1440:.\Generated_Source\PSoC4/CapSense_CSD.c **** 	#if(CapSense_CSD_TUNING_METHOD == CapSense_CSD__TUNING_AUTO)
1441:.\Generated_Source\PSoC4/CapSense_CSD.c **** 		if(CapSense_CSD_prescalersTuningDone != 0u)
 1659              		.loc 1 1441 0
 1660 004c 304B     		ldr	r3, .L86+16
 1661 004e 1B78     		ldrb	r3, [r3]
 1662 0050 002B     		cmp	r3, #0
 1663 0052 0FD0     		beq	.L85
1442:.\Generated_Source\PSoC4/CapSense_CSD.c **** 		{
1443:.\Generated_Source\PSoC4/CapSense_CSD.c **** 	#endif /* (CapSense_CSD_TUNING_METHOD == CapSense_CSD__TUNING_AUTO) */
1444:.\Generated_Source\PSoC4/CapSense_CSD.c **** 			
1445:.\Generated_Source\PSoC4/CapSense_CSD.c **** 			CyIntDisable(CapSense_CSD_ISR_NUMBER);
 1664              		.loc 1 1445 0
 1665 0054 0F20     		mov	r0, #15
 1666 0056 FFF7FEFF 		bl	CyIntDisable
1446:.\Generated_Source\PSoC4/CapSense_CSD.c **** 			
1447:.\Generated_Source\PSoC4/CapSense_CSD.c **** 			newRegValue = CapSense_CSD_CSD_CFG_REG;
 1667              		.loc 1 1447 0
 1668 005a 2E4B     		ldr	r3, .L86+20
 1669 005c 1B68     		ldr	r3, [r3]
 1670 005e FB60     		str	r3, [r7, #12]
1448:.\Generated_Source\PSoC4/CapSense_CSD.c **** 			newRegValue |= CapSense_CSD_CSD_CFG_PRS_SELECT;
 1671              		.loc 1 1448 0
ARM GAS  C:\Users\gsgill\AppData\Local\Temp\cc60Ptud.s 			page 56


 1672 0060 FB68     		ldr	r3, [r7, #12]
 1673 0062 4022     		mov	r2, #64
 1674 0064 1343     		orr	r3, r2
 1675 0066 FB60     		str	r3, [r7, #12]
1449:.\Generated_Source\PSoC4/CapSense_CSD.c **** 			
1450:.\Generated_Source\PSoC4/CapSense_CSD.c **** 			#if(CapSense_CSD_PRS_OPTIONS == CapSense_CSD__PRS_AUTO)
1451:.\Generated_Source\PSoC4/CapSense_CSD.c **** 				
1452:.\Generated_Source\PSoC4/CapSense_CSD.c **** 				newRegValue &= ~(CapSense_CSD_PRS_MODE_MASK);
1453:.\Generated_Source\PSoC4/CapSense_CSD.c **** 				
1454:.\Generated_Source\PSoC4/CapSense_CSD.c **** 				#if (0u != CapSense_CSD_MULTIPLE_FREQUENCY_SET)
1455:.\Generated_Source\PSoC4/CapSense_CSD.c **** 					senseClkDivMath = CapSense_CSD_senseClkDividerVal[sensor];
1456:.\Generated_Source\PSoC4/CapSense_CSD.c **** 					sampleClkDivMath = CapSense_CSD_sampleClkDividerVal[sensor];
1457:.\Generated_Source\PSoC4/CapSense_CSD.c **** 				#else
1458:.\Generated_Source\PSoC4/CapSense_CSD.c **** 					senseClkDivMath = CapSense_CSD_senseClkDividerVal;
1459:.\Generated_Source\PSoC4/CapSense_CSD.c **** 					sampleClkDivMath = CapSense_CSD_sampleClkDividerVal;
1460:.\Generated_Source\PSoC4/CapSense_CSD.c **** 				#endif /* ( CapSense_CSD_MULTIPLE_FREQUENCY_SET) */
1461:.\Generated_Source\PSoC4/CapSense_CSD.c **** 				
1462:.\Generated_Source\PSoC4/CapSense_CSD.c **** 				#if(0u == CapSense_CSD_IS_M0S8PERI_BLOCK)
1463:.\Generated_Source\PSoC4/CapSense_CSD.c **** 					senseClkDivMath *= sampleClkDivMath;
1464:.\Generated_Source\PSoC4/CapSense_CSD.c **** 				#endif /* (0u == CapSense_CSD_IS_M0S8PERI_BLOCK) */	
1465:.\Generated_Source\PSoC4/CapSense_CSD.c **** 				
1466:.\Generated_Source\PSoC4/CapSense_CSD.c **** 				if((senseClkDivMath * CapSense_CSD_RESOLUTION_12_BITS) <
1467:.\Generated_Source\PSoC4/CapSense_CSD.c **** 				   (sampleClkDivMath * CapSense_CSD_widgetResolution[widget]))
1468:.\Generated_Source\PSoC4/CapSense_CSD.c **** 				{
1469:.\Generated_Source\PSoC4/CapSense_CSD.c **** 					newRegValue |= CapSense_CSD_CSD_PRS_12_BIT;
1470:.\Generated_Source\PSoC4/CapSense_CSD.c **** 				}
1471:.\Generated_Source\PSoC4/CapSense_CSD.c **** 			#endif /* (CapSense_CSD_PRS_OPTIONS == CapSense_CSD__PRS_AUTO) */
1472:.\Generated_Source\PSoC4/CapSense_CSD.c **** 			
1473:.\Generated_Source\PSoC4/CapSense_CSD.c **** 			CapSense_CSD_CSD_CFG_REG = newRegValue;
 1676              		.loc 1 1473 0
 1677 0068 2A4B     		ldr	r3, .L86+20
 1678 006a FA68     		ldr	r2, [r7, #12]
 1679 006c 1A60     		str	r2, [r3]
1474:.\Generated_Source\PSoC4/CapSense_CSD.c **** 			
1475:.\Generated_Source\PSoC4/CapSense_CSD.c **** 			CyIntEnable(CapSense_CSD_ISR_NUMBER);
 1680              		.loc 1 1475 0
 1681 006e 0F20     		mov	r0, #15
 1682 0070 FFF7FEFF 		bl	CyIntEnable
 1683              	.L85:
1476:.\Generated_Source\PSoC4/CapSense_CSD.c **** 			
1477:.\Generated_Source\PSoC4/CapSense_CSD.c **** 	#if(CapSense_CSD_TUNING_METHOD == CapSense_CSD__TUNING_AUTO)	
1478:.\Generated_Source\PSoC4/CapSense_CSD.c **** 		}
1479:.\Generated_Source\PSoC4/CapSense_CSD.c **** 	#endif /* (CapSense_CSD_PRS_OPTIONS != CapSense_CSD__PRS_NONE) */
1480:.\Generated_Source\PSoC4/CapSense_CSD.c **** 
1481:.\Generated_Source\PSoC4/CapSense_CSD.c **** #endif /* (CapSense_CSD_PRS_OPTIONS == CapSense_CSD__PRS_NONE) */
1482:.\Generated_Source\PSoC4/CapSense_CSD.c **** 	
1483:.\Generated_Source\PSoC4/CapSense_CSD.c **** 	/* Set Idac Value */
1484:.\Generated_Source\PSoC4/CapSense_CSD.c **** 	CyIntDisable(CapSense_CSD_ISR_NUMBER);
 1684              		.loc 1 1484 0
 1685 0074 0F20     		mov	r0, #15
 1686 0076 FFF7FEFF 		bl	CyIntDisable
1485:.\Generated_Source\PSoC4/CapSense_CSD.c ****     newRegValue = CapSense_CSD_CSD_IDAC_REG;
 1687              		.loc 1 1485 0
 1688 007a 274B     		ldr	r3, .L86+24
 1689 007c 1B68     		ldr	r3, [r3]
 1690 007e FB60     		str	r3, [r7, #12]
1486:.\Generated_Source\PSoC4/CapSense_CSD.c ****  
ARM GAS  C:\Users\gsgill\AppData\Local\Temp\cc60Ptud.s 			page 57


1487:.\Generated_Source\PSoC4/CapSense_CSD.c **** #if (CapSense_CSD_IDAC_CNT == 1u)    
1488:.\Generated_Source\PSoC4/CapSense_CSD.c **** 	newRegValue &= ~(CapSense_CSD_CSD_IDAC1_DATA_MASK);
1489:.\Generated_Source\PSoC4/CapSense_CSD.c **** 	newRegValue |= CapSense_CSD_modulationIDAC[sensor];
1490:.\Generated_Source\PSoC4/CapSense_CSD.c **** #else
1491:.\Generated_Source\PSoC4/CapSense_CSD.c **** 	newRegValue &= ~(CapSense_CSD_CSD_IDAC1_DATA_MASK | CapSense_CSD_CSD_IDAC2_DATA_MASK);
 1691              		.loc 1 1491 0
 1692 0080 FA68     		ldr	r2, [r7, #12]
 1693 0082 264B     		ldr	r3, .L86+28
 1694 0084 1340     		and	r3, r2
 1695 0086 FB60     		str	r3, [r7, #12]
1492:.\Generated_Source\PSoC4/CapSense_CSD.c **** 	newRegValue |= (CapSense_CSD_modulationIDAC[sensor] | 
 1696              		.loc 1 1492 0
 1697 0088 254A     		ldr	r2, .L86+32
 1698 008a 7B68     		ldr	r3, [r7, #4]
 1699 008c D318     		add	r3, r2, r3
 1700 008e 1B78     		ldrb	r3, [r3]
 1701 0090 1A1C     		mov	r2, r3
1493:.\Generated_Source\PSoC4/CapSense_CSD.c **** 							(uint32)((uint32)CapSense_CSD_compensationIDAC[sensor] <<
 1702              		.loc 1 1493 0
 1703 0092 2449     		ldr	r1, .L86+36
 1704 0094 7B68     		ldr	r3, [r7, #4]
 1705 0096 CB18     		add	r3, r1, r3
 1706 0098 1B78     		ldrb	r3, [r3]
 1707 009a 1B04     		lsl	r3, r3, #16
1492:.\Generated_Source\PSoC4/CapSense_CSD.c **** 	newRegValue |= (CapSense_CSD_modulationIDAC[sensor] | 
 1708              		.loc 1 1492 0
 1709 009c 1343     		orr	r3, r2
 1710 009e FA68     		ldr	r2, [r7, #12]
 1711 00a0 1343     		orr	r3, r2
 1712 00a2 FB60     		str	r3, [r7, #12]
1494:.\Generated_Source\PSoC4/CapSense_CSD.c **** 							CapSense_CSD_CSD_IDAC2_DATA_OFFSET));                               
1495:.\Generated_Source\PSoC4/CapSense_CSD.c **** #endif /* (CapSense_CSD_IDAC_CNT == 1u) */
1496:.\Generated_Source\PSoC4/CapSense_CSD.c **** 	
1497:.\Generated_Source\PSoC4/CapSense_CSD.c **** 	CapSense_CSD_CSD_IDAC_REG = newRegValue;
 1713              		.loc 1 1497 0
 1714 00a4 1C4B     		ldr	r3, .L86+24
 1715 00a6 FA68     		ldr	r2, [r7, #12]
 1716 00a8 1A60     		str	r2, [r3]
1498:.\Generated_Source\PSoC4/CapSense_CSD.c **** 
1499:.\Generated_Source\PSoC4/CapSense_CSD.c **** #if(CapSense_CSD_CMOD_PREGARGE_OPTION == CapSense_CSD__CAPPRIOBUF)
1500:.\Generated_Source\PSoC4/CapSense_CSD.c **** 	newRegValue = CapSense_CSD_CMOD_CONNECTION_REG;
1501:.\Generated_Source\PSoC4/CapSense_CSD.c **** 	newRegValue &= ~(CapSense_CSD_CSD_CMOD_CONNECTION_MASK);
1502:.\Generated_Source\PSoC4/CapSense_CSD.c **** 	newRegValue |= CapSense_CSD_CSD_CMOD_TO_AMUXBUS_A;
1503:.\Generated_Source\PSoC4/CapSense_CSD.c **** 	CapSense_CSD_CMOD_CONNECTION_REG = newRegValue;
1504:.\Generated_Source\PSoC4/CapSense_CSD.c **** 	
1505:.\Generated_Source\PSoC4/CapSense_CSD.c **** 	newRegValue = CapSense_CSD_CMOD_PORT_PC_REG;
1506:.\Generated_Source\PSoC4/CapSense_CSD.c **** 	newRegValue &= ~(CapSense_CSD_CSD_CMOD_PC_MASK);
1507:.\Generated_Source\PSoC4/CapSense_CSD.c **** 	newRegValue |= CapSense_CSD_CMOD_PC_HIGH_Z_MODE;
1508:.\Generated_Source\PSoC4/CapSense_CSD.c **** 	CapSense_CSD_CMOD_PORT_PC_REG = newRegValue;
1509:.\Generated_Source\PSoC4/CapSense_CSD.c **** #endif /* (CapSense_CSD_CMOD_PREGARGE_OPTION == CapSense_CSD__CAPPRIOBUF) */
1510:.\Generated_Source\PSoC4/CapSense_CSD.c **** 
1511:.\Generated_Source\PSoC4/CapSense_CSD.c ****     /* Disconnect Vref Buffer from AMUX */
1512:.\Generated_Source\PSoC4/CapSense_CSD.c **** 	newRegValue = CapSense_CSD_CSD_CFG_REG;
 1717              		.loc 1 1512 0
 1718 00aa 1A4B     		ldr	r3, .L86+20
 1719 00ac 1B68     		ldr	r3, [r3]
 1720 00ae FB60     		str	r3, [r7, #12]
ARM GAS  C:\Users\gsgill\AppData\Local\Temp\cc60Ptud.s 			page 58


1513:.\Generated_Source\PSoC4/CapSense_CSD.c **** 	newRegValue &= ~(CapSense_CSD_PRECHARGE_CONFIG_MASK);
 1721              		.loc 1 1513 0
 1722 00b0 FA68     		ldr	r2, [r7, #12]
 1723 00b2 1D4B     		ldr	r3, .L86+40
 1724 00b4 1340     		and	r3, r2
 1725 00b6 FB60     		str	r3, [r7, #12]
1514:.\Generated_Source\PSoC4/CapSense_CSD.c **** 	newRegValue |= CapSense_CSD_CTANK_PRECHARGE_CONFIG;
 1726              		.loc 1 1514 0
 1727 00b8 FB68     		ldr	r3, [r7, #12]
 1728 00ba 1C4A     		ldr	r2, .L86+44
 1729 00bc 1343     		orr	r3, r2
 1730 00be FB60     		str	r3, [r7, #12]
1515:.\Generated_Source\PSoC4/CapSense_CSD.c **** 	
1516:.\Generated_Source\PSoC4/CapSense_CSD.c **** 	CyIntEnable(CapSense_CSD_ISR_NUMBER);
 1731              		.loc 1 1516 0
 1732 00c0 0F20     		mov	r0, #15
 1733 00c2 FFF7FEFF 		bl	CyIntEnable
1517:.\Generated_Source\PSoC4/CapSense_CSD.c **** 	
1518:.\Generated_Source\PSoC4/CapSense_CSD.c ****     /* Enable Sensor */
1519:.\Generated_Source\PSoC4/CapSense_CSD.c ****     CapSense_CSD_EnableScanSlot(sensor);
 1734              		.loc 1 1519 0
 1735 00c6 7B68     		ldr	r3, [r7, #4]
 1736 00c8 181C     		mov	r0, r3
 1737 00ca FFF7FEFF 		bl	CapSense_CSD_EnableSensor
1520:.\Generated_Source\PSoC4/CapSense_CSD.c ****     
1521:.\Generated_Source\PSoC4/CapSense_CSD.c **** 	interruptState = CyEnterCriticalSection();
 1738              		.loc 1 1521 0
 1739 00ce 3C1C     		mov	r4, r7
 1740 00d0 0B34     		add	r4, r4, #11
 1741 00d2 FFF7FEFF 		bl	CyEnterCriticalSection
 1742 00d6 031C     		mov	r3, r0
 1743 00d8 2370     		strb	r3, [r4]
1522:.\Generated_Source\PSoC4/CapSense_CSD.c **** 	CapSense_CSD_CSD_CFG_REG = newRegValue;
 1744              		.loc 1 1522 0
 1745 00da 0E4B     		ldr	r3, .L86+20
 1746 00dc FA68     		ldr	r2, [r7, #12]
 1747 00de 1A60     		str	r2, [r3]
1523:.\Generated_Source\PSoC4/CapSense_CSD.c **** 	
1524:.\Generated_Source\PSoC4/CapSense_CSD.c **** 	/* `#START CapSense_CSD_PreSettlingDelay_Debug` */
1525:.\Generated_Source\PSoC4/CapSense_CSD.c **** 
1526:.\Generated_Source\PSoC4/CapSense_CSD.c **** 	/* `#END` */
1527:.\Generated_Source\PSoC4/CapSense_CSD.c **** 	
1528:.\Generated_Source\PSoC4/CapSense_CSD.c **** 	CyDelayCycles(CapSense_CSD_GLITCH_ELIMINATION_CYCLES);
 1748              		.loc 1 1528 0
 1749 00e0 0020     		mov	r0, #0
 1750 00e2 FFF7FEFF 		bl	CyDelayCycles
1529:.\Generated_Source\PSoC4/CapSense_CSD.c **** 	
1530:.\Generated_Source\PSoC4/CapSense_CSD.c **** 	/* `#START CapSense_CSD_PreScan_Debug` */
1531:.\Generated_Source\PSoC4/CapSense_CSD.c **** 
1532:.\Generated_Source\PSoC4/CapSense_CSD.c **** 	/* `#END` */
1533:.\Generated_Source\PSoC4/CapSense_CSD.c **** 	
1534:.\Generated_Source\PSoC4/CapSense_CSD.c ****     CapSense_CSD_CSD_CNT_REG = counterResolution;
 1751              		.loc 1 1534 0
 1752 00e6 124B     		ldr	r3, .L86+48
 1753 00e8 3A69     		ldr	r2, [r7, #16]
 1754 00ea 1A60     		str	r2, [r3]
1535:.\Generated_Source\PSoC4/CapSense_CSD.c ****     CyExitCriticalSection(interruptState);
ARM GAS  C:\Users\gsgill\AppData\Local\Temp\cc60Ptud.s 			page 59


 1755              		.loc 1 1535 0
 1756 00ec 3B1C     		mov	r3, r7
 1757 00ee 0B33     		add	r3, r3, #11
 1758 00f0 1B78     		ldrb	r3, [r3]
 1759 00f2 181C     		mov	r0, r3
 1760 00f4 FFF7FEFF 		bl	CyExitCriticalSection
1536:.\Generated_Source\PSoC4/CapSense_CSD.c **** }
 1761              		.loc 1 1536 0
 1762 00f8 BD46     		mov	sp, r7
 1763 00fa 07B0     		add	sp, sp, #28
 1764              		@ sp needed
 1765 00fc 90BD     		pop	{r4, r7, pc}
 1766              	.L87:
 1767 00fe C046     		.align	2
 1768              	.L86:
 1769 0100 00000000 		.word	CapSense_CSD_widgetNumber
 1770 0104 00000000 		.word	CapSense_CSD_widgetResolution
 1771 0108 00000000 		.word	CapSense_CSD_sampleClkDividerVal
 1772 010c 00000000 		.word	CapSense_CSD_senseClkDividerVal
 1773 0110 00000000 		.word	CapSense_CSD_prescalersTuningDone
 1774 0114 04000840 		.word	1074266116
 1775 0118 08000840 		.word	1074266120
 1776 011c 00FF80FF 		.word	-8323328
 1777 0120 00000000 		.word	CapSense_CSD_modulationIDAC
 1778 0124 00000000 		.word	CapSense_CSD_compensationIDAC
 1779 0128 FF1FDFFF 		.word	-2154497
 1780 012c 20002000 		.word	2097184
 1781 0130 0C000840 		.word	1074266124
 1782              		.cfi_endproc
 1783              	.LFE53:
 1784              		.size	CapSense_CSD_PreScan, .-CapSense_CSD_PreScan
 1785              		.section	.text.CapSense_CSD_PostScan,"ax",%progbits
 1786              		.align	2
 1787              		.global	CapSense_CSD_PostScan
 1788              		.code	16
 1789              		.thumb_func
 1790              		.type	CapSense_CSD_PostScan, %function
 1791              	CapSense_CSD_PostScan:
 1792              	.LFB54:
1537:.\Generated_Source\PSoC4/CapSense_CSD.c **** 
1538:.\Generated_Source\PSoC4/CapSense_CSD.c **** 
1539:.\Generated_Source\PSoC4/CapSense_CSD.c **** /*******************************************************************************
1540:.\Generated_Source\PSoC4/CapSense_CSD.c **** * Function Name: CapSense_CSD_PostScan
1541:.\Generated_Source\PSoC4/CapSense_CSD.c **** ********************************************************************************
1542:.\Generated_Source\PSoC4/CapSense_CSD.c **** *
1543:.\Generated_Source\PSoC4/CapSense_CSD.c **** * Summary:
1544:.\Generated_Source\PSoC4/CapSense_CSD.c **** *  Stores the results of measurement in the CapSense_CSD_sensorRaw[] array,
1545:.\Generated_Source\PSoC4/CapSense_CSD.c **** *  sets the scanning sensor in the non-sampling state, turns off Idac(Current Source IDAC),
1546:.\Generated_Source\PSoC4/CapSense_CSD.c **** *  disconnects the IDAC(Sink mode), and applies Vref on AMUX.
1547:.\Generated_Source\PSoC4/CapSense_CSD.c **** *
1548:.\Generated_Source\PSoC4/CapSense_CSD.c **** * Parameters:
1549:.\Generated_Source\PSoC4/CapSense_CSD.c **** *  sensor:  Sensor number.
1550:.\Generated_Source\PSoC4/CapSense_CSD.c **** *
1551:.\Generated_Source\PSoC4/CapSense_CSD.c **** * Return:
1552:.\Generated_Source\PSoC4/CapSense_CSD.c **** *  None
1553:.\Generated_Source\PSoC4/CapSense_CSD.c **** *
1554:.\Generated_Source\PSoC4/CapSense_CSD.c **** * Global Variables:
ARM GAS  C:\Users\gsgill\AppData\Local\Temp\cc60Ptud.s 			page 60


1555:.\Generated_Source\PSoC4/CapSense_CSD.c **** *  CapSense_CSD_sensorRaw[] - used to store sensors raw data.
1556:.\Generated_Source\PSoC4/CapSense_CSD.c **** *
1557:.\Generated_Source\PSoC4/CapSense_CSD.c **** * Side Effects: 
1558:.\Generated_Source\PSoC4/CapSense_CSD.c **** *  None
1559:.\Generated_Source\PSoC4/CapSense_CSD.c **** *
1560:.\Generated_Source\PSoC4/CapSense_CSD.c **** *******************************************************************************/
1561:.\Generated_Source\PSoC4/CapSense_CSD.c **** void CapSense_CSD_PostScan(uint32 sensor)
1562:.\Generated_Source\PSoC4/CapSense_CSD.c **** {	
 1793              		.loc 1 1562 0
 1794              		.cfi_startproc
 1795 0000 80B5     		push	{r7, lr}
 1796              		.cfi_def_cfa_offset 8
 1797              		.cfi_offset 7, -8
 1798              		.cfi_offset 14, -4
 1799 0002 84B0     		sub	sp, sp, #16
 1800              		.cfi_def_cfa_offset 24
 1801 0004 00AF     		add	r7, sp, #0
 1802              		.cfi_def_cfa_register 7
 1803 0006 7860     		str	r0, [r7, #4]
1563:.\Generated_Source\PSoC4/CapSense_CSD.c **** 	uint32 newRegValue;
1564:.\Generated_Source\PSoC4/CapSense_CSD.c **** #if ((CapSense_CSD_TUNING_METHOD == CapSense_CSD__TUNING_AUTO) &&\
1565:.\Generated_Source\PSoC4/CapSense_CSD.c **** 	 (0 != CapSense_CSD_IS_OVERSAMPLING_EN))
1566:.\Generated_Source\PSoC4/CapSense_CSD.c ****     uint32 oversamplingFactor;
1567:.\Generated_Source\PSoC4/CapSense_CSD.c ****     uint32 widget;
1568:.\Generated_Source\PSoC4/CapSense_CSD.c **** #endif /* ((CapSense_CSD_TUNING_METHOD == CapSense_CSD__TUNING_AUTO) &&\
1569:.\Generated_Source\PSoC4/CapSense_CSD.c **** 		   (0 != CapSense_CSD_IS_OVERSAMPLING_EN)) */	
1570:.\Generated_Source\PSoC4/CapSense_CSD.c **** 
1571:.\Generated_Source\PSoC4/CapSense_CSD.c **** 	/* `#START CapSense_CSD_PostScan_Debug` */
1572:.\Generated_Source\PSoC4/CapSense_CSD.c **** 
1573:.\Generated_Source\PSoC4/CapSense_CSD.c **** 	/* `#END` */
1574:.\Generated_Source\PSoC4/CapSense_CSD.c **** 
1575:.\Generated_Source\PSoC4/CapSense_CSD.c **** 
1576:.\Generated_Source\PSoC4/CapSense_CSD.c ****     /* Read SlotResult from Raw Counter */
1577:.\Generated_Source\PSoC4/CapSense_CSD.c ****     CapSense_CSD_sensorRaw[sensor]  = (uint16)CapSense_CSD_CSD_CNT_REG;
 1804              		.loc 1 1577 0
 1805 0008 144B     		ldr	r3, .L89
 1806 000a 1B68     		ldr	r3, [r3]
 1807 000c 99B2     		uxth	r1, r3
 1808 000e 144B     		ldr	r3, .L89+4
 1809 0010 7A68     		ldr	r2, [r7, #4]
 1810 0012 5200     		lsl	r2, r2, #1
 1811 0014 D152     		strh	r1, [r2, r3]
1578:.\Generated_Source\PSoC4/CapSense_CSD.c **** 	
1579:.\Generated_Source\PSoC4/CapSense_CSD.c **** #if ((CapSense_CSD_TUNING_METHOD == CapSense_CSD__TUNING_AUTO) &&\
1580:.\Generated_Source\PSoC4/CapSense_CSD.c **** 	 (0 != CapSense_CSD_IS_OVERSAMPLING_EN))
1581:.\Generated_Source\PSoC4/CapSense_CSD.c **** 	widget = CapSense_CSD_widgetNumber[sensor];
1582:.\Generated_Source\PSoC4/CapSense_CSD.c **** 	if(CapSense_CSD_widgetResolution[widget] < CapSense_CSD_RESOLUTION_16_BITS)
1583:.\Generated_Source\PSoC4/CapSense_CSD.c **** 	{
1584:.\Generated_Source\PSoC4/CapSense_CSD.c **** 		oversamplingFactor = CapSense_CSD_GetBitValue(scanSpeedTbl, sensor);
1585:.\Generated_Source\PSoC4/CapSense_CSD.c **** 		CapSense_CSD_sensorRaw[sensor] >>= oversamplingFactor;
1586:.\Generated_Source\PSoC4/CapSense_CSD.c **** 	}
1587:.\Generated_Source\PSoC4/CapSense_CSD.c **** #endif /* ((CapSense_CSD_TUNING_METHOD == CapSense_CSD__TUNING_AUTO) &&\
1588:.\Generated_Source\PSoC4/CapSense_CSD.c **** 		   (0 != CapSense_CSD_IS_OVERSAMPLING_EN)) */
1589:.\Generated_Source\PSoC4/CapSense_CSD.c **** 
1590:.\Generated_Source\PSoC4/CapSense_CSD.c ****     /* Disable Sensor */
1591:.\Generated_Source\PSoC4/CapSense_CSD.c ****     CapSense_CSD_DisableScanSlot(sensor);
 1812              		.loc 1 1591 0
ARM GAS  C:\Users\gsgill\AppData\Local\Temp\cc60Ptud.s 			page 61


 1813 0016 7B68     		ldr	r3, [r7, #4]
 1814 0018 181C     		mov	r0, r3
 1815 001a FFF7FEFF 		bl	CapSense_CSD_DisableSensor
1592:.\Generated_Source\PSoC4/CapSense_CSD.c **** 
1593:.\Generated_Source\PSoC4/CapSense_CSD.c **** 	CyIntDisable(CapSense_CSD_ISR_NUMBER);
 1816              		.loc 1 1593 0
 1817 001e 0F20     		mov	r0, #15
 1818 0020 FFF7FEFF 		bl	CyIntDisable
1594:.\Generated_Source\PSoC4/CapSense_CSD.c **** 	
1595:.\Generated_Source\PSoC4/CapSense_CSD.c **** #if(CapSense_CSD_CMOD_PREGARGE_OPTION == CapSense_CSD__CAPPRIOBUF)
1596:.\Generated_Source\PSoC4/CapSense_CSD.c **** 	newRegValue = CapSense_CSD_CMOD_CONNECTION_REG;
1597:.\Generated_Source\PSoC4/CapSense_CSD.c **** 	newRegValue &= ~(CapSense_CSD_CSD_CMOD_CONNECTION_MASK);
1598:.\Generated_Source\PSoC4/CapSense_CSD.c **** 	newRegValue |= CapSense_CSD_CSD_CMOD_TO_AMUXBUS_B;
1599:.\Generated_Source\PSoC4/CapSense_CSD.c **** 	CapSense_CSD_CMOD_CONNECTION_REG = newRegValue;
1600:.\Generated_Source\PSoC4/CapSense_CSD.c **** 	
1601:.\Generated_Source\PSoC4/CapSense_CSD.c **** 	newRegValue = CapSense_CSD_CMOD_PORT_PC_REG;
1602:.\Generated_Source\PSoC4/CapSense_CSD.c **** 	newRegValue &= ~(CapSense_CSD_CSD_CMOD_PC_MASK);
1603:.\Generated_Source\PSoC4/CapSense_CSD.c **** 	newRegValue |= CapSense_CSD_CMOD_PC_STRONG_MODE;
1604:.\Generated_Source\PSoC4/CapSense_CSD.c **** 	CapSense_CSD_CMOD_PORT_PC_REG = newRegValue;
1605:.\Generated_Source\PSoC4/CapSense_CSD.c **** 		
1606:.\Generated_Source\PSoC4/CapSense_CSD.c **** 	newRegValue = CapSense_CSD_CMOD_PORT_DR_REG;
1607:.\Generated_Source\PSoC4/CapSense_CSD.c ****     newRegValue &= ~(CapSense_CSD_CMOD_DR_MASK);
1608:.\Generated_Source\PSoC4/CapSense_CSD.c **** 	newRegValue |= CapSense_CSD_CMOD_DR_CONFIG;
1609:.\Generated_Source\PSoC4/CapSense_CSD.c ****     CapSense_CSD_CMOD_PORT_DR_REG = newRegValue;    
1610:.\Generated_Source\PSoC4/CapSense_CSD.c **** #endif /* (CapSense_CSD_CMOD_PREGARGE_OPTION == CapSense_CSD__CAPPRIOBUF) */
1611:.\Generated_Source\PSoC4/CapSense_CSD.c **** 	
1612:.\Generated_Source\PSoC4/CapSense_CSD.c **** 	/* Connect Vref Buffer to AMUX bus  */
1613:.\Generated_Source\PSoC4/CapSense_CSD.c **** 	newRegValue = CapSense_CSD_CSD_CFG_REG;
 1819              		.loc 1 1613 0
 1820 0024 0F4B     		ldr	r3, .L89+8
 1821 0026 1B68     		ldr	r3, [r3]
 1822 0028 FB60     		str	r3, [r7, #12]
1614:.\Generated_Source\PSoC4/CapSense_CSD.c **** 	newRegValue &= ~(CapSense_CSD_PRECHARGE_CONFIG_MASK);
 1823              		.loc 1 1614 0
 1824 002a FA68     		ldr	r2, [r7, #12]
 1825 002c 0E4B     		ldr	r3, .L89+12
 1826 002e 1340     		and	r3, r2
 1827 0030 FB60     		str	r3, [r7, #12]
1615:.\Generated_Source\PSoC4/CapSense_CSD.c **** 	newRegValue |= CapSense_CSD_CMOD_PRECHARGE_CONFIG;
 1828              		.loc 1 1615 0
 1829 0032 FB68     		ldr	r3, [r7, #12]
 1830 0034 A022     		mov	r2, #160
 1831 0036 1202     		lsl	r2, r2, #8
 1832 0038 1343     		orr	r3, r2
 1833 003a FB60     		str	r3, [r7, #12]
1616:.\Generated_Source\PSoC4/CapSense_CSD.c **** 	CapSense_CSD_CSD_CFG_REG = newRegValue;
 1834              		.loc 1 1616 0
 1835 003c 094B     		ldr	r3, .L89+8
 1836 003e FA68     		ldr	r2, [r7, #12]
 1837 0040 1A60     		str	r2, [r3]
1617:.\Generated_Source\PSoC4/CapSense_CSD.c **** 
1618:.\Generated_Source\PSoC4/CapSense_CSD.c **** 	/* Set Idac Value = 0 */
1619:.\Generated_Source\PSoC4/CapSense_CSD.c **** #if (CapSense_CSD_IDAC_CNT == 1u)   
1620:.\Generated_Source\PSoC4/CapSense_CSD.c **** 	CapSense_CSD_CSD_IDAC_REG &= ~(CapSense_CSD_CSD_IDAC1_DATA_MASK);
1621:.\Generated_Source\PSoC4/CapSense_CSD.c **** #else
1622:.\Generated_Source\PSoC4/CapSense_CSD.c **** 	CapSense_CSD_CSD_IDAC_REG &= ~(CapSense_CSD_CSD_IDAC1_DATA_MASK | CapSense_CSD_CSD_IDAC2_DATA_MASK
 1838              		.loc 1 1622 0
ARM GAS  C:\Users\gsgill\AppData\Local\Temp\cc60Ptud.s 			page 62


 1839 0042 0A4B     		ldr	r3, .L89+16
 1840 0044 094A     		ldr	r2, .L89+16
 1841 0046 1168     		ldr	r1, [r2]
 1842 0048 094A     		ldr	r2, .L89+20
 1843 004a 0A40     		and	r2, r1
 1844 004c 1A60     		str	r2, [r3]
1623:.\Generated_Source\PSoC4/CapSense_CSD.c **** #endif /* (CapSense_CSD_IDAC_CNT == 1u) */
1624:.\Generated_Source\PSoC4/CapSense_CSD.c **** 
1625:.\Generated_Source\PSoC4/CapSense_CSD.c **** 	CyIntEnable(CapSense_CSD_ISR_NUMBER);
 1845              		.loc 1 1625 0
 1846 004e 0F20     		mov	r0, #15
 1847 0050 FFF7FEFF 		bl	CyIntEnable
1626:.\Generated_Source\PSoC4/CapSense_CSD.c **** }
 1848              		.loc 1 1626 0
 1849 0054 BD46     		mov	sp, r7
 1850 0056 04B0     		add	sp, sp, #16
 1851              		@ sp needed
 1852 0058 80BD     		pop	{r7, pc}
 1853              	.L90:
 1854 005a C046     		.align	2
 1855              	.L89:
 1856 005c 0C000840 		.word	1074266124
 1857 0060 00000000 		.word	CapSense_CSD_sensorRaw
 1858 0064 04000840 		.word	1074266116
 1859 0068 FF1FDFFF 		.word	-2154497
 1860 006c 08000840 		.word	1074266120
 1861 0070 00FF80FF 		.word	-8323328
 1862              		.cfi_endproc
 1863              	.LFE54:
 1864              		.size	CapSense_CSD_PostScan, .-CapSense_CSD_PostScan
 1865              		.section	.text.CapSense_CSD_EnableShieldElectrode,"ax",%progbits
 1866              		.align	2
 1867              		.global	CapSense_CSD_EnableShieldElectrode
 1868              		.code	16
 1869              		.thumb_func
 1870              		.type	CapSense_CSD_EnableShieldElectrode, %function
 1871              	CapSense_CSD_EnableShieldElectrode:
 1872              	.LFB55:
1627:.\Generated_Source\PSoC4/CapSense_CSD.c **** 
1628:.\Generated_Source\PSoC4/CapSense_CSD.c **** 
1629:.\Generated_Source\PSoC4/CapSense_CSD.c **** /*******************************************************************************
1630:.\Generated_Source\PSoC4/CapSense_CSD.c **** * Function Name: CapSense_CSD_EnableShieldElectrode
1631:.\Generated_Source\PSoC4/CapSense_CSD.c **** ********************************************************************************
1632:.\Generated_Source\PSoC4/CapSense_CSD.c **** *
1633:.\Generated_Source\PSoC4/CapSense_CSD.c **** * Summary:
1634:.\Generated_Source\PSoC4/CapSense_CSD.c **** *  This API enables or disables the shield electrode on a specified port pin.
1635:.\Generated_Source\PSoC4/CapSense_CSD.c **** *
1636:.\Generated_Source\PSoC4/CapSense_CSD.c **** * Parameters:
1637:.\Generated_Source\PSoC4/CapSense_CSD.c **** *  portNumber: contains the shield electrode port number (0, 1, 2).
1638:.\Generated_Source\PSoC4/CapSense_CSD.c **** *  pinNumber: contains the shield electrode pin number (0, 1, 2, ... , 7).
1639:.\Generated_Source\PSoC4/CapSense_CSD.c **** *
1640:.\Generated_Source\PSoC4/CapSense_CSD.c **** * Return:
1641:.\Generated_Source\PSoC4/CapSense_CSD.c **** *  None
1642:.\Generated_Source\PSoC4/CapSense_CSD.c **** *
1643:.\Generated_Source\PSoC4/CapSense_CSD.c **** * Global Variables:
1644:.\Generated_Source\PSoC4/CapSense_CSD.c **** *  CapSense_CSD_prtCfgTbl[] - Contains pointers to the port config registers for each port.
1645:.\Generated_Source\PSoC4/CapSense_CSD.c **** *  CapSense_CSD_prtSelTbl[] - Contains pointers to the HSIOM registers for each port.
ARM GAS  C:\Users\gsgill\AppData\Local\Temp\cc60Ptud.s 			page 63


1646:.\Generated_Source\PSoC4/CapSense_CSD.c **** *
1647:.\Generated_Source\PSoC4/CapSense_CSD.c **** * Side Effects: 
1648:.\Generated_Source\PSoC4/CapSense_CSD.c **** *  None
1649:.\Generated_Source\PSoC4/CapSense_CSD.c **** *
1650:.\Generated_Source\PSoC4/CapSense_CSD.c **** *******************************************************************************/
1651:.\Generated_Source\PSoC4/CapSense_CSD.c **** void CapSense_CSD_EnableShieldElectrode(uint32 pinNumber, uint32 portNumber)
1652:.\Generated_Source\PSoC4/CapSense_CSD.c **** {
 1873              		.loc 1 1652 0
 1874              		.cfi_startproc
 1875 0000 90B5     		push	{r4, r7, lr}
 1876              		.cfi_def_cfa_offset 12
 1877              		.cfi_offset 4, -12
 1878              		.cfi_offset 7, -8
 1879              		.cfi_offset 14, -4
 1880 0002 85B0     		sub	sp, sp, #20
 1881              		.cfi_def_cfa_offset 32
 1882 0004 00AF     		add	r7, sp, #0
 1883              		.cfi_def_cfa_register 7
 1884 0006 7860     		str	r0, [r7, #4]
 1885 0008 3960     		str	r1, [r7]
1653:.\Generated_Source\PSoC4/CapSense_CSD.c **** 	uint32 newRegValue;
1654:.\Generated_Source\PSoC4/CapSense_CSD.c **** 	
1655:.\Generated_Source\PSoC4/CapSense_CSD.c **** 	*CapSense_CSD_prtCfgTbl[portNumber] &= ~(CapSense_CSD_CSD_PIN_MODE_MASK << (pinNumber * CapSense_C
 1886              		.loc 1 1655 0
 1887 000a 1B4B     		ldr	r3, .L92
 1888 000c 3A68     		ldr	r2, [r7]
 1889 000e 9200     		lsl	r2, r2, #2
 1890 0010 D258     		ldr	r2, [r2, r3]
 1891 0012 194B     		ldr	r3, .L92
 1892 0014 3968     		ldr	r1, [r7]
 1893 0016 8900     		lsl	r1, r1, #2
 1894 0018 CB58     		ldr	r3, [r1, r3]
 1895 001a 1868     		ldr	r0, [r3]
 1896 001c 7968     		ldr	r1, [r7, #4]
 1897 001e 0B1C     		mov	r3, r1
 1898 0020 5B00     		lsl	r3, r3, #1
 1899 0022 5B18     		add	r3, r3, r1
 1900 0024 0721     		mov	r1, #7
 1901 0026 0C1C     		mov	r4, r1
 1902 0028 9C40     		lsl	r4, r4, r3
 1903 002a 231C     		mov	r3, r4
 1904 002c DB43     		mvn	r3, r3
 1905 002e 0340     		and	r3, r0
 1906 0030 1360     		str	r3, [r2]
1656:.\Generated_Source\PSoC4/CapSense_CSD.c **** 	newRegValue = *CapSense_CSD_prtSelTbl[portNumber];
 1907              		.loc 1 1656 0
 1908 0032 124B     		ldr	r3, .L92+4
 1909 0034 3A68     		ldr	r2, [r7]
 1910 0036 9200     		lsl	r2, r2, #2
 1911 0038 D358     		ldr	r3, [r2, r3]
 1912 003a 1B68     		ldr	r3, [r3]
 1913 003c FB60     		str	r3, [r7, #12]
1657:.\Generated_Source\PSoC4/CapSense_CSD.c ****     newRegValue &= ~(CapSense_CSD_CSD_HSIOM_MASK << (pinNumber * CapSense_CSD_HSIOM_PIN_CFG_SIZE));
 1914              		.loc 1 1657 0
 1915 003e 7B68     		ldr	r3, [r7, #4]
 1916 0040 9B00     		lsl	r3, r3, #2
 1917 0042 0F22     		mov	r2, #15
ARM GAS  C:\Users\gsgill\AppData\Local\Temp\cc60Ptud.s 			page 64


 1918 0044 111C     		mov	r1, r2
 1919 0046 9940     		lsl	r1, r1, r3
 1920 0048 0B1C     		mov	r3, r1
 1921 004a DA43     		mvn	r2, r3
 1922 004c FB68     		ldr	r3, [r7, #12]
 1923 004e 1340     		and	r3, r2
 1924 0050 FB60     		str	r3, [r7, #12]
1658:.\Generated_Source\PSoC4/CapSense_CSD.c ****     newRegValue |= (CapSense_CSD_CSD_SHIELD_PORT_MODE << (pinNumber * CapSense_CSD_HSIOM_PIN_CFG_SI
 1925              		.loc 1 1658 0
 1926 0052 7B68     		ldr	r3, [r7, #4]
 1927 0054 9B00     		lsl	r3, r3, #2
 1928 0056 0522     		mov	r2, #5
 1929 0058 141C     		mov	r4, r2
 1930 005a 9C40     		lsl	r4, r4, r3
 1931 005c 231C     		mov	r3, r4
 1932 005e FA68     		ldr	r2, [r7, #12]
 1933 0060 1343     		orr	r3, r2
 1934 0062 FB60     		str	r3, [r7, #12]
1659:.\Generated_Source\PSoC4/CapSense_CSD.c ****     *CapSense_CSD_prtSelTbl[portNumber] = newRegValue;
 1935              		.loc 1 1659 0
 1936 0064 054B     		ldr	r3, .L92+4
 1937 0066 3A68     		ldr	r2, [r7]
 1938 0068 9200     		lsl	r2, r2, #2
 1939 006a D358     		ldr	r3, [r2, r3]
 1940 006c FA68     		ldr	r2, [r7, #12]
 1941 006e 1A60     		str	r2, [r3]
1660:.\Generated_Source\PSoC4/CapSense_CSD.c **** }
 1942              		.loc 1 1660 0
 1943 0070 BD46     		mov	sp, r7
 1944 0072 05B0     		add	sp, sp, #20
 1945              		@ sp needed
 1946 0074 90BD     		pop	{r4, r7, pc}
 1947              	.L93:
 1948 0076 C046     		.align	2
 1949              	.L92:
 1950 0078 00000000 		.word	CapSense_CSD_prtCfgTbl
 1951 007c 00000000 		.word	CapSense_CSD_prtSelTbl
 1952              		.cfi_endproc
 1953              	.LFE55:
 1954              		.size	CapSense_CSD_EnableShieldElectrode, .-CapSense_CSD_EnableShieldElectrode
 1955              		.section	.text.CapSense_CSD_SetShieldDelay,"ax",%progbits
 1956              		.align	2
 1957              		.global	CapSense_CSD_SetShieldDelay
 1958              		.code	16
 1959              		.thumb_func
 1960              		.type	CapSense_CSD_SetShieldDelay, %function
 1961              	CapSense_CSD_SetShieldDelay:
 1962              	.LFB56:
1661:.\Generated_Source\PSoC4/CapSense_CSD.c **** 
1662:.\Generated_Source\PSoC4/CapSense_CSD.c **** 
1663:.\Generated_Source\PSoC4/CapSense_CSD.c **** /*******************************************************************************
1664:.\Generated_Source\PSoC4/CapSense_CSD.c **** * Function Name: CapSense_CSD_SetShieldDelay
1665:.\Generated_Source\PSoC4/CapSense_CSD.c **** ********************************************************************************
1666:.\Generated_Source\PSoC4/CapSense_CSD.c **** *
1667:.\Generated_Source\PSoC4/CapSense_CSD.c **** * Summary:
1668:.\Generated_Source\PSoC4/CapSense_CSD.c **** *  This API sets a shield delay.
1669:.\Generated_Source\PSoC4/CapSense_CSD.c **** *
ARM GAS  C:\Users\gsgill\AppData\Local\Temp\cc60Ptud.s 			page 65


1670:.\Generated_Source\PSoC4/CapSense_CSD.c **** * Parameters:
1671:.\Generated_Source\PSoC4/CapSense_CSD.c **** *  delay:  shield delay value:
1672:.\Generated_Source\PSoC4/CapSense_CSD.c **** *                               0 - no delay
1673:.\Generated_Source\PSoC4/CapSense_CSD.c **** *                               1 - 1 cycle delay
1674:.\Generated_Source\PSoC4/CapSense_CSD.c **** *                               2 - 2 cycles delay
1675:.\Generated_Source\PSoC4/CapSense_CSD.c **** *
1676:.\Generated_Source\PSoC4/CapSense_CSD.c **** * Return:
1677:.\Generated_Source\PSoC4/CapSense_CSD.c **** *  None
1678:.\Generated_Source\PSoC4/CapSense_CSD.c **** *
1679:.\Generated_Source\PSoC4/CapSense_CSD.c **** * Global Variables:
1680:.\Generated_Source\PSoC4/CapSense_CSD.c **** *  None
1681:.\Generated_Source\PSoC4/CapSense_CSD.c **** *
1682:.\Generated_Source\PSoC4/CapSense_CSD.c **** * Side Effects: 
1683:.\Generated_Source\PSoC4/CapSense_CSD.c **** *  None
1684:.\Generated_Source\PSoC4/CapSense_CSD.c **** *
1685:.\Generated_Source\PSoC4/CapSense_CSD.c **** *******************************************************************************/
1686:.\Generated_Source\PSoC4/CapSense_CSD.c **** void CapSense_CSD_SetShieldDelay(uint32 delay)
1687:.\Generated_Source\PSoC4/CapSense_CSD.c **** {
 1963              		.loc 1 1687 0
 1964              		.cfi_startproc
 1965 0000 80B5     		push	{r7, lr}
 1966              		.cfi_def_cfa_offset 8
 1967              		.cfi_offset 7, -8
 1968              		.cfi_offset 14, -4
 1969 0002 84B0     		sub	sp, sp, #16
 1970              		.cfi_def_cfa_offset 24
 1971 0004 00AF     		add	r7, sp, #0
 1972              		.cfi_def_cfa_register 7
 1973 0006 7860     		str	r0, [r7, #4]
1688:.\Generated_Source\PSoC4/CapSense_CSD.c ****     uint32 newRegValue;
1689:.\Generated_Source\PSoC4/CapSense_CSD.c ****     
1690:.\Generated_Source\PSoC4/CapSense_CSD.c ****     delay &= 0x03u;
 1974              		.loc 1 1690 0
 1975 0008 7A68     		ldr	r2, [r7, #4]
 1976 000a 0323     		mov	r3, #3
 1977 000c 1340     		and	r3, r2
 1978 000e 7B60     		str	r3, [r7, #4]
1691:.\Generated_Source\PSoC4/CapSense_CSD.c ****     
1692:.\Generated_Source\PSoC4/CapSense_CSD.c ****     newRegValue = CapSense_CSD_CSD_CFG_REG;
 1979              		.loc 1 1692 0
 1980 0010 064B     		ldr	r3, .L95
 1981 0012 1B68     		ldr	r3, [r3]
 1982 0014 FB60     		str	r3, [r7, #12]
1693:.\Generated_Source\PSoC4/CapSense_CSD.c ****     newRegValue &= (uint32)(~(uint32)CapSense_CSD_SHIELD_DELAY);    
1694:.\Generated_Source\PSoC4/CapSense_CSD.c ****     newRegValue |= (delay << CapSense_CSD_CSD_CFG_SHIELD_DELAY_POS);    
 1983              		.loc 1 1694 0
 1984 0016 7B68     		ldr	r3, [r7, #4]
 1985 0018 5B02     		lsl	r3, r3, #9
 1986 001a FA68     		ldr	r2, [r7, #12]
 1987 001c 1343     		orr	r3, r2
 1988 001e FB60     		str	r3, [r7, #12]
1695:.\Generated_Source\PSoC4/CapSense_CSD.c ****     CapSense_CSD_CSD_CFG_REG = newRegValue;
 1989              		.loc 1 1695 0
 1990 0020 024B     		ldr	r3, .L95
 1991 0022 FA68     		ldr	r2, [r7, #12]
 1992 0024 1A60     		str	r2, [r3]
1696:.\Generated_Source\PSoC4/CapSense_CSD.c **** }
ARM GAS  C:\Users\gsgill\AppData\Local\Temp\cc60Ptud.s 			page 66


 1993              		.loc 1 1696 0
 1994 0026 BD46     		mov	sp, r7
 1995 0028 04B0     		add	sp, sp, #16
 1996              		@ sp needed
 1997 002a 80BD     		pop	{r7, pc}
 1998              	.L96:
 1999              		.align	2
 2000              	.L95:
 2001 002c 04000840 		.word	1074266116
 2002              		.cfi_endproc
 2003              	.LFE56:
 2004              		.size	CapSense_CSD_SetShieldDelay, .-CapSense_CSD_SetShieldDelay
 2005              		.section	.text.CapSense_CSD_ReadCurrentScanningSensor,"ax",%progbits
 2006              		.align	2
 2007              		.global	CapSense_CSD_ReadCurrentScanningSensor
 2008              		.code	16
 2009              		.thumb_func
 2010              		.type	CapSense_CSD_ReadCurrentScanningSensor, %function
 2011              	CapSense_CSD_ReadCurrentScanningSensor:
 2012              	.LFB57:
1697:.\Generated_Source\PSoC4/CapSense_CSD.c **** 
1698:.\Generated_Source\PSoC4/CapSense_CSD.c **** 
1699:.\Generated_Source\PSoC4/CapSense_CSD.c **** /*******************************************************************************
1700:.\Generated_Source\PSoC4/CapSense_CSD.c **** * Function Name: CapSense_CSD_ReadCurrentScanningSensor
1701:.\Generated_Source\PSoC4/CapSense_CSD.c **** ********************************************************************************
1702:.\Generated_Source\PSoC4/CapSense_CSD.c **** *
1703:.\Generated_Source\PSoC4/CapSense_CSD.c **** * Summary:
1704:.\Generated_Source\PSoC4/CapSense_CSD.c **** *  This API returns scanning sensor number when sensor scan is in progress. 
1705:.\Generated_Source\PSoC4/CapSense_CSD.c **** *  When sensor scan is completed the API returns 
1706:.\Generated_Source\PSoC4/CapSense_CSD.c **** *  $INSTANCE_NAME`_NOT_SENSOR (0xFFFFFFFF) (when no sensor is scanned).
1707:.\Generated_Source\PSoC4/CapSense_CSD.c **** *
1708:.\Generated_Source\PSoC4/CapSense_CSD.c **** * Parameters:
1709:.\Generated_Source\PSoC4/CapSense_CSD.c **** *	None.
1710:.\Generated_Source\PSoC4/CapSense_CSD.c **** *
1711:.\Generated_Source\PSoC4/CapSense_CSD.c **** * Return:
1712:.\Generated_Source\PSoC4/CapSense_CSD.c **** *  Returns Sensor number if sensor is being scanned and 
1713:.\Generated_Source\PSoC4/CapSense_CSD.c **** *  $INSTANCE_NAME`_NOT_SENSOR (0xFFFFFFFF) if scanning is complete.
1714:.\Generated_Source\PSoC4/CapSense_CSD.c **** *
1715:.\Generated_Source\PSoC4/CapSense_CSD.c **** * Global Variables:
1716:.\Generated_Source\PSoC4/CapSense_CSD.c **** *  CapSense_CSD_sensorIndex - the sensor number is being scanned.
1717:.\Generated_Source\PSoC4/CapSense_CSD.c **** *
1718:.\Generated_Source\PSoC4/CapSense_CSD.c **** * Side Effects: 
1719:.\Generated_Source\PSoC4/CapSense_CSD.c **** *  None
1720:.\Generated_Source\PSoC4/CapSense_CSD.c **** *
1721:.\Generated_Source\PSoC4/CapSense_CSD.c **** *******************************************************************************/
1722:.\Generated_Source\PSoC4/CapSense_CSD.c **** uint32 CapSense_CSD_ReadCurrentScanningSensor(void)
1723:.\Generated_Source\PSoC4/CapSense_CSD.c **** {
 2013              		.loc 1 1723 0
 2014              		.cfi_startproc
 2015 0000 80B5     		push	{r7, lr}
 2016              		.cfi_def_cfa_offset 8
 2017              		.cfi_offset 7, -8
 2018              		.cfi_offset 14, -4
 2019 0002 00AF     		add	r7, sp, #0
 2020              		.cfi_def_cfa_register 7
1724:.\Generated_Source\PSoC4/CapSense_CSD.c ****     return ((uint32)(( 0u != (CapSense_CSD_csdStatusVar & CapSense_CSD_SW_STS_BUSY)) ? 
 2021              		.loc 1 1724 0
ARM GAS  C:\Users\gsgill\AppData\Local\Temp\cc60Ptud.s 			page 67


 2022 0004 074B     		ldr	r3, .L101
 2023 0006 1B78     		ldrb	r3, [r3]
 2024 0008 DBB2     		uxtb	r3, r3
 2025 000a 1A1C     		mov	r2, r3
 2026 000c 0123     		mov	r3, #1
 2027 000e 1340     		and	r3, r2
 2028 0010 03D0     		beq	.L98
 2029              		.loc 1 1724 0 is_stmt 0 discriminator 1
 2030 0012 054B     		ldr	r3, .L101+4
 2031 0014 1B78     		ldrb	r3, [r3]
 2032 0016 DBB2     		uxtb	r3, r3
 2033 0018 01E0     		b	.L99
 2034              	.L98:
 2035              		.loc 1 1724 0 discriminator 2
 2036 001a 0123     		mov	r3, #1
 2037 001c 5B42     		neg	r3, r3
 2038              	.L99:
1725:.\Generated_Source\PSoC4/CapSense_CSD.c ****                      CapSense_CSD_sensorIndex : CapSense_CSD_NOT_SENSOR));
1726:.\Generated_Source\PSoC4/CapSense_CSD.c **** }
 2039              		.loc 1 1726 0 is_stmt 1 discriminator 3
 2040 001e 181C     		mov	r0, r3
 2041 0020 BD46     		mov	sp, r7
 2042              		@ sp needed
 2043 0022 80BD     		pop	{r7, pc}
 2044              	.L102:
 2045              		.align	2
 2046              	.L101:
 2047 0024 00000000 		.word	CapSense_CSD_csdStatusVar
 2048 0028 00000000 		.word	CapSense_CSD_sensorIndex
 2049              		.cfi_endproc
 2050              	.LFE57:
 2051              		.size	CapSense_CSD_ReadCurrentScanningSensor, .-CapSense_CSD_ReadCurrentScanningSensor
 2052              		.section	.text.CapSense_CSD_GetBitValue,"ax",%progbits
 2053              		.align	2
 2054              		.global	CapSense_CSD_GetBitValue
 2055              		.code	16
 2056              		.thumb_func
 2057              		.type	CapSense_CSD_GetBitValue, %function
 2058              	CapSense_CSD_GetBitValue:
 2059              	.LFB58:
1727:.\Generated_Source\PSoC4/CapSense_CSD.c **** 
1728:.\Generated_Source\PSoC4/CapSense_CSD.c **** 
1729:.\Generated_Source\PSoC4/CapSense_CSD.c **** /*******************************************************************************
1730:.\Generated_Source\PSoC4/CapSense_CSD.c **** * Function Name: CapSense_CSD_GetBitValue
1731:.\Generated_Source\PSoC4/CapSense_CSD.c **** ********************************************************************************
1732:.\Generated_Source\PSoC4/CapSense_CSD.c **** *
1733:.\Generated_Source\PSoC4/CapSense_CSD.c **** * Summary:
1734:.\Generated_Source\PSoC4/CapSense_CSD.c **** *  The API returns a bit status of the bit in the table array which contains the masks.
1735:.\Generated_Source\PSoC4/CapSense_CSD.c **** * 
1736:.\Generated_Source\PSoC4/CapSense_CSD.c **** * Parameters:
1737:.\Generated_Source\PSoC4/CapSense_CSD.c **** *  table[] - array with bit masks.
1738:.\Generated_Source\PSoC4/CapSense_CSD.c **** *  position - position of bit in the table[] array.
1739:.\Generated_Source\PSoC4/CapSense_CSD.c **** *
1740:.\Generated_Source\PSoC4/CapSense_CSD.c **** * Return:
1741:.\Generated_Source\PSoC4/CapSense_CSD.c **** *  0 - bit is not set; 1 - bit is set.
1742:.\Generated_Source\PSoC4/CapSense_CSD.c **** *
1743:.\Generated_Source\PSoC4/CapSense_CSD.c **** * Global Variables:
ARM GAS  C:\Users\gsgill\AppData\Local\Temp\cc60Ptud.s 			page 68


1744:.\Generated_Source\PSoC4/CapSense_CSD.c **** *  None
1745:.\Generated_Source\PSoC4/CapSense_CSD.c **** *
1746:.\Generated_Source\PSoC4/CapSense_CSD.c **** * Side Effects:
1747:.\Generated_Source\PSoC4/CapSense_CSD.c **** *  None
1748:.\Generated_Source\PSoC4/CapSense_CSD.c **** *
1749:.\Generated_Source\PSoC4/CapSense_CSD.c **** *******************************************************************************/
1750:.\Generated_Source\PSoC4/CapSense_CSD.c **** uint32 CapSense_CSD_GetBitValue(const uint8 table[], uint32 position)
1751:.\Generated_Source\PSoC4/CapSense_CSD.c **** {
 2060              		.loc 1 1751 0
 2061              		.cfi_startproc
 2062 0000 80B5     		push	{r7, lr}
 2063              		.cfi_def_cfa_offset 8
 2064              		.cfi_offset 7, -8
 2065              		.cfi_offset 14, -4
 2066 0002 84B0     		sub	sp, sp, #16
 2067              		.cfi_def_cfa_offset 24
 2068 0004 00AF     		add	r7, sp, #0
 2069              		.cfi_def_cfa_register 7
 2070 0006 7860     		str	r0, [r7, #4]
 2071 0008 3960     		str	r1, [r7]
1752:.\Generated_Source\PSoC4/CapSense_CSD.c ****     uint32 offset;
1753:.\Generated_Source\PSoC4/CapSense_CSD.c **** 	uint8 enMask;
1754:.\Generated_Source\PSoC4/CapSense_CSD.c **** 	
1755:.\Generated_Source\PSoC4/CapSense_CSD.c **** 	/* position is divided by 8 to calculate the element of the 
1756:.\Generated_Source\PSoC4/CapSense_CSD.c **** 	   table[] array that contains the enable bit 
1757:.\Generated_Source\PSoC4/CapSense_CSD.c **** 	   for an appropriate sensor.
1758:.\Generated_Source\PSoC4/CapSense_CSD.c **** 	*/
1759:.\Generated_Source\PSoC4/CapSense_CSD.c **** 	offset = (position >> 3u);
 2072              		.loc 1 1759 0
 2073 000a 3B68     		ldr	r3, [r7]
 2074 000c DB08     		lsr	r3, r3, #3
 2075 000e FB60     		str	r3, [r7, #12]
1760:.\Generated_Source\PSoC4/CapSense_CSD.c **** 	
1761:.\Generated_Source\PSoC4/CapSense_CSD.c **** 	/* The enMask calculation for the appropriate sensor. Operation (position & 0x07u) 
1762:.\Generated_Source\PSoC4/CapSense_CSD.c **** 	   intends to calculate the enable bit offset for the 8-bit element of the 
1763:.\Generated_Source\PSoC4/CapSense_CSD.c **** 	   table[] array.
1764:.\Generated_Source\PSoC4/CapSense_CSD.c **** 	*/
1765:.\Generated_Source\PSoC4/CapSense_CSD.c **** 	enMask = 0x01u << (position & 0x07u);
 2076              		.loc 1 1765 0
 2077 0010 3A68     		ldr	r2, [r7]
 2078 0012 0723     		mov	r3, #7
 2079 0014 1340     		and	r3, r2
 2080 0016 0122     		mov	r2, #1
 2081 0018 9A40     		lsl	r2, r2, r3
 2082 001a 3B1C     		mov	r3, r7
 2083 001c 0B33     		add	r3, r3, #11
 2084 001e 1A70     		strb	r2, [r3]
1766:.\Generated_Source\PSoC4/CapSense_CSD.c ****     
1767:.\Generated_Source\PSoC4/CapSense_CSD.c ****     return ((0u !=(table[offset] & enMask)) ? 1Lu : 0Lu);
 2085              		.loc 1 1767 0
 2086 0020 7A68     		ldr	r2, [r7, #4]
 2087 0022 FB68     		ldr	r3, [r7, #12]
 2088 0024 D318     		add	r3, r2, r3
 2089 0026 1B78     		ldrb	r3, [r3]
 2090 0028 3A1C     		mov	r2, r7
 2091 002a 0B32     		add	r2, r2, #11
 2092 002c 1278     		ldrb	r2, [r2]
ARM GAS  C:\Users\gsgill\AppData\Local\Temp\cc60Ptud.s 			page 69


 2093 002e 1340     		and	r3, r2
 2094 0030 DBB2     		uxtb	r3, r3
 2095 0032 002B     		cmp	r3, #0
 2096 0034 01D0     		beq	.L104
 2097              		.loc 1 1767 0 is_stmt 0 discriminator 1
 2098 0036 0123     		mov	r3, #1
 2099 0038 00E0     		b	.L105
 2100              	.L104:
 2101              		.loc 1 1767 0 discriminator 2
 2102 003a 0023     		mov	r3, #0
 2103              	.L105:
1768:.\Generated_Source\PSoC4/CapSense_CSD.c **** }
 2104              		.loc 1 1768 0 is_stmt 1 discriminator 3
 2105 003c 181C     		mov	r0, r3
 2106 003e BD46     		mov	sp, r7
 2107 0040 04B0     		add	sp, sp, #16
 2108              		@ sp needed
 2109 0042 80BD     		pop	{r7, pc}
 2110              		.cfi_endproc
 2111              	.LFE58:
 2112              		.size	CapSense_CSD_GetBitValue, .-CapSense_CSD_GetBitValue
 2113              		.section	.text.CapSense_CSD_SetBitValue,"ax",%progbits
 2114              		.align	2
 2115              		.global	CapSense_CSD_SetBitValue
 2116              		.code	16
 2117              		.thumb_func
 2118              		.type	CapSense_CSD_SetBitValue, %function
 2119              	CapSense_CSD_SetBitValue:
 2120              	.LFB59:
1769:.\Generated_Source\PSoC4/CapSense_CSD.c **** 
1770:.\Generated_Source\PSoC4/CapSense_CSD.c **** 
1771:.\Generated_Source\PSoC4/CapSense_CSD.c **** /*******************************************************************************
1772:.\Generated_Source\PSoC4/CapSense_CSD.c **** * Function Name: CapSense_CSD_SetBitValue
1773:.\Generated_Source\PSoC4/CapSense_CSD.c **** ********************************************************************************
1774:.\Generated_Source\PSoC4/CapSense_CSD.c **** *
1775:.\Generated_Source\PSoC4/CapSense_CSD.c **** * Summary:
1776:.\Generated_Source\PSoC4/CapSense_CSD.c **** *  The API sets a bit status of the bit in the table array which contains masks.
1777:.\Generated_Source\PSoC4/CapSense_CSD.c **** * 
1778:.\Generated_Source\PSoC4/CapSense_CSD.c **** * Parameters:
1779:.\Generated_Source\PSoC4/CapSense_CSD.c **** *  table[] - array with bit masks.
1780:.\Generated_Source\PSoC4/CapSense_CSD.c **** *  position - position of bit in the table[] array.
1781:.\Generated_Source\PSoC4/CapSense_CSD.c **** *  value: 0 - bit is not set; 1 - bit is set.
1782:.\Generated_Source\PSoC4/CapSense_CSD.c **** *
1783:.\Generated_Source\PSoC4/CapSense_CSD.c **** * Return:
1784:.\Generated_Source\PSoC4/CapSense_CSD.c **** *  None
1785:.\Generated_Source\PSoC4/CapSense_CSD.c **** *
1786:.\Generated_Source\PSoC4/CapSense_CSD.c **** * Global Variables:
1787:.\Generated_Source\PSoC4/CapSense_CSD.c **** *  None
1788:.\Generated_Source\PSoC4/CapSense_CSD.c **** *
1789:.\Generated_Source\PSoC4/CapSense_CSD.c **** * Side Effects:
1790:.\Generated_Source\PSoC4/CapSense_CSD.c **** *  None
1791:.\Generated_Source\PSoC4/CapSense_CSD.c **** *
1792:.\Generated_Source\PSoC4/CapSense_CSD.c **** *******************************************************************************/
1793:.\Generated_Source\PSoC4/CapSense_CSD.c **** void CapSense_CSD_SetBitValue(uint8 table[], uint32 position, uint32 value)
1794:.\Generated_Source\PSoC4/CapSense_CSD.c **** {
 2121              		.loc 1 1794 0
 2122              		.cfi_startproc
ARM GAS  C:\Users\gsgill\AppData\Local\Temp\cc60Ptud.s 			page 70


 2123 0000 80B5     		push	{r7, lr}
 2124              		.cfi_def_cfa_offset 8
 2125              		.cfi_offset 7, -8
 2126              		.cfi_offset 14, -4
 2127 0002 86B0     		sub	sp, sp, #24
 2128              		.cfi_def_cfa_offset 32
 2129 0004 00AF     		add	r7, sp, #0
 2130              		.cfi_def_cfa_register 7
 2131 0006 F860     		str	r0, [r7, #12]
 2132 0008 B960     		str	r1, [r7, #8]
 2133 000a 7A60     		str	r2, [r7, #4]
1795:.\Generated_Source\PSoC4/CapSense_CSD.c ****     uint32 offset;
1796:.\Generated_Source\PSoC4/CapSense_CSD.c **** 	uint8 enMask;
1797:.\Generated_Source\PSoC4/CapSense_CSD.c **** 	
1798:.\Generated_Source\PSoC4/CapSense_CSD.c **** 	/* position is divided by 8 to calculate the element of the 
1799:.\Generated_Source\PSoC4/CapSense_CSD.c **** 	   table[] array that contains the enable bit 
1800:.\Generated_Source\PSoC4/CapSense_CSD.c **** 	   for an appropriate sensor.
1801:.\Generated_Source\PSoC4/CapSense_CSD.c **** 	*/
1802:.\Generated_Source\PSoC4/CapSense_CSD.c **** 	offset = (position >> 3u);
 2134              		.loc 1 1802 0
 2135 000c BB68     		ldr	r3, [r7, #8]
 2136 000e DB08     		lsr	r3, r3, #3
 2137 0010 7B61     		str	r3, [r7, #20]
1803:.\Generated_Source\PSoC4/CapSense_CSD.c **** 	
1804:.\Generated_Source\PSoC4/CapSense_CSD.c **** 	/* The enMask calculation for the appropriate sensor. Operation (position & 0x07u) 
1805:.\Generated_Source\PSoC4/CapSense_CSD.c **** 	   intends to calculate the enable bit offset for the 8-bit element of the 
1806:.\Generated_Source\PSoC4/CapSense_CSD.c **** 	   table[] array.
1807:.\Generated_Source\PSoC4/CapSense_CSD.c **** 	*/
1808:.\Generated_Source\PSoC4/CapSense_CSD.c **** 	enMask = 0x01u << (position & 0x07u);
 2138              		.loc 1 1808 0
 2139 0012 BA68     		ldr	r2, [r7, #8]
 2140 0014 0723     		mov	r3, #7
 2141 0016 1340     		and	r3, r2
 2142 0018 0122     		mov	r2, #1
 2143 001a 9A40     		lsl	r2, r2, r3
 2144 001c 3B1C     		mov	r3, r7
 2145 001e 1333     		add	r3, r3, #19
 2146 0020 1A70     		strb	r2, [r3]
1809:.\Generated_Source\PSoC4/CapSense_CSD.c **** 	
1810:.\Generated_Source\PSoC4/CapSense_CSD.c **** 	if(0u != value)
 2147              		.loc 1 1810 0
 2148 0022 7B68     		ldr	r3, [r7, #4]
 2149 0024 002B     		cmp	r3, #0
 2150 0026 0DD0     		beq	.L108
1811:.\Generated_Source\PSoC4/CapSense_CSD.c **** 	{
1812:.\Generated_Source\PSoC4/CapSense_CSD.c **** 		table[offset] |= enMask;
 2151              		.loc 1 1812 0
 2152 0028 FA68     		ldr	r2, [r7, #12]
 2153 002a 7B69     		ldr	r3, [r7, #20]
 2154 002c D318     		add	r3, r2, r3
 2155 002e F968     		ldr	r1, [r7, #12]
 2156 0030 7A69     		ldr	r2, [r7, #20]
 2157 0032 8A18     		add	r2, r1, r2
 2158 0034 1178     		ldrb	r1, [r2]
 2159 0036 3A1C     		mov	r2, r7
 2160 0038 1332     		add	r2, r2, #19
 2161 003a 1278     		ldrb	r2, [r2]
ARM GAS  C:\Users\gsgill\AppData\Local\Temp\cc60Ptud.s 			page 71


 2162 003c 0A43     		orr	r2, r1
 2163 003e D2B2     		uxtb	r2, r2
 2164 0040 1A70     		strb	r2, [r3]
 2165 0042 0EE0     		b	.L107
 2166              	.L108:
1813:.\Generated_Source\PSoC4/CapSense_CSD.c **** 	}
1814:.\Generated_Source\PSoC4/CapSense_CSD.c **** 	else
1815:.\Generated_Source\PSoC4/CapSense_CSD.c **** 	{
1816:.\Generated_Source\PSoC4/CapSense_CSD.c **** 		table[offset] &= (uint8)~(enMask);
 2167              		.loc 1 1816 0
 2168 0044 FA68     		ldr	r2, [r7, #12]
 2169 0046 7B69     		ldr	r3, [r7, #20]
 2170 0048 D318     		add	r3, r2, r3
 2171 004a F968     		ldr	r1, [r7, #12]
 2172 004c 7A69     		ldr	r2, [r7, #20]
 2173 004e 8A18     		add	r2, r1, r2
 2174 0050 1278     		ldrb	r2, [r2]
 2175 0052 391C     		mov	r1, r7
 2176 0054 1331     		add	r1, r1, #19
 2177 0056 0978     		ldrb	r1, [r1]
 2178 0058 C943     		mvn	r1, r1
 2179 005a C9B2     		uxtb	r1, r1
 2180 005c 0A40     		and	r2, r1
 2181 005e D2B2     		uxtb	r2, r2
 2182 0060 1A70     		strb	r2, [r3]
 2183              	.L107:
1817:.\Generated_Source\PSoC4/CapSense_CSD.c **** 	}
1818:.\Generated_Source\PSoC4/CapSense_CSD.c **** }
 2184              		.loc 1 1818 0
 2185 0062 BD46     		mov	sp, r7
 2186 0064 06B0     		add	sp, sp, #24
 2187              		@ sp needed
 2188 0066 80BD     		pop	{r7, pc}
 2189              		.cfi_endproc
 2190              	.LFE59:
 2191              		.size	CapSense_CSD_SetBitValue, .-CapSense_CSD_SetBitValue
 2192              		.section	.text.CapSense_CSD_GetSenseClkDivider,"ax",%progbits
 2193              		.align	2
 2194              		.global	CapSense_CSD_GetSenseClkDivider
 2195              		.code	16
 2196              		.thumb_func
 2197              		.type	CapSense_CSD_GetSenseClkDivider, %function
 2198              	CapSense_CSD_GetSenseClkDivider:
 2199              	.LFB60:
1819:.\Generated_Source\PSoC4/CapSense_CSD.c **** 
1820:.\Generated_Source\PSoC4/CapSense_CSD.c **** 
1821:.\Generated_Source\PSoC4/CapSense_CSD.c **** 
1822:.\Generated_Source\PSoC4/CapSense_CSD.c **** /*******************************************************************************
1823:.\Generated_Source\PSoC4/CapSense_CSD.c **** * Function Name: CapSense_CSD_GetSenseClkDivider
1824:.\Generated_Source\PSoC4/CapSense_CSD.c **** ********************************************************************************
1825:.\Generated_Source\PSoC4/CapSense_CSD.c **** *
1826:.\Generated_Source\PSoC4/CapSense_CSD.c **** * Summary:
1827:.\Generated_Source\PSoC4/CapSense_CSD.c **** *  This API returns a value of the sense clock divider for the  sensor.
1828:.\Generated_Source\PSoC4/CapSense_CSD.c **** *
1829:.\Generated_Source\PSoC4/CapSense_CSD.c **** * Parameters:
1830:.\Generated_Source\PSoC4/CapSense_CSD.c **** *  sensor: sensor index. The index value can be 
1831:.\Generated_Source\PSoC4/CapSense_CSD.c **** *  from 0 to (CapSense_CSD_TOTAL_SENSOR_COUNT-1).
ARM GAS  C:\Users\gsgill\AppData\Local\Temp\cc60Ptud.s 			page 72


1832:.\Generated_Source\PSoC4/CapSense_CSD.c **** *
1833:.\Generated_Source\PSoC4/CapSense_CSD.c **** * Return:
1834:.\Generated_Source\PSoC4/CapSense_CSD.c **** *  This API returns the sense clock divider of the sensor. 
1835:.\Generated_Source\PSoC4/CapSense_CSD.c **** *
1836:.\Generated_Source\PSoC4/CapSense_CSD.c **** * Global Variables:
1837:.\Generated_Source\PSoC4/CapSense_CSD.c **** *  CapSense_CSD_senseClkDividerVal[] - stores the sense clock divider values.
1838:.\Generated_Source\PSoC4/CapSense_CSD.c **** * 
1839:.\Generated_Source\PSoC4/CapSense_CSD.c **** * Side Effects:
1840:.\Generated_Source\PSoC4/CapSense_CSD.c **** *  None
1841:.\Generated_Source\PSoC4/CapSense_CSD.c **** *
1842:.\Generated_Source\PSoC4/CapSense_CSD.c **** *******************************************************************************/
1843:.\Generated_Source\PSoC4/CapSense_CSD.c **** uint32 CapSense_CSD_GetSenseClkDivider(uint32 sensor)
1844:.\Generated_Source\PSoC4/CapSense_CSD.c **** {
 2200              		.loc 1 1844 0
 2201              		.cfi_startproc
 2202 0000 80B5     		push	{r7, lr}
 2203              		.cfi_def_cfa_offset 8
 2204              		.cfi_offset 7, -8
 2205              		.cfi_offset 14, -4
 2206 0002 82B0     		sub	sp, sp, #8
 2207              		.cfi_def_cfa_offset 16
 2208 0004 00AF     		add	r7, sp, #0
 2209              		.cfi_def_cfa_register 7
 2210 0006 7860     		str	r0, [r7, #4]
1845:.\Generated_Source\PSoC4/CapSense_CSD.c **** 	#if(0u != CapSense_CSD_MULTIPLE_FREQUENCY_SET)
1846:.\Generated_Source\PSoC4/CapSense_CSD.c **** 		return((uint32)CapSense_CSD_senseClkDividerVal[sensor]);
 2211              		.loc 1 1846 0
 2212 0008 034A     		ldr	r2, .L112
 2213 000a 7B68     		ldr	r3, [r7, #4]
 2214 000c D318     		add	r3, r2, r3
 2215 000e 1B78     		ldrb	r3, [r3]
1847:.\Generated_Source\PSoC4/CapSense_CSD.c **** 	#else
1848:.\Generated_Source\PSoC4/CapSense_CSD.c **** 		return((uint32)CapSense_CSD_senseClkDividerVal);
1849:.\Generated_Source\PSoC4/CapSense_CSD.c **** 	#endif /* (0u != CapSense_CSD_MULTIPLE_FREQUENCY_SET) */
1850:.\Generated_Source\PSoC4/CapSense_CSD.c **** }
 2216              		.loc 1 1850 0
 2217 0010 181C     		mov	r0, r3
 2218 0012 BD46     		mov	sp, r7
 2219 0014 02B0     		add	sp, sp, #8
 2220              		@ sp needed
 2221 0016 80BD     		pop	{r7, pc}
 2222              	.L113:
 2223              		.align	2
 2224              	.L112:
 2225 0018 00000000 		.word	CapSense_CSD_senseClkDividerVal
 2226              		.cfi_endproc
 2227              	.LFE60:
 2228              		.size	CapSense_CSD_GetSenseClkDivider, .-CapSense_CSD_GetSenseClkDivider
 2229              		.section	.text.CapSense_CSD_SetSenseClkDivider,"ax",%progbits
 2230              		.align	2
 2231              		.global	CapSense_CSD_SetSenseClkDivider
 2232              		.code	16
 2233              		.thumb_func
 2234              		.type	CapSense_CSD_SetSenseClkDivider, %function
 2235              	CapSense_CSD_SetSenseClkDivider:
 2236              	.LFB61:
1851:.\Generated_Source\PSoC4/CapSense_CSD.c **** 
ARM GAS  C:\Users\gsgill\AppData\Local\Temp\cc60Ptud.s 			page 73


1852:.\Generated_Source\PSoC4/CapSense_CSD.c **** #if (CapSense_CSD_TUNING_METHOD != CapSense_CSD__TUNING_NONE)
1853:.\Generated_Source\PSoC4/CapSense_CSD.c **** 	/*******************************************************************************
1854:.\Generated_Source\PSoC4/CapSense_CSD.c **** 	* Function Name: CapSense_CSD_SetSenseClkDivider
1855:.\Generated_Source\PSoC4/CapSense_CSD.c **** 	********************************************************************************
1856:.\Generated_Source\PSoC4/CapSense_CSD.c **** 	*
1857:.\Generated_Source\PSoC4/CapSense_CSD.c **** 	* Summary:
1858:.\Generated_Source\PSoC4/CapSense_CSD.c **** 	*  This API sets a value of the sense clock divider for the  sensor. 
1859:.\Generated_Source\PSoC4/CapSense_CSD.c **** 	*
1860:.\Generated_Source\PSoC4/CapSense_CSD.c **** 	* Parameters:
1861:.\Generated_Source\PSoC4/CapSense_CSD.c **** 	*  sensor:  Sensor index.
1862:.\Generated_Source\PSoC4/CapSense_CSD.c **** 	*  senseClk: represents the sense clock value.
1863:.\Generated_Source\PSoC4/CapSense_CSD.c **** 	*
1864:.\Generated_Source\PSoC4/CapSense_CSD.c **** 	* Return:
1865:.\Generated_Source\PSoC4/CapSense_CSD.c **** 	*  None.
1866:.\Generated_Source\PSoC4/CapSense_CSD.c **** 	*
1867:.\Generated_Source\PSoC4/CapSense_CSD.c **** 	* Global Variables:
1868:.\Generated_Source\PSoC4/CapSense_CSD.c **** 	*  CapSense_CSD_senseClkDividerVal[] - stores the sense clock divider values.
1869:.\Generated_Source\PSoC4/CapSense_CSD.c **** 	* 
1870:.\Generated_Source\PSoC4/CapSense_CSD.c **** 	* Side Effects:
1871:.\Generated_Source\PSoC4/CapSense_CSD.c **** 	*  None
1872:.\Generated_Source\PSoC4/CapSense_CSD.c **** 	*
1873:.\Generated_Source\PSoC4/CapSense_CSD.c **** 	*******************************************************************************/
1874:.\Generated_Source\PSoC4/CapSense_CSD.c **** 	void CapSense_CSD_SetSenseClkDivider(uint32 sensor, uint32 senseClk)
1875:.\Generated_Source\PSoC4/CapSense_CSD.c **** 	{
 2237              		.loc 1 1875 0
 2238              		.cfi_startproc
