ARM GAS  C:\Users\gsgill\AppData\Local\Temp\ccJYZky6.s 			page 1


   1              		.cpu cortex-m0
   2              		.fpu softvfp
   3              		.eabi_attribute 20, 1
   4              		.eabi_attribute 21, 1
   5              		.eabi_attribute 23, 3
   6              		.eabi_attribute 24, 1
   7              		.eabi_attribute 25, 1
   8              		.eabi_attribute 26, 1
   9              		.eabi_attribute 30, 6
  10              		.eabi_attribute 34, 0
  11              		.eabi_attribute 18, 4
  12              		.code	16
  13              		.file	"LED_CONTROL.c"
  14              		.text
  15              	.Ltext0:
  16              		.cfi_sections	.debug_frame
  17              		.global	LED_CONTROL_initVar
  18              		.bss
  19              		.type	LED_CONTROL_initVar, %object
  20              		.size	LED_CONTROL_initVar, 1
  21              	LED_CONTROL_initVar:
  22 0000 00       		.space	1
  23              		.section	.text.LED_CONTROL_Init,"ax",%progbits
  24              		.align	2
  25              		.global	LED_CONTROL_Init
  26              		.code	16
  27              		.thumb_func
  28              		.type	LED_CONTROL_Init, %function
  29              	LED_CONTROL_Init:
  30              	.LFB0:
  31              		.file 1 ".\\Generated_Source\\PSoC4\\LED_CONTROL.c"
   1:.\Generated_Source\PSoC4/LED_CONTROL.c **** /*******************************************************************************
   2:.\Generated_Source\PSoC4/LED_CONTROL.c **** * File Name: LED_CONTROL.c
   3:.\Generated_Source\PSoC4/LED_CONTROL.c **** * Version 2.0
   4:.\Generated_Source\PSoC4/LED_CONTROL.c **** *
   5:.\Generated_Source\PSoC4/LED_CONTROL.c **** * Description:
   6:.\Generated_Source\PSoC4/LED_CONTROL.c **** *  This file provides the source code to the API for the LED_CONTROL
   7:.\Generated_Source\PSoC4/LED_CONTROL.c **** *  component
   8:.\Generated_Source\PSoC4/LED_CONTROL.c **** *
   9:.\Generated_Source\PSoC4/LED_CONTROL.c **** * Note:
  10:.\Generated_Source\PSoC4/LED_CONTROL.c **** *  None
  11:.\Generated_Source\PSoC4/LED_CONTROL.c **** *
  12:.\Generated_Source\PSoC4/LED_CONTROL.c **** ********************************************************************************
  13:.\Generated_Source\PSoC4/LED_CONTROL.c **** * Copyright 2013-2014, Cypress Semiconductor Corporation.  All rights reserved.
  14:.\Generated_Source\PSoC4/LED_CONTROL.c **** * You may use this file only in accordance with the license, terms, conditions,
  15:.\Generated_Source\PSoC4/LED_CONTROL.c **** * disclaimers, and limitations in the end user license agreement accompanying
  16:.\Generated_Source\PSoC4/LED_CONTROL.c **** * the software package with which this file was provided.
  17:.\Generated_Source\PSoC4/LED_CONTROL.c **** *******************************************************************************/
  18:.\Generated_Source\PSoC4/LED_CONTROL.c **** 
  19:.\Generated_Source\PSoC4/LED_CONTROL.c **** #include "LED_CONTROL.h"
  20:.\Generated_Source\PSoC4/LED_CONTROL.c **** 
  21:.\Generated_Source\PSoC4/LED_CONTROL.c **** uint8 LED_CONTROL_initVar = 0u;
  22:.\Generated_Source\PSoC4/LED_CONTROL.c **** 
  23:.\Generated_Source\PSoC4/LED_CONTROL.c **** 
  24:.\Generated_Source\PSoC4/LED_CONTROL.c **** /*******************************************************************************
  25:.\Generated_Source\PSoC4/LED_CONTROL.c **** * Function Name: LED_CONTROL_Init
  26:.\Generated_Source\PSoC4/LED_CONTROL.c **** ********************************************************************************
ARM GAS  C:\Users\gsgill\AppData\Local\Temp\ccJYZky6.s 			page 2


  27:.\Generated_Source\PSoC4/LED_CONTROL.c **** *
  28:.\Generated_Source\PSoC4/LED_CONTROL.c **** * Summary:
  29:.\Generated_Source\PSoC4/LED_CONTROL.c **** *  Initialize/Restore default LED_CONTROL configuration.
  30:.\Generated_Source\PSoC4/LED_CONTROL.c **** *
  31:.\Generated_Source\PSoC4/LED_CONTROL.c **** * Parameters:
  32:.\Generated_Source\PSoC4/LED_CONTROL.c **** *  None
  33:.\Generated_Source\PSoC4/LED_CONTROL.c **** *
  34:.\Generated_Source\PSoC4/LED_CONTROL.c **** * Return:
  35:.\Generated_Source\PSoC4/LED_CONTROL.c **** *  None
  36:.\Generated_Source\PSoC4/LED_CONTROL.c **** *
  37:.\Generated_Source\PSoC4/LED_CONTROL.c **** *******************************************************************************/
  38:.\Generated_Source\PSoC4/LED_CONTROL.c **** void LED_CONTROL_Init(void)
  39:.\Generated_Source\PSoC4/LED_CONTROL.c **** {
  32              		.loc 1 39 0
  33              		.cfi_startproc
  34 0000 80B5     		push	{r7, lr}
  35              		.cfi_def_cfa_offset 8
  36              		.cfi_offset 7, -8
  37              		.cfi_offset 14, -4
  38 0002 00AF     		add	r7, sp, #0
  39              		.cfi_def_cfa_register 7
  40:.\Generated_Source\PSoC4/LED_CONTROL.c **** 
  41:.\Generated_Source\PSoC4/LED_CONTROL.c ****     /* Set values from customizer to CTRL */
  42:.\Generated_Source\PSoC4/LED_CONTROL.c ****     #if (LED_CONTROL__QUAD == LED_CONTROL_CONFIG)
  43:.\Generated_Source\PSoC4/LED_CONTROL.c ****         LED_CONTROL_CONTROL_REG = LED_CONTROL_CTRL_QUAD_BASE_CONFIG;
  44:.\Generated_Source\PSoC4/LED_CONTROL.c ****         
  45:.\Generated_Source\PSoC4/LED_CONTROL.c ****         /* Set values from customizer to CTRL1 */
  46:.\Generated_Source\PSoC4/LED_CONTROL.c ****         LED_CONTROL_TRIG_CONTROL1_REG  = LED_CONTROL_QUAD_SIGNALS_MODES;
  47:.\Generated_Source\PSoC4/LED_CONTROL.c **** 
  48:.\Generated_Source\PSoC4/LED_CONTROL.c ****         /* Set values from customizer to INTR */
  49:.\Generated_Source\PSoC4/LED_CONTROL.c ****         LED_CONTROL_SetInterruptMode(LED_CONTROL_QUAD_INTERRUPT_MASK);
  50:.\Generated_Source\PSoC4/LED_CONTROL.c ****         
  51:.\Generated_Source\PSoC4/LED_CONTROL.c ****          /* Set other values */
  52:.\Generated_Source\PSoC4/LED_CONTROL.c ****         LED_CONTROL_SetCounterMode(LED_CONTROL_COUNT_DOWN);
  53:.\Generated_Source\PSoC4/LED_CONTROL.c ****         LED_CONTROL_WritePeriod(LED_CONTROL_QUAD_PERIOD_INIT_VALUE);
  54:.\Generated_Source\PSoC4/LED_CONTROL.c ****         LED_CONTROL_WriteCounter(LED_CONTROL_QUAD_PERIOD_INIT_VALUE);
  55:.\Generated_Source\PSoC4/LED_CONTROL.c ****     #endif  /* (LED_CONTROL__QUAD == LED_CONTROL_CONFIG) */
  56:.\Generated_Source\PSoC4/LED_CONTROL.c **** 
  57:.\Generated_Source\PSoC4/LED_CONTROL.c ****     #if (LED_CONTROL__TIMER == LED_CONTROL_CONFIG)
  58:.\Generated_Source\PSoC4/LED_CONTROL.c ****         LED_CONTROL_CONTROL_REG = LED_CONTROL_CTRL_TIMER_BASE_CONFIG;
  59:.\Generated_Source\PSoC4/LED_CONTROL.c ****         
  60:.\Generated_Source\PSoC4/LED_CONTROL.c ****         /* Set values from customizer to CTRL1 */
  61:.\Generated_Source\PSoC4/LED_CONTROL.c ****         LED_CONTROL_TRIG_CONTROL1_REG  = LED_CONTROL_TIMER_SIGNALS_MODES;
  62:.\Generated_Source\PSoC4/LED_CONTROL.c ****     
  63:.\Generated_Source\PSoC4/LED_CONTROL.c ****         /* Set values from customizer to INTR */
  64:.\Generated_Source\PSoC4/LED_CONTROL.c ****         LED_CONTROL_SetInterruptMode(LED_CONTROL_TC_INTERRUPT_MASK);
  65:.\Generated_Source\PSoC4/LED_CONTROL.c ****         
  66:.\Generated_Source\PSoC4/LED_CONTROL.c ****         /* Set other values from customizer */
  67:.\Generated_Source\PSoC4/LED_CONTROL.c ****         LED_CONTROL_WritePeriod(LED_CONTROL_TC_PERIOD_VALUE );
  68:.\Generated_Source\PSoC4/LED_CONTROL.c **** 
  69:.\Generated_Source\PSoC4/LED_CONTROL.c ****         #if (LED_CONTROL__COMPARE == LED_CONTROL_TC_COMP_CAP_MODE)
  70:.\Generated_Source\PSoC4/LED_CONTROL.c ****             LED_CONTROL_WriteCompare(LED_CONTROL_TC_COMPARE_VALUE);
  71:.\Generated_Source\PSoC4/LED_CONTROL.c **** 
  72:.\Generated_Source\PSoC4/LED_CONTROL.c ****             #if (1u == LED_CONTROL_TC_COMPARE_SWAP)
  73:.\Generated_Source\PSoC4/LED_CONTROL.c ****                 LED_CONTROL_SetCompareSwap(1u);
  74:.\Generated_Source\PSoC4/LED_CONTROL.c ****                 LED_CONTROL_WriteCompareBuf(LED_CONTROL_TC_COMPARE_BUF_VALUE);
  75:.\Generated_Source\PSoC4/LED_CONTROL.c ****             #endif  /* (1u == LED_CONTROL_TC_COMPARE_SWAP) */
ARM GAS  C:\Users\gsgill\AppData\Local\Temp\ccJYZky6.s 			page 3


  76:.\Generated_Source\PSoC4/LED_CONTROL.c ****         #endif  /* (LED_CONTROL__COMPARE == LED_CONTROL_TC_COMP_CAP_MODE) */
  77:.\Generated_Source\PSoC4/LED_CONTROL.c **** 
  78:.\Generated_Source\PSoC4/LED_CONTROL.c ****         /* Initialize counter value */
  79:.\Generated_Source\PSoC4/LED_CONTROL.c ****         #if (LED_CONTROL_CY_TCPWM_V2 && LED_CONTROL_TIMER_UPDOWN_CNT_USED && !LED_CONTROL_CY_TCPWM_
  80:.\Generated_Source\PSoC4/LED_CONTROL.c ****             LED_CONTROL_WriteCounter(1u);
  81:.\Generated_Source\PSoC4/LED_CONTROL.c ****         #elif(LED_CONTROL__COUNT_DOWN == LED_CONTROL_TC_COUNTER_MODE)
  82:.\Generated_Source\PSoC4/LED_CONTROL.c ****             LED_CONTROL_WriteCounter(LED_CONTROL_TC_PERIOD_VALUE);
  83:.\Generated_Source\PSoC4/LED_CONTROL.c ****         #else
  84:.\Generated_Source\PSoC4/LED_CONTROL.c ****             LED_CONTROL_WriteCounter(0u);
  85:.\Generated_Source\PSoC4/LED_CONTROL.c ****         #endif /* (LED_CONTROL_CY_TCPWM_V2 && LED_CONTROL_TIMER_UPDOWN_CNT_USED && !LED_CONTROL_CY_
  86:.\Generated_Source\PSoC4/LED_CONTROL.c ****     #endif  /* (LED_CONTROL__TIMER == LED_CONTROL_CONFIG) */
  87:.\Generated_Source\PSoC4/LED_CONTROL.c **** 
  88:.\Generated_Source\PSoC4/LED_CONTROL.c ****     #if (LED_CONTROL__PWM_SEL == LED_CONTROL_CONFIG)
  89:.\Generated_Source\PSoC4/LED_CONTROL.c ****         LED_CONTROL_CONTROL_REG = LED_CONTROL_CTRL_PWM_BASE_CONFIG;
  40              		.loc 1 89 0
  41 0004 104B     		ldr	r3, .L2
  42 0006 8022     		mov	r2, #128
  43 0008 D204     		lsl	r2, r2, #19
  44 000a 1A60     		str	r2, [r3]
  90:.\Generated_Source\PSoC4/LED_CONTROL.c **** 
  91:.\Generated_Source\PSoC4/LED_CONTROL.c ****         #if (LED_CONTROL__PWM_PR == LED_CONTROL_PWM_MODE)
  92:.\Generated_Source\PSoC4/LED_CONTROL.c ****             LED_CONTROL_CONTROL_REG |= LED_CONTROL_CTRL_PWM_RUN_MODE;
  93:.\Generated_Source\PSoC4/LED_CONTROL.c ****             LED_CONTROL_WriteCounter(LED_CONTROL_PWM_PR_INIT_VALUE);
  94:.\Generated_Source\PSoC4/LED_CONTROL.c ****         #else
  95:.\Generated_Source\PSoC4/LED_CONTROL.c ****             LED_CONTROL_CONTROL_REG |= LED_CONTROL_CTRL_PWM_ALIGN | LED_CONTROL_CTRL_PWM_KILL_EVENT
  45              		.loc 1 95 0
  46 000c 0E4B     		ldr	r3, .L2
  47 000e 0E4A     		ldr	r2, .L2
  48 0010 1268     		ldr	r2, [r2]
  49 0012 1A60     		str	r2, [r3]
  96:.\Generated_Source\PSoC4/LED_CONTROL.c ****             
  97:.\Generated_Source\PSoC4/LED_CONTROL.c ****             /* Initialize counter value */
  98:.\Generated_Source\PSoC4/LED_CONTROL.c ****             #if (LED_CONTROL_CY_TCPWM_V2 && LED_CONTROL_PWM_UPDOWN_CNT_USED && !LED_CONTROL_CY_TCPW
  99:.\Generated_Source\PSoC4/LED_CONTROL.c ****                 LED_CONTROL_WriteCounter(1u);
 100:.\Generated_Source\PSoC4/LED_CONTROL.c ****             #elif (LED_CONTROL__RIGHT == LED_CONTROL_PWM_ALIGN)
 101:.\Generated_Source\PSoC4/LED_CONTROL.c ****                 LED_CONTROL_WriteCounter(LED_CONTROL_PWM_PERIOD_VALUE);
 102:.\Generated_Source\PSoC4/LED_CONTROL.c ****             #else 
 103:.\Generated_Source\PSoC4/LED_CONTROL.c ****                 LED_CONTROL_WriteCounter(0u);
  50              		.loc 1 103 0
  51 0014 0020     		mov	r0, #0
  52 0016 FFF7FEFF 		bl	LED_CONTROL_WriteCounter
 104:.\Generated_Source\PSoC4/LED_CONTROL.c ****             #endif  /* (LED_CONTROL_CY_TCPWM_V2 && LED_CONTROL_PWM_UPDOWN_CNT_USED && !LED_CONTROL_
 105:.\Generated_Source\PSoC4/LED_CONTROL.c ****         #endif  /* (LED_CONTROL__PWM_PR == LED_CONTROL_PWM_MODE) */
 106:.\Generated_Source\PSoC4/LED_CONTROL.c **** 
 107:.\Generated_Source\PSoC4/LED_CONTROL.c ****         #if (LED_CONTROL__PWM_DT == LED_CONTROL_PWM_MODE)
 108:.\Generated_Source\PSoC4/LED_CONTROL.c ****             LED_CONTROL_CONTROL_REG |= LED_CONTROL_CTRL_PWM_DEAD_TIME_CYCLE;
 109:.\Generated_Source\PSoC4/LED_CONTROL.c ****         #endif  /* (LED_CONTROL__PWM_DT == LED_CONTROL_PWM_MODE) */
 110:.\Generated_Source\PSoC4/LED_CONTROL.c **** 
 111:.\Generated_Source\PSoC4/LED_CONTROL.c ****         #if (LED_CONTROL__PWM == LED_CONTROL_PWM_MODE)
 112:.\Generated_Source\PSoC4/LED_CONTROL.c ****             LED_CONTROL_CONTROL_REG |= LED_CONTROL_CTRL_PWM_PRESCALER;
  53              		.loc 1 112 0
  54 001a 0B4B     		ldr	r3, .L2
  55 001c 0A4A     		ldr	r2, .L2
  56 001e 1268     		ldr	r2, [r2]
  57 0020 1A60     		str	r2, [r3]
 113:.\Generated_Source\PSoC4/LED_CONTROL.c ****         #endif  /* (LED_CONTROL__PWM == LED_CONTROL_PWM_MODE) */
 114:.\Generated_Source\PSoC4/LED_CONTROL.c **** 
ARM GAS  C:\Users\gsgill\AppData\Local\Temp\ccJYZky6.s 			page 4


 115:.\Generated_Source\PSoC4/LED_CONTROL.c ****         /* Set values from customizer to CTRL1 */
 116:.\Generated_Source\PSoC4/LED_CONTROL.c ****         LED_CONTROL_TRIG_CONTROL1_REG  = LED_CONTROL_PWM_SIGNALS_MODES;
  58              		.loc 1 116 0
  59 0022 0A4B     		ldr	r3, .L2+4
  60 0024 0C22     		mov	r2, #12
  61 0026 1A60     		str	r2, [r3]
 117:.\Generated_Source\PSoC4/LED_CONTROL.c ****     
 118:.\Generated_Source\PSoC4/LED_CONTROL.c ****         /* Set values from customizer to INTR */
 119:.\Generated_Source\PSoC4/LED_CONTROL.c ****         LED_CONTROL_SetInterruptMode(LED_CONTROL_PWM_INTERRUPT_MASK);
  62              		.loc 1 119 0
  63 0028 0020     		mov	r0, #0
  64 002a FFF7FEFF 		bl	LED_CONTROL_SetInterruptMode
 120:.\Generated_Source\PSoC4/LED_CONTROL.c **** 
 121:.\Generated_Source\PSoC4/LED_CONTROL.c ****         /* Set values from customizer to CTRL2 */
 122:.\Generated_Source\PSoC4/LED_CONTROL.c ****         #if (LED_CONTROL__PWM_PR == LED_CONTROL_PWM_MODE)
 123:.\Generated_Source\PSoC4/LED_CONTROL.c ****             LED_CONTROL_TRIG_CONTROL2_REG =
 124:.\Generated_Source\PSoC4/LED_CONTROL.c ****                     (LED_CONTROL_CC_MATCH_NO_CHANGE    |
 125:.\Generated_Source\PSoC4/LED_CONTROL.c ****                     LED_CONTROL_OVERLOW_NO_CHANGE      |
 126:.\Generated_Source\PSoC4/LED_CONTROL.c ****                     LED_CONTROL_UNDERFLOW_NO_CHANGE);
 127:.\Generated_Source\PSoC4/LED_CONTROL.c ****         #else
 128:.\Generated_Source\PSoC4/LED_CONTROL.c ****             #if (LED_CONTROL__LEFT == LED_CONTROL_PWM_ALIGN)
 129:.\Generated_Source\PSoC4/LED_CONTROL.c ****                 LED_CONTROL_TRIG_CONTROL2_REG = LED_CONTROL_PWM_MODE_LEFT;
  65              		.loc 1 129 0
  66 002e 084B     		ldr	r3, .L2+8
  67 0030 3122     		mov	r2, #49
  68 0032 1A60     		str	r2, [r3]
 130:.\Generated_Source\PSoC4/LED_CONTROL.c ****             #endif  /* ( LED_CONTROL_PWM_LEFT == LED_CONTROL_PWM_ALIGN) */
 131:.\Generated_Source\PSoC4/LED_CONTROL.c **** 
 132:.\Generated_Source\PSoC4/LED_CONTROL.c ****             #if (LED_CONTROL__RIGHT == LED_CONTROL_PWM_ALIGN)
 133:.\Generated_Source\PSoC4/LED_CONTROL.c ****                 LED_CONTROL_TRIG_CONTROL2_REG = LED_CONTROL_PWM_MODE_RIGHT;
 134:.\Generated_Source\PSoC4/LED_CONTROL.c ****             #endif  /* ( LED_CONTROL_PWM_RIGHT == LED_CONTROL_PWM_ALIGN) */
 135:.\Generated_Source\PSoC4/LED_CONTROL.c **** 
 136:.\Generated_Source\PSoC4/LED_CONTROL.c ****             #if (LED_CONTROL__CENTER == LED_CONTROL_PWM_ALIGN)
 137:.\Generated_Source\PSoC4/LED_CONTROL.c ****                 LED_CONTROL_TRIG_CONTROL2_REG = LED_CONTROL_PWM_MODE_CENTER;
 138:.\Generated_Source\PSoC4/LED_CONTROL.c ****             #endif  /* ( LED_CONTROL_PWM_CENTER == LED_CONTROL_PWM_ALIGN) */
 139:.\Generated_Source\PSoC4/LED_CONTROL.c **** 
 140:.\Generated_Source\PSoC4/LED_CONTROL.c ****             #if (LED_CONTROL__ASYMMETRIC == LED_CONTROL_PWM_ALIGN)
 141:.\Generated_Source\PSoC4/LED_CONTROL.c ****                 LED_CONTROL_TRIG_CONTROL2_REG = LED_CONTROL_PWM_MODE_ASYM;
 142:.\Generated_Source\PSoC4/LED_CONTROL.c ****             #endif  /* (LED_CONTROL__ASYMMETRIC == LED_CONTROL_PWM_ALIGN) */
 143:.\Generated_Source\PSoC4/LED_CONTROL.c ****         #endif  /* (LED_CONTROL__PWM_PR == LED_CONTROL_PWM_MODE) */
 144:.\Generated_Source\PSoC4/LED_CONTROL.c **** 
 145:.\Generated_Source\PSoC4/LED_CONTROL.c ****         /* Set other values from customizer */
 146:.\Generated_Source\PSoC4/LED_CONTROL.c ****         LED_CONTROL_WritePeriod(LED_CONTROL_PWM_PERIOD_VALUE );
  69              		.loc 1 146 0
  70 0034 074B     		ldr	r3, .L2+12
  71 0036 181C     		mov	r0, r3
  72 0038 FFF7FEFF 		bl	LED_CONTROL_WritePeriod
 147:.\Generated_Source\PSoC4/LED_CONTROL.c ****         LED_CONTROL_WriteCompare(LED_CONTROL_PWM_COMPARE_VALUE);
  73              		.loc 1 147 0
  74 003c 0120     		mov	r0, #1
  75 003e FFF7FEFF 		bl	LED_CONTROL_WriteCompare
 148:.\Generated_Source\PSoC4/LED_CONTROL.c **** 
 149:.\Generated_Source\PSoC4/LED_CONTROL.c ****         #if (1u == LED_CONTROL_PWM_COMPARE_SWAP)
 150:.\Generated_Source\PSoC4/LED_CONTROL.c ****             LED_CONTROL_SetCompareSwap(1u);
 151:.\Generated_Source\PSoC4/LED_CONTROL.c ****             LED_CONTROL_WriteCompareBuf(LED_CONTROL_PWM_COMPARE_BUF_VALUE);
 152:.\Generated_Source\PSoC4/LED_CONTROL.c ****         #endif  /* (1u == LED_CONTROL_PWM_COMPARE_SWAP) */
 153:.\Generated_Source\PSoC4/LED_CONTROL.c **** 
ARM GAS  C:\Users\gsgill\AppData\Local\Temp\ccJYZky6.s 			page 5


 154:.\Generated_Source\PSoC4/LED_CONTROL.c ****         #if (1u == LED_CONTROL_PWM_PERIOD_SWAP)
 155:.\Generated_Source\PSoC4/LED_CONTROL.c ****             LED_CONTROL_SetPeriodSwap(1u);
 156:.\Generated_Source\PSoC4/LED_CONTROL.c ****             LED_CONTROL_WritePeriodBuf(LED_CONTROL_PWM_PERIOD_BUF_VALUE);
 157:.\Generated_Source\PSoC4/LED_CONTROL.c ****         #endif  /* (1u == LED_CONTROL_PWM_PERIOD_SWAP) */
 158:.\Generated_Source\PSoC4/LED_CONTROL.c ****     #endif  /* (LED_CONTROL__PWM_SEL == LED_CONTROL_CONFIG) */
 159:.\Generated_Source\PSoC4/LED_CONTROL.c ****     
 160:.\Generated_Source\PSoC4/LED_CONTROL.c **** }
  76              		.loc 1 160 0
  77 0042 BD46     		mov	sp, r7
  78              		@ sp needed
  79 0044 80BD     		pop	{r7, pc}
  80              	.L3:
  81 0046 C046     		.align	2
  82              	.L2:
  83 0048 00010540 		.word	1074069760
  84 004c 24010540 		.word	1074069796
  85 0050 28010540 		.word	1074069800
  86 0054 FFFF0000 		.word	65535
  87              		.cfi_endproc
  88              	.LFE0:
  89              		.size	LED_CONTROL_Init, .-LED_CONTROL_Init
  90              		.section	.text.LED_CONTROL_Enable,"ax",%progbits
  91              		.align	2
  92              		.global	LED_CONTROL_Enable
  93              		.code	16
  94              		.thumb_func
  95              		.type	LED_CONTROL_Enable, %function
  96              	LED_CONTROL_Enable:
  97              	.LFB1:
 161:.\Generated_Source\PSoC4/LED_CONTROL.c **** 
 162:.\Generated_Source\PSoC4/LED_CONTROL.c **** 
 163:.\Generated_Source\PSoC4/LED_CONTROL.c **** /*******************************************************************************
 164:.\Generated_Source\PSoC4/LED_CONTROL.c **** * Function Name: LED_CONTROL_Enable
 165:.\Generated_Source\PSoC4/LED_CONTROL.c **** ********************************************************************************
 166:.\Generated_Source\PSoC4/LED_CONTROL.c **** *
 167:.\Generated_Source\PSoC4/LED_CONTROL.c **** * Summary:
 168:.\Generated_Source\PSoC4/LED_CONTROL.c **** *  Enables the LED_CONTROL.
 169:.\Generated_Source\PSoC4/LED_CONTROL.c **** *
 170:.\Generated_Source\PSoC4/LED_CONTROL.c **** * Parameters:
 171:.\Generated_Source\PSoC4/LED_CONTROL.c **** *  None
 172:.\Generated_Source\PSoC4/LED_CONTROL.c **** *
 173:.\Generated_Source\PSoC4/LED_CONTROL.c **** * Return:
 174:.\Generated_Source\PSoC4/LED_CONTROL.c **** *  None
 175:.\Generated_Source\PSoC4/LED_CONTROL.c **** *
 176:.\Generated_Source\PSoC4/LED_CONTROL.c **** *******************************************************************************/
 177:.\Generated_Source\PSoC4/LED_CONTROL.c **** void LED_CONTROL_Enable(void)
 178:.\Generated_Source\PSoC4/LED_CONTROL.c **** {
  98              		.loc 1 178 0
  99              		.cfi_startproc
 100 0000 90B5     		push	{r4, r7, lr}
 101              		.cfi_def_cfa_offset 12
 102              		.cfi_offset 4, -12
 103              		.cfi_offset 7, -8
 104              		.cfi_offset 14, -4
 105 0002 83B0     		sub	sp, sp, #12
 106              		.cfi_def_cfa_offset 24
 107 0004 00AF     		add	r7, sp, #0
ARM GAS  C:\Users\gsgill\AppData\Local\Temp\ccJYZky6.s 			page 6


 108              		.cfi_def_cfa_register 7
 179:.\Generated_Source\PSoC4/LED_CONTROL.c ****     uint8 enableInterrupts;
 180:.\Generated_Source\PSoC4/LED_CONTROL.c **** 
 181:.\Generated_Source\PSoC4/LED_CONTROL.c ****     enableInterrupts = CyEnterCriticalSection();
 109              		.loc 1 181 0
 110 0006 FC1D     		add	r4, r7, #7
 111 0008 FFF7FEFF 		bl	CyEnterCriticalSection
 112 000c 031C     		mov	r3, r0
 113 000e 2370     		strb	r3, [r4]
 182:.\Generated_Source\PSoC4/LED_CONTROL.c ****     LED_CONTROL_BLOCK_CONTROL_REG |= LED_CONTROL_MASK;
 114              		.loc 1 182 0
 115 0010 084B     		ldr	r3, .L5
 116 0012 084A     		ldr	r2, .L5
 117 0014 1268     		ldr	r2, [r2]
 118 0016 0121     		mov	r1, #1
 119 0018 0A43     		orr	r2, r1
 120 001a 1A60     		str	r2, [r3]
 183:.\Generated_Source\PSoC4/LED_CONTROL.c ****     CyExitCriticalSection(enableInterrupts);
 121              		.loc 1 183 0
 122 001c FB1D     		add	r3, r7, #7
 123 001e 1B78     		ldrb	r3, [r3]
 124 0020 181C     		mov	r0, r3
 125 0022 FFF7FEFF 		bl	CyExitCriticalSection
 184:.\Generated_Source\PSoC4/LED_CONTROL.c **** 
 185:.\Generated_Source\PSoC4/LED_CONTROL.c ****     /* Start Timer or PWM if start input is absent */
 186:.\Generated_Source\PSoC4/LED_CONTROL.c ****     #if (LED_CONTROL__PWM_SEL == LED_CONTROL_CONFIG)
 187:.\Generated_Source\PSoC4/LED_CONTROL.c ****         #if (0u == LED_CONTROL_PWM_START_SIGNAL_PRESENT)
 188:.\Generated_Source\PSoC4/LED_CONTROL.c ****             LED_CONTROL_TriggerCommand(LED_CONTROL_MASK, LED_CONTROL_CMD_START);
 126              		.loc 1 188 0
 127 0026 0120     		mov	r0, #1
 128 0028 1821     		mov	r1, #24
 129 002a FFF7FEFF 		bl	LED_CONTROL_TriggerCommand
 189:.\Generated_Source\PSoC4/LED_CONTROL.c ****         #endif /* (0u == LED_CONTROL_PWM_START_SIGNAL_PRESENT) */
 190:.\Generated_Source\PSoC4/LED_CONTROL.c ****     #endif /* (LED_CONTROL__PWM_SEL == LED_CONTROL_CONFIG) */
 191:.\Generated_Source\PSoC4/LED_CONTROL.c **** 
 192:.\Generated_Source\PSoC4/LED_CONTROL.c ****     #if (LED_CONTROL__TIMER == LED_CONTROL_CONFIG)
 193:.\Generated_Source\PSoC4/LED_CONTROL.c ****         #if (0u == LED_CONTROL_TC_START_SIGNAL_PRESENT)
 194:.\Generated_Source\PSoC4/LED_CONTROL.c ****             LED_CONTROL_TriggerCommand(LED_CONTROL_MASK, LED_CONTROL_CMD_START);
 195:.\Generated_Source\PSoC4/LED_CONTROL.c ****         #endif /* (0u == LED_CONTROL_TC_START_SIGNAL_PRESENT) */
 196:.\Generated_Source\PSoC4/LED_CONTROL.c ****     #endif /* (LED_CONTROL__TIMER == LED_CONTROL_CONFIG) */
 197:.\Generated_Source\PSoC4/LED_CONTROL.c **** }
 130              		.loc 1 197 0
 131 002e BD46     		mov	sp, r7
 132 0030 03B0     		add	sp, sp, #12
 133              		@ sp needed
 134 0032 90BD     		pop	{r4, r7, pc}
 135              	.L6:
 136              		.align	2
 137              	.L5:
 138 0034 00000540 		.word	1074069504
 139              		.cfi_endproc
 140              	.LFE1:
 141              		.size	LED_CONTROL_Enable, .-LED_CONTROL_Enable
 142              		.section	.text.LED_CONTROL_Start,"ax",%progbits
 143              		.align	2
 144              		.global	LED_CONTROL_Start
 145              		.code	16
ARM GAS  C:\Users\gsgill\AppData\Local\Temp\ccJYZky6.s 			page 7


 146              		.thumb_func
 147              		.type	LED_CONTROL_Start, %function
 148              	LED_CONTROL_Start:
 149              	.LFB2:
 198:.\Generated_Source\PSoC4/LED_CONTROL.c **** 
 199:.\Generated_Source\PSoC4/LED_CONTROL.c **** 
 200:.\Generated_Source\PSoC4/LED_CONTROL.c **** /*******************************************************************************
 201:.\Generated_Source\PSoC4/LED_CONTROL.c **** * Function Name: LED_CONTROL_Start
 202:.\Generated_Source\PSoC4/LED_CONTROL.c **** ********************************************************************************
 203:.\Generated_Source\PSoC4/LED_CONTROL.c **** *
 204:.\Generated_Source\PSoC4/LED_CONTROL.c **** * Summary:
 205:.\Generated_Source\PSoC4/LED_CONTROL.c **** *  Initializes the LED_CONTROL with default customizer
 206:.\Generated_Source\PSoC4/LED_CONTROL.c **** *  values when called the first time and enables the LED_CONTROL.
 207:.\Generated_Source\PSoC4/LED_CONTROL.c **** *  For subsequent calls the configuration is left unchanged and the component is
 208:.\Generated_Source\PSoC4/LED_CONTROL.c **** *  just enabled.
 209:.\Generated_Source\PSoC4/LED_CONTROL.c **** *
 210:.\Generated_Source\PSoC4/LED_CONTROL.c **** * Parameters:
 211:.\Generated_Source\PSoC4/LED_CONTROL.c **** *  None
 212:.\Generated_Source\PSoC4/LED_CONTROL.c **** *
 213:.\Generated_Source\PSoC4/LED_CONTROL.c **** * Return:
 214:.\Generated_Source\PSoC4/LED_CONTROL.c **** *  None
 215:.\Generated_Source\PSoC4/LED_CONTROL.c **** *
 216:.\Generated_Source\PSoC4/LED_CONTROL.c **** * Global variables:
 217:.\Generated_Source\PSoC4/LED_CONTROL.c **** *  LED_CONTROL_initVar: global variable is used to indicate initial
 218:.\Generated_Source\PSoC4/LED_CONTROL.c **** *  configuration of this component.  The variable is initialized to zero and set
 219:.\Generated_Source\PSoC4/LED_CONTROL.c **** *  to 1 the first time LED_CONTROL_Start() is called. This allows
 220:.\Generated_Source\PSoC4/LED_CONTROL.c **** *  enabling/disabling a component without re-initialization in all subsequent
 221:.\Generated_Source\PSoC4/LED_CONTROL.c **** *  calls to the LED_CONTROL_Start() routine.
 222:.\Generated_Source\PSoC4/LED_CONTROL.c **** *
 223:.\Generated_Source\PSoC4/LED_CONTROL.c **** *******************************************************************************/
 224:.\Generated_Source\PSoC4/LED_CONTROL.c **** void LED_CONTROL_Start(void)
 225:.\Generated_Source\PSoC4/LED_CONTROL.c **** {
 150              		.loc 1 225 0
 151              		.cfi_startproc
 152 0000 80B5     		push	{r7, lr}
 153              		.cfi_def_cfa_offset 8
 154              		.cfi_offset 7, -8
 155              		.cfi_offset 14, -4
 156 0002 00AF     		add	r7, sp, #0
 157              		.cfi_def_cfa_register 7
 226:.\Generated_Source\PSoC4/LED_CONTROL.c ****     if (0u == LED_CONTROL_initVar)
 158              		.loc 1 226 0
 159 0004 064B     		ldr	r3, .L9
 160 0006 1B78     		ldrb	r3, [r3]
 161 0008 002B     		cmp	r3, #0
 162 000a 04D1     		bne	.L8
 227:.\Generated_Source\PSoC4/LED_CONTROL.c ****     {
 228:.\Generated_Source\PSoC4/LED_CONTROL.c ****         LED_CONTROL_Init();
 163              		.loc 1 228 0
 164 000c FFF7FEFF 		bl	LED_CONTROL_Init
 229:.\Generated_Source\PSoC4/LED_CONTROL.c ****         LED_CONTROL_initVar = 1u;
 165              		.loc 1 229 0
 166 0010 034B     		ldr	r3, .L9
 167 0012 0122     		mov	r2, #1
 168 0014 1A70     		strb	r2, [r3]
 169              	.L8:
 230:.\Generated_Source\PSoC4/LED_CONTROL.c ****     }
ARM GAS  C:\Users\gsgill\AppData\Local\Temp\ccJYZky6.s 			page 8


 231:.\Generated_Source\PSoC4/LED_CONTROL.c **** 
 232:.\Generated_Source\PSoC4/LED_CONTROL.c ****     LED_CONTROL_Enable();
 170              		.loc 1 232 0
 171 0016 FFF7FEFF 		bl	LED_CONTROL_Enable
 233:.\Generated_Source\PSoC4/LED_CONTROL.c **** }
 172              		.loc 1 233 0
 173 001a BD46     		mov	sp, r7
 174              		@ sp needed
 175 001c 80BD     		pop	{r7, pc}
 176              	.L10:
 177 001e C046     		.align	2
 178              	.L9:
 179 0020 00000000 		.word	LED_CONTROL_initVar
 180              		.cfi_endproc
 181              	.LFE2:
 182              		.size	LED_CONTROL_Start, .-LED_CONTROL_Start
 183              		.section	.text.LED_CONTROL_Stop,"ax",%progbits
 184              		.align	2
 185              		.global	LED_CONTROL_Stop
 186              		.code	16
 187              		.thumb_func
 188              		.type	LED_CONTROL_Stop, %function
 189              	LED_CONTROL_Stop:
 190              	.LFB3:
 234:.\Generated_Source\PSoC4/LED_CONTROL.c **** 
 235:.\Generated_Source\PSoC4/LED_CONTROL.c **** 
 236:.\Generated_Source\PSoC4/LED_CONTROL.c **** /*******************************************************************************
 237:.\Generated_Source\PSoC4/LED_CONTROL.c **** * Function Name: LED_CONTROL_Stop
 238:.\Generated_Source\PSoC4/LED_CONTROL.c **** ********************************************************************************
 239:.\Generated_Source\PSoC4/LED_CONTROL.c **** *
 240:.\Generated_Source\PSoC4/LED_CONTROL.c **** * Summary:
 241:.\Generated_Source\PSoC4/LED_CONTROL.c **** *  Disables the LED_CONTROL.
 242:.\Generated_Source\PSoC4/LED_CONTROL.c **** *
 243:.\Generated_Source\PSoC4/LED_CONTROL.c **** * Parameters:
 244:.\Generated_Source\PSoC4/LED_CONTROL.c **** *  None
 245:.\Generated_Source\PSoC4/LED_CONTROL.c **** *
 246:.\Generated_Source\PSoC4/LED_CONTROL.c **** * Return:
 247:.\Generated_Source\PSoC4/LED_CONTROL.c **** *  None
 248:.\Generated_Source\PSoC4/LED_CONTROL.c **** *
 249:.\Generated_Source\PSoC4/LED_CONTROL.c **** *******************************************************************************/
 250:.\Generated_Source\PSoC4/LED_CONTROL.c **** void LED_CONTROL_Stop(void)
 251:.\Generated_Source\PSoC4/LED_CONTROL.c **** {
 191              		.loc 1 251 0
 192              		.cfi_startproc
 193 0000 90B5     		push	{r4, r7, lr}
 194              		.cfi_def_cfa_offset 12
 195              		.cfi_offset 4, -12
 196              		.cfi_offset 7, -8
 197              		.cfi_offset 14, -4
 198 0002 83B0     		sub	sp, sp, #12
 199              		.cfi_def_cfa_offset 24
 200 0004 00AF     		add	r7, sp, #0
 201              		.cfi_def_cfa_register 7
 252:.\Generated_Source\PSoC4/LED_CONTROL.c ****     uint8 enableInterrupts;
 253:.\Generated_Source\PSoC4/LED_CONTROL.c **** 
 254:.\Generated_Source\PSoC4/LED_CONTROL.c ****     enableInterrupts = CyEnterCriticalSection();
 202              		.loc 1 254 0
ARM GAS  C:\Users\gsgill\AppData\Local\Temp\ccJYZky6.s 			page 9


 203 0006 FC1D     		add	r4, r7, #7
 204 0008 FFF7FEFF 		bl	CyEnterCriticalSection
 205 000c 031C     		mov	r3, r0
 206 000e 2370     		strb	r3, [r4]
 255:.\Generated_Source\PSoC4/LED_CONTROL.c **** 
 256:.\Generated_Source\PSoC4/LED_CONTROL.c ****     LED_CONTROL_BLOCK_CONTROL_REG &= (uint32)~LED_CONTROL_MASK;
 207              		.loc 1 256 0
 208 0010 064B     		ldr	r3, .L12
 209 0012 064A     		ldr	r2, .L12
 210 0014 1268     		ldr	r2, [r2]
 211 0016 0121     		mov	r1, #1
 212 0018 8A43     		bic	r2, r1
 213 001a 1A60     		str	r2, [r3]
 257:.\Generated_Source\PSoC4/LED_CONTROL.c **** 
 258:.\Generated_Source\PSoC4/LED_CONTROL.c ****     CyExitCriticalSection(enableInterrupts);
 214              		.loc 1 258 0
 215 001c FB1D     		add	r3, r7, #7
 216 001e 1B78     		ldrb	r3, [r3]
 217 0020 181C     		mov	r0, r3
 218 0022 FFF7FEFF 		bl	CyExitCriticalSection
 259:.\Generated_Source\PSoC4/LED_CONTROL.c **** }
 219              		.loc 1 259 0
 220 0026 BD46     		mov	sp, r7
 221 0028 03B0     		add	sp, sp, #12
 222              		@ sp needed
 223 002a 90BD     		pop	{r4, r7, pc}
 224              	.L13:
 225              		.align	2
 226              	.L12:
 227 002c 00000540 		.word	1074069504
 228              		.cfi_endproc
 229              	.LFE3:
 230              		.size	LED_CONTROL_Stop, .-LED_CONTROL_Stop
 231              		.section	.text.LED_CONTROL_SetMode,"ax",%progbits
 232              		.align	2
 233              		.global	LED_CONTROL_SetMode
 234              		.code	16
 235              		.thumb_func
 236              		.type	LED_CONTROL_SetMode, %function
 237              	LED_CONTROL_SetMode:
 238              	.LFB4:
 260:.\Generated_Source\PSoC4/LED_CONTROL.c **** 
 261:.\Generated_Source\PSoC4/LED_CONTROL.c **** 
 262:.\Generated_Source\PSoC4/LED_CONTROL.c **** /*******************************************************************************
 263:.\Generated_Source\PSoC4/LED_CONTROL.c **** * Function Name: LED_CONTROL_SetMode
 264:.\Generated_Source\PSoC4/LED_CONTROL.c **** ********************************************************************************
 265:.\Generated_Source\PSoC4/LED_CONTROL.c **** *
 266:.\Generated_Source\PSoC4/LED_CONTROL.c **** * Summary:
 267:.\Generated_Source\PSoC4/LED_CONTROL.c **** *  Sets the operation mode of the LED_CONTROL. This function is used when
 268:.\Generated_Source\PSoC4/LED_CONTROL.c **** *  configured as a generic LED_CONTROL and the actual mode of operation is
 269:.\Generated_Source\PSoC4/LED_CONTROL.c **** *  set at runtime. The mode must be set while the component is disabled.
 270:.\Generated_Source\PSoC4/LED_CONTROL.c **** *
 271:.\Generated_Source\PSoC4/LED_CONTROL.c **** * Parameters:
 272:.\Generated_Source\PSoC4/LED_CONTROL.c **** *  mode: Mode for the LED_CONTROL to operate in
 273:.\Generated_Source\PSoC4/LED_CONTROL.c **** *   Values:
 274:.\Generated_Source\PSoC4/LED_CONTROL.c **** *   - LED_CONTROL_MODE_TIMER_COMPARE - Timer / Counter with
 275:.\Generated_Source\PSoC4/LED_CONTROL.c **** *                                                 compare capability
ARM GAS  C:\Users\gsgill\AppData\Local\Temp\ccJYZky6.s 			page 10


 276:.\Generated_Source\PSoC4/LED_CONTROL.c **** *         - LED_CONTROL_MODE_TIMER_CAPTURE - Timer / Counter with
 277:.\Generated_Source\PSoC4/LED_CONTROL.c **** *                                                 capture capability
 278:.\Generated_Source\PSoC4/LED_CONTROL.c **** *         - LED_CONTROL_MODE_QUAD - Quadrature decoder
 279:.\Generated_Source\PSoC4/LED_CONTROL.c **** *         - LED_CONTROL_MODE_PWM - PWM
 280:.\Generated_Source\PSoC4/LED_CONTROL.c **** *         - LED_CONTROL_MODE_PWM_DT - PWM with dead time
 281:.\Generated_Source\PSoC4/LED_CONTROL.c **** *         - LED_CONTROL_MODE_PWM_PR - PWM with pseudo random capability
 282:.\Generated_Source\PSoC4/LED_CONTROL.c **** *
 283:.\Generated_Source\PSoC4/LED_CONTROL.c **** * Return:
 284:.\Generated_Source\PSoC4/LED_CONTROL.c **** *  None
 285:.\Generated_Source\PSoC4/LED_CONTROL.c **** *
 286:.\Generated_Source\PSoC4/LED_CONTROL.c **** *******************************************************************************/
 287:.\Generated_Source\PSoC4/LED_CONTROL.c **** void LED_CONTROL_SetMode(uint32 mode)
 288:.\Generated_Source\PSoC4/LED_CONTROL.c **** {
 239              		.loc 1 288 0
 240              		.cfi_startproc
 241 0000 90B5     		push	{r4, r7, lr}
 242              		.cfi_def_cfa_offset 12
 243              		.cfi_offset 4, -12
 244              		.cfi_offset 7, -8
 245              		.cfi_offset 14, -4
 246 0002 85B0     		sub	sp, sp, #20
 247              		.cfi_def_cfa_offset 32
 248 0004 00AF     		add	r7, sp, #0
 249              		.cfi_def_cfa_register 7
 250 0006 7860     		str	r0, [r7, #4]
 289:.\Generated_Source\PSoC4/LED_CONTROL.c ****     uint8 enableInterrupts;
 290:.\Generated_Source\PSoC4/LED_CONTROL.c **** 
 291:.\Generated_Source\PSoC4/LED_CONTROL.c ****     enableInterrupts = CyEnterCriticalSection();
 251              		.loc 1 291 0
 252 0008 3C1C     		mov	r4, r7
 253 000a 0F34     		add	r4, r4, #15
 254 000c FFF7FEFF 		bl	CyEnterCriticalSection
 255 0010 031C     		mov	r3, r0
 256 0012 2370     		strb	r3, [r4]
 292:.\Generated_Source\PSoC4/LED_CONTROL.c **** 
 293:.\Generated_Source\PSoC4/LED_CONTROL.c ****     LED_CONTROL_CONTROL_REG &= (uint32)~LED_CONTROL_MODE_MASK;
 257              		.loc 1 293 0
 258 0014 0A4B     		ldr	r3, .L15
 259 0016 0A4A     		ldr	r2, .L15
 260 0018 1168     		ldr	r1, [r2]
 261 001a 0A4A     		ldr	r2, .L15+4
 262 001c 0A40     		and	r2, r1
 263 001e 1A60     		str	r2, [r3]
 294:.\Generated_Source\PSoC4/LED_CONTROL.c ****     LED_CONTROL_CONTROL_REG |= mode;
 264              		.loc 1 294 0
 265 0020 074B     		ldr	r3, .L15
 266 0022 074A     		ldr	r2, .L15
 267 0024 1168     		ldr	r1, [r2]
 268 0026 7A68     		ldr	r2, [r7, #4]
 269 0028 0A43     		orr	r2, r1
 270 002a 1A60     		str	r2, [r3]
 295:.\Generated_Source\PSoC4/LED_CONTROL.c **** 
 296:.\Generated_Source\PSoC4/LED_CONTROL.c ****     CyExitCriticalSection(enableInterrupts);
 271              		.loc 1 296 0
 272 002c 3B1C     		mov	r3, r7
 273 002e 0F33     		add	r3, r3, #15
 274 0030 1B78     		ldrb	r3, [r3]
ARM GAS  C:\Users\gsgill\AppData\Local\Temp\ccJYZky6.s 			page 11


 275 0032 181C     		mov	r0, r3
 276 0034 FFF7FEFF 		bl	CyExitCriticalSection
 297:.\Generated_Source\PSoC4/LED_CONTROL.c **** }
 277              		.loc 1 297 0
 278 0038 BD46     		mov	sp, r7
 279 003a 05B0     		add	sp, sp, #20
 280              		@ sp needed
 281 003c 90BD     		pop	{r4, r7, pc}
 282              	.L16:
 283 003e C046     		.align	2
 284              	.L15:
 285 0040 00010540 		.word	1074069760
 286 0044 FFFFFFF8 		.word	-117440513
 287              		.cfi_endproc
 288              	.LFE4:
 289              		.size	LED_CONTROL_SetMode, .-LED_CONTROL_SetMode
 290              		.section	.text.LED_CONTROL_SetQDMode,"ax",%progbits
 291              		.align	2
 292              		.global	LED_CONTROL_SetQDMode
 293              		.code	16
 294              		.thumb_func
 295              		.type	LED_CONTROL_SetQDMode, %function
 296              	LED_CONTROL_SetQDMode:
 297              	.LFB5:
 298:.\Generated_Source\PSoC4/LED_CONTROL.c **** 
 299:.\Generated_Source\PSoC4/LED_CONTROL.c **** 
 300:.\Generated_Source\PSoC4/LED_CONTROL.c **** /*******************************************************************************
 301:.\Generated_Source\PSoC4/LED_CONTROL.c **** * Function Name: LED_CONTROL_SetQDMode
 302:.\Generated_Source\PSoC4/LED_CONTROL.c **** ********************************************************************************
 303:.\Generated_Source\PSoC4/LED_CONTROL.c **** *
 304:.\Generated_Source\PSoC4/LED_CONTROL.c **** * Summary:
 305:.\Generated_Source\PSoC4/LED_CONTROL.c **** *  Sets the the Quadrature Decoder to one of the 3 supported modes.
 306:.\Generated_Source\PSoC4/LED_CONTROL.c **** *  Its functionality is only applicable to Quadrature Decoder operation.
 307:.\Generated_Source\PSoC4/LED_CONTROL.c **** *
 308:.\Generated_Source\PSoC4/LED_CONTROL.c **** * Parameters:
 309:.\Generated_Source\PSoC4/LED_CONTROL.c **** *  qdMode: Quadrature Decoder mode
 310:.\Generated_Source\PSoC4/LED_CONTROL.c **** *   Values:
 311:.\Generated_Source\PSoC4/LED_CONTROL.c **** *         - LED_CONTROL_MODE_X1 - Counts on phi 1 rising
 312:.\Generated_Source\PSoC4/LED_CONTROL.c **** *         - LED_CONTROL_MODE_X2 - Counts on both edges of phi1 (2x faster)
 313:.\Generated_Source\PSoC4/LED_CONTROL.c **** *         - LED_CONTROL_MODE_X4 - Counts on both edges of phi1 and phi2
 314:.\Generated_Source\PSoC4/LED_CONTROL.c **** *                                        (4x faster)
 315:.\Generated_Source\PSoC4/LED_CONTROL.c **** *
 316:.\Generated_Source\PSoC4/LED_CONTROL.c **** * Return:
 317:.\Generated_Source\PSoC4/LED_CONTROL.c **** *  None
 318:.\Generated_Source\PSoC4/LED_CONTROL.c **** *
 319:.\Generated_Source\PSoC4/LED_CONTROL.c **** *******************************************************************************/
 320:.\Generated_Source\PSoC4/LED_CONTROL.c **** void LED_CONTROL_SetQDMode(uint32 qdMode)
 321:.\Generated_Source\PSoC4/LED_CONTROL.c **** {
 298              		.loc 1 321 0
 299              		.cfi_startproc
 300 0000 90B5     		push	{r4, r7, lr}
 301              		.cfi_def_cfa_offset 12
 302              		.cfi_offset 4, -12
 303              		.cfi_offset 7, -8
 304              		.cfi_offset 14, -4
 305 0002 85B0     		sub	sp, sp, #20
 306              		.cfi_def_cfa_offset 32
ARM GAS  C:\Users\gsgill\AppData\Local\Temp\ccJYZky6.s 			page 12


 307 0004 00AF     		add	r7, sp, #0
 308              		.cfi_def_cfa_register 7
 309 0006 7860     		str	r0, [r7, #4]
 322:.\Generated_Source\PSoC4/LED_CONTROL.c ****     uint8 enableInterrupts;
 323:.\Generated_Source\PSoC4/LED_CONTROL.c **** 
 324:.\Generated_Source\PSoC4/LED_CONTROL.c ****     enableInterrupts = CyEnterCriticalSection();
 310              		.loc 1 324 0
 311 0008 3C1C     		mov	r4, r7
 312 000a 0F34     		add	r4, r4, #15
 313 000c FFF7FEFF 		bl	CyEnterCriticalSection
 314 0010 031C     		mov	r3, r0
 315 0012 2370     		strb	r3, [r4]
 325:.\Generated_Source\PSoC4/LED_CONTROL.c **** 
 326:.\Generated_Source\PSoC4/LED_CONTROL.c ****     LED_CONTROL_CONTROL_REG &= (uint32)~LED_CONTROL_QUAD_MODE_MASK;
 316              		.loc 1 326 0
 317 0014 0A4B     		ldr	r3, .L18
 318 0016 0A4A     		ldr	r2, .L18
 319 0018 1168     		ldr	r1, [r2]
 320 001a 0A4A     		ldr	r2, .L18+4
 321 001c 0A40     		and	r2, r1
 322 001e 1A60     		str	r2, [r3]
 327:.\Generated_Source\PSoC4/LED_CONTROL.c ****     LED_CONTROL_CONTROL_REG |= qdMode;
 323              		.loc 1 327 0
 324 0020 074B     		ldr	r3, .L18
 325 0022 074A     		ldr	r2, .L18
 326 0024 1168     		ldr	r1, [r2]
 327 0026 7A68     		ldr	r2, [r7, #4]
 328 0028 0A43     		orr	r2, r1
 329 002a 1A60     		str	r2, [r3]
 328:.\Generated_Source\PSoC4/LED_CONTROL.c **** 
 329:.\Generated_Source\PSoC4/LED_CONTROL.c ****     CyExitCriticalSection(enableInterrupts);
 330              		.loc 1 329 0
 331 002c 3B1C     		mov	r3, r7
 332 002e 0F33     		add	r3, r3, #15
 333 0030 1B78     		ldrb	r3, [r3]
 334 0032 181C     		mov	r0, r3
 335 0034 FFF7FEFF 		bl	CyExitCriticalSection
 330:.\Generated_Source\PSoC4/LED_CONTROL.c **** }
 336              		.loc 1 330 0
 337 0038 BD46     		mov	sp, r7
 338 003a 05B0     		add	sp, sp, #20
 339              		@ sp needed
 340 003c 90BD     		pop	{r4, r7, pc}
 341              	.L19:
 342 003e C046     		.align	2
 343              	.L18:
 344 0040 00010540 		.word	1074069760
 345 0044 FFFF8FFF 		.word	-7340033
 346              		.cfi_endproc
 347              	.LFE5:
 348              		.size	LED_CONTROL_SetQDMode, .-LED_CONTROL_SetQDMode
 349              		.section	.text.LED_CONTROL_SetPrescaler,"ax",%progbits
 350              		.align	2
 351              		.global	LED_CONTROL_SetPrescaler
 352              		.code	16
 353              		.thumb_func
 354              		.type	LED_CONTROL_SetPrescaler, %function
ARM GAS  C:\Users\gsgill\AppData\Local\Temp\ccJYZky6.s 			page 13


 355              	LED_CONTROL_SetPrescaler:
 356              	.LFB6:
 331:.\Generated_Source\PSoC4/LED_CONTROL.c **** 
 332:.\Generated_Source\PSoC4/LED_CONTROL.c **** 
 333:.\Generated_Source\PSoC4/LED_CONTROL.c **** /*******************************************************************************
 334:.\Generated_Source\PSoC4/LED_CONTROL.c **** * Function Name: LED_CONTROL_SetPrescaler
 335:.\Generated_Source\PSoC4/LED_CONTROL.c **** ********************************************************************************
 336:.\Generated_Source\PSoC4/LED_CONTROL.c **** *
 337:.\Generated_Source\PSoC4/LED_CONTROL.c **** * Summary:
 338:.\Generated_Source\PSoC4/LED_CONTROL.c **** *  Sets the prescaler value that is applied to the clock input.  Not applicable
 339:.\Generated_Source\PSoC4/LED_CONTROL.c **** *  to a PWM with the dead time mode or Quadrature Decoder mode.
 340:.\Generated_Source\PSoC4/LED_CONTROL.c **** *
 341:.\Generated_Source\PSoC4/LED_CONTROL.c **** * Parameters:
 342:.\Generated_Source\PSoC4/LED_CONTROL.c **** *  prescaler: Prescaler divider value
 343:.\Generated_Source\PSoC4/LED_CONTROL.c **** *   Values:
 344:.\Generated_Source\PSoC4/LED_CONTROL.c **** *         - LED_CONTROL_PRESCALE_DIVBY1    - Divide by 1 (no prescaling)
 345:.\Generated_Source\PSoC4/LED_CONTROL.c **** *         - LED_CONTROL_PRESCALE_DIVBY2    - Divide by 2
 346:.\Generated_Source\PSoC4/LED_CONTROL.c **** *         - LED_CONTROL_PRESCALE_DIVBY4    - Divide by 4
 347:.\Generated_Source\PSoC4/LED_CONTROL.c **** *         - LED_CONTROL_PRESCALE_DIVBY8    - Divide by 8
 348:.\Generated_Source\PSoC4/LED_CONTROL.c **** *         - LED_CONTROL_PRESCALE_DIVBY16   - Divide by 16
 349:.\Generated_Source\PSoC4/LED_CONTROL.c **** *         - LED_CONTROL_PRESCALE_DIVBY32   - Divide by 32
 350:.\Generated_Source\PSoC4/LED_CONTROL.c **** *         - LED_CONTROL_PRESCALE_DIVBY64   - Divide by 64
 351:.\Generated_Source\PSoC4/LED_CONTROL.c **** *         - LED_CONTROL_PRESCALE_DIVBY128  - Divide by 128
 352:.\Generated_Source\PSoC4/LED_CONTROL.c **** *
 353:.\Generated_Source\PSoC4/LED_CONTROL.c **** * Return:
 354:.\Generated_Source\PSoC4/LED_CONTROL.c **** *  None
 355:.\Generated_Source\PSoC4/LED_CONTROL.c **** *
 356:.\Generated_Source\PSoC4/LED_CONTROL.c **** *******************************************************************************/
 357:.\Generated_Source\PSoC4/LED_CONTROL.c **** void LED_CONTROL_SetPrescaler(uint32 prescaler)
 358:.\Generated_Source\PSoC4/LED_CONTROL.c **** {
 357              		.loc 1 358 0
 358              		.cfi_startproc
 359 0000 90B5     		push	{r4, r7, lr}
 360              		.cfi_def_cfa_offset 12
 361              		.cfi_offset 4, -12
 362              		.cfi_offset 7, -8
 363              		.cfi_offset 14, -4
 364 0002 85B0     		sub	sp, sp, #20
 365              		.cfi_def_cfa_offset 32
 366 0004 00AF     		add	r7, sp, #0
 367              		.cfi_def_cfa_register 7
 368 0006 7860     		str	r0, [r7, #4]
 359:.\Generated_Source\PSoC4/LED_CONTROL.c ****     uint8 enableInterrupts;
 360:.\Generated_Source\PSoC4/LED_CONTROL.c **** 
 361:.\Generated_Source\PSoC4/LED_CONTROL.c ****     enableInterrupts = CyEnterCriticalSection();
 369              		.loc 1 361 0
 370 0008 3C1C     		mov	r4, r7
 371 000a 0F34     		add	r4, r4, #15
 372 000c FFF7FEFF 		bl	CyEnterCriticalSection
 373 0010 031C     		mov	r3, r0
 374 0012 2370     		strb	r3, [r4]
 362:.\Generated_Source\PSoC4/LED_CONTROL.c **** 
 363:.\Generated_Source\PSoC4/LED_CONTROL.c ****     LED_CONTROL_CONTROL_REG &= (uint32)~LED_CONTROL_PRESCALER_MASK;
 375              		.loc 1 363 0
 376 0014 0A4B     		ldr	r3, .L21
 377 0016 0A4A     		ldr	r2, .L21
 378 0018 1168     		ldr	r1, [r2]
ARM GAS  C:\Users\gsgill\AppData\Local\Temp\ccJYZky6.s 			page 14


 379 001a 0A4A     		ldr	r2, .L21+4
 380 001c 0A40     		and	r2, r1
 381 001e 1A60     		str	r2, [r3]
 364:.\Generated_Source\PSoC4/LED_CONTROL.c ****     LED_CONTROL_CONTROL_REG |= prescaler;
 382              		.loc 1 364 0
 383 0020 074B     		ldr	r3, .L21
 384 0022 074A     		ldr	r2, .L21
 385 0024 1168     		ldr	r1, [r2]
 386 0026 7A68     		ldr	r2, [r7, #4]
 387 0028 0A43     		orr	r2, r1
 388 002a 1A60     		str	r2, [r3]
 365:.\Generated_Source\PSoC4/LED_CONTROL.c **** 
 366:.\Generated_Source\PSoC4/LED_CONTROL.c ****     CyExitCriticalSection(enableInterrupts);
 389              		.loc 1 366 0
 390 002c 3B1C     		mov	r3, r7
 391 002e 0F33     		add	r3, r3, #15
 392 0030 1B78     		ldrb	r3, [r3]
 393 0032 181C     		mov	r0, r3
 394 0034 FFF7FEFF 		bl	CyExitCriticalSection
 367:.\Generated_Source\PSoC4/LED_CONTROL.c **** }
 395              		.loc 1 367 0
 396 0038 BD46     		mov	sp, r7
 397 003a 05B0     		add	sp, sp, #20
 398              		@ sp needed
 399 003c 90BD     		pop	{r4, r7, pc}
 400              	.L22:
 401 003e C046     		.align	2
 402              	.L21:
 403 0040 00010540 		.word	1074069760
 404 0044 FF00FFFF 		.word	-65281
 405              		.cfi_endproc
 406              	.LFE6:
 407              		.size	LED_CONTROL_SetPrescaler, .-LED_CONTROL_SetPrescaler
 408              		.section	.text.LED_CONTROL_SetOneShot,"ax",%progbits
 409              		.align	2
 410              		.global	LED_CONTROL_SetOneShot
 411              		.code	16
 412              		.thumb_func
 413              		.type	LED_CONTROL_SetOneShot, %function
 414              	LED_CONTROL_SetOneShot:
 415              	.LFB7:
 368:.\Generated_Source\PSoC4/LED_CONTROL.c **** 
 369:.\Generated_Source\PSoC4/LED_CONTROL.c **** 
 370:.\Generated_Source\PSoC4/LED_CONTROL.c **** /*******************************************************************************
 371:.\Generated_Source\PSoC4/LED_CONTROL.c **** * Function Name: LED_CONTROL_SetOneShot
 372:.\Generated_Source\PSoC4/LED_CONTROL.c **** ********************************************************************************
 373:.\Generated_Source\PSoC4/LED_CONTROL.c **** *
 374:.\Generated_Source\PSoC4/LED_CONTROL.c **** * Summary:
 375:.\Generated_Source\PSoC4/LED_CONTROL.c **** *  Writes the register that controls whether the LED_CONTROL runs
 376:.\Generated_Source\PSoC4/LED_CONTROL.c **** *  continuously or stops when terminal count is reached.  By default the
 377:.\Generated_Source\PSoC4/LED_CONTROL.c **** *  LED_CONTROL operates in the continuous mode.
 378:.\Generated_Source\PSoC4/LED_CONTROL.c **** *
 379:.\Generated_Source\PSoC4/LED_CONTROL.c **** * Parameters:
 380:.\Generated_Source\PSoC4/LED_CONTROL.c **** *  oneShotEnable
 381:.\Generated_Source\PSoC4/LED_CONTROL.c **** *   Values:
 382:.\Generated_Source\PSoC4/LED_CONTROL.c **** *     - 0 - Continuous
 383:.\Generated_Source\PSoC4/LED_CONTROL.c **** *     - 1 - Enable One Shot
ARM GAS  C:\Users\gsgill\AppData\Local\Temp\ccJYZky6.s 			page 15


 384:.\Generated_Source\PSoC4/LED_CONTROL.c **** *
 385:.\Generated_Source\PSoC4/LED_CONTROL.c **** * Return:
 386:.\Generated_Source\PSoC4/LED_CONTROL.c **** *  None
 387:.\Generated_Source\PSoC4/LED_CONTROL.c **** *
 388:.\Generated_Source\PSoC4/LED_CONTROL.c **** *******************************************************************************/
 389:.\Generated_Source\PSoC4/LED_CONTROL.c **** void LED_CONTROL_SetOneShot(uint32 oneShotEnable)
 390:.\Generated_Source\PSoC4/LED_CONTROL.c **** {
 416              		.loc 1 390 0
 417              		.cfi_startproc
 418 0000 90B5     		push	{r4, r7, lr}
 419              		.cfi_def_cfa_offset 12
 420              		.cfi_offset 4, -12
 421              		.cfi_offset 7, -8
 422              		.cfi_offset 14, -4
 423 0002 85B0     		sub	sp, sp, #20
 424              		.cfi_def_cfa_offset 32
 425 0004 00AF     		add	r7, sp, #0
 426              		.cfi_def_cfa_register 7
 427 0006 7860     		str	r0, [r7, #4]
 391:.\Generated_Source\PSoC4/LED_CONTROL.c ****     uint8 enableInterrupts;
 392:.\Generated_Source\PSoC4/LED_CONTROL.c **** 
 393:.\Generated_Source\PSoC4/LED_CONTROL.c ****     enableInterrupts = CyEnterCriticalSection();
 428              		.loc 1 393 0
 429 0008 3C1C     		mov	r4, r7
 430 000a 0F34     		add	r4, r4, #15
 431 000c FFF7FEFF 		bl	CyEnterCriticalSection
 432 0010 031C     		mov	r3, r0
 433 0012 2370     		strb	r3, [r4]
 394:.\Generated_Source\PSoC4/LED_CONTROL.c **** 
 395:.\Generated_Source\PSoC4/LED_CONTROL.c ****     LED_CONTROL_CONTROL_REG &= (uint32)~LED_CONTROL_ONESHOT_MASK;
 434              		.loc 1 395 0
 435 0014 0B4B     		ldr	r3, .L24
 436 0016 0B4A     		ldr	r2, .L24
 437 0018 1168     		ldr	r1, [r2]
 438 001a 0B4A     		ldr	r2, .L24+4
 439 001c 0A40     		and	r2, r1
 440 001e 1A60     		str	r2, [r3]
 396:.\Generated_Source\PSoC4/LED_CONTROL.c ****     LED_CONTROL_CONTROL_REG |= ((uint32)((oneShotEnable & LED_CONTROL_1BIT_MASK) <<
 441              		.loc 1 396 0
 442 0020 084B     		ldr	r3, .L24
 443 0022 084A     		ldr	r2, .L24
 444 0024 1168     		ldr	r1, [r2]
 445 0026 7868     		ldr	r0, [r7, #4]
 446 0028 0122     		mov	r2, #1
 447 002a 0240     		and	r2, r0
 448 002c 9204     		lsl	r2, r2, #18
 449 002e 0A43     		orr	r2, r1
 450 0030 1A60     		str	r2, [r3]
 397:.\Generated_Source\PSoC4/LED_CONTROL.c ****                                                                LED_CONTROL_ONESHOT_SHIFT));
 398:.\Generated_Source\PSoC4/LED_CONTROL.c **** 
 399:.\Generated_Source\PSoC4/LED_CONTROL.c ****     CyExitCriticalSection(enableInterrupts);
 451              		.loc 1 399 0
 452 0032 3B1C     		mov	r3, r7
 453 0034 0F33     		add	r3, r3, #15
 454 0036 1B78     		ldrb	r3, [r3]
 455 0038 181C     		mov	r0, r3
 456 003a FFF7FEFF 		bl	CyExitCriticalSection
ARM GAS  C:\Users\gsgill\AppData\Local\Temp\ccJYZky6.s 			page 16


 400:.\Generated_Source\PSoC4/LED_CONTROL.c **** }
 457              		.loc 1 400 0
 458 003e BD46     		mov	sp, r7
 459 0040 05B0     		add	sp, sp, #20
 460              		@ sp needed
 461 0042 90BD     		pop	{r4, r7, pc}
 462              	.L25:
 463              		.align	2
 464              	.L24:
 465 0044 00010540 		.word	1074069760
 466 0048 FFFFFBFF 		.word	-262145
 467              		.cfi_endproc
 468              	.LFE7:
 469              		.size	LED_CONTROL_SetOneShot, .-LED_CONTROL_SetOneShot
 470              		.section	.text.LED_CONTROL_SetPWMMode,"ax",%progbits
 471              		.align	2
 472              		.global	LED_CONTROL_SetPWMMode
 473              		.code	16
 474              		.thumb_func
 475              		.type	LED_CONTROL_SetPWMMode, %function
 476              	LED_CONTROL_SetPWMMode:
 477              	.LFB8:
 401:.\Generated_Source\PSoC4/LED_CONTROL.c **** 
 402:.\Generated_Source\PSoC4/LED_CONTROL.c **** 
 403:.\Generated_Source\PSoC4/LED_CONTROL.c **** /*******************************************************************************
 404:.\Generated_Source\PSoC4/LED_CONTROL.c **** * Function Name: LED_CONTROL_SetPWMMode
 405:.\Generated_Source\PSoC4/LED_CONTROL.c **** ********************************************************************************
 406:.\Generated_Source\PSoC4/LED_CONTROL.c **** *
 407:.\Generated_Source\PSoC4/LED_CONTROL.c **** * Summary:
 408:.\Generated_Source\PSoC4/LED_CONTROL.c **** *  Writes the control register that determines what mode of operation the PWM
 409:.\Generated_Source\PSoC4/LED_CONTROL.c **** *  output lines are driven in.  There is a setting for what to do on a
 410:.\Generated_Source\PSoC4/LED_CONTROL.c **** *  comparison match (CC_MATCH), on an overflow (OVERFLOW) and on an underflow
 411:.\Generated_Source\PSoC4/LED_CONTROL.c **** *  (UNDERFLOW).  The value for each of the three must be ORed together to form
 412:.\Generated_Source\PSoC4/LED_CONTROL.c **** *  the mode.
 413:.\Generated_Source\PSoC4/LED_CONTROL.c **** *
 414:.\Generated_Source\PSoC4/LED_CONTROL.c **** * Parameters:
 415:.\Generated_Source\PSoC4/LED_CONTROL.c **** *  modeMask: A combination of three mode settings.  Mask must include a value
 416:.\Generated_Source\PSoC4/LED_CONTROL.c **** *  for each of the three or use one of the preconfigured PWM settings.
 417:.\Generated_Source\PSoC4/LED_CONTROL.c **** *   Values:
 418:.\Generated_Source\PSoC4/LED_CONTROL.c **** *     - CC_MATCH_SET        - Set on comparison match
 419:.\Generated_Source\PSoC4/LED_CONTROL.c **** *     - CC_MATCH_CLEAR      - Clear on comparison match
 420:.\Generated_Source\PSoC4/LED_CONTROL.c **** *     - CC_MATCH_INVERT     - Invert on comparison match
 421:.\Generated_Source\PSoC4/LED_CONTROL.c **** *     - CC_MATCH_NO_CHANGE  - No change on comparison match
 422:.\Generated_Source\PSoC4/LED_CONTROL.c **** *     - OVERLOW_SET         - Set on overflow
 423:.\Generated_Source\PSoC4/LED_CONTROL.c **** *     - OVERLOW_CLEAR       - Clear on  overflow
 424:.\Generated_Source\PSoC4/LED_CONTROL.c **** *     - OVERLOW_INVERT      - Invert on overflow
 425:.\Generated_Source\PSoC4/LED_CONTROL.c **** *     - OVERLOW_NO_CHANGE   - No change on overflow
 426:.\Generated_Source\PSoC4/LED_CONTROL.c **** *     - UNDERFLOW_SET       - Set on underflow
 427:.\Generated_Source\PSoC4/LED_CONTROL.c **** *     - UNDERFLOW_CLEAR     - Clear on underflow
 428:.\Generated_Source\PSoC4/LED_CONTROL.c **** *     - UNDERFLOW_INVERT    - Invert on underflow
 429:.\Generated_Source\PSoC4/LED_CONTROL.c **** *     - UNDERFLOW_NO_CHANGE - No change on underflow
 430:.\Generated_Source\PSoC4/LED_CONTROL.c **** *     - PWM_MODE_LEFT       - Setting for left aligned PWM.  Should be combined
 431:.\Generated_Source\PSoC4/LED_CONTROL.c **** *                             with up counting mode
 432:.\Generated_Source\PSoC4/LED_CONTROL.c **** *     - PWM_MODE_RIGHT      - Setting for right aligned PWM.  Should be combined
 433:.\Generated_Source\PSoC4/LED_CONTROL.c **** *                             with down counting mode
 434:.\Generated_Source\PSoC4/LED_CONTROL.c **** *     - PWM_MODE_CENTER     - Setting for center aligned PWM.  Should be
 435:.\Generated_Source\PSoC4/LED_CONTROL.c **** *                             combined with up/down 0 mode
ARM GAS  C:\Users\gsgill\AppData\Local\Temp\ccJYZky6.s 			page 17


 436:.\Generated_Source\PSoC4/LED_CONTROL.c **** *     - PWM_MODE_ASYM       - Setting for asymmetric PWM.  Should be combined
 437:.\Generated_Source\PSoC4/LED_CONTROL.c **** *                             with up/down 1 mode
 438:.\Generated_Source\PSoC4/LED_CONTROL.c **** *
 439:.\Generated_Source\PSoC4/LED_CONTROL.c **** * Return:
 440:.\Generated_Source\PSoC4/LED_CONTROL.c **** *  None
 441:.\Generated_Source\PSoC4/LED_CONTROL.c **** *
 442:.\Generated_Source\PSoC4/LED_CONTROL.c **** *******************************************************************************/
 443:.\Generated_Source\PSoC4/LED_CONTROL.c **** void LED_CONTROL_SetPWMMode(uint32 modeMask)
 444:.\Generated_Source\PSoC4/LED_CONTROL.c **** {
 478              		.loc 1 444 0
 479              		.cfi_startproc
 480 0000 80B5     		push	{r7, lr}
 481              		.cfi_def_cfa_offset 8
 482              		.cfi_offset 7, -8
 483              		.cfi_offset 14, -4
 484 0002 82B0     		sub	sp, sp, #8
 485              		.cfi_def_cfa_offset 16
 486 0004 00AF     		add	r7, sp, #0
 487              		.cfi_def_cfa_register 7
 488 0006 7860     		str	r0, [r7, #4]
 445:.\Generated_Source\PSoC4/LED_CONTROL.c ****     LED_CONTROL_TRIG_CONTROL2_REG = (modeMask & LED_CONTROL_6BIT_MASK);
 489              		.loc 1 445 0
 490 0008 034B     		ldr	r3, .L27
 491 000a 7968     		ldr	r1, [r7, #4]
 492 000c 3F22     		mov	r2, #63
 493 000e 0A40     		and	r2, r1
 494 0010 1A60     		str	r2, [r3]
 446:.\Generated_Source\PSoC4/LED_CONTROL.c **** }
 495              		.loc 1 446 0
 496 0012 BD46     		mov	sp, r7
 497 0014 02B0     		add	sp, sp, #8
 498              		@ sp needed
 499 0016 80BD     		pop	{r7, pc}
 500              	.L28:
 501              		.align	2
 502              	.L27:
 503 0018 28010540 		.word	1074069800
 504              		.cfi_endproc
 505              	.LFE8:
 506              		.size	LED_CONTROL_SetPWMMode, .-LED_CONTROL_SetPWMMode
 507              		.section	.text.LED_CONTROL_SetPWMSyncKill,"ax",%progbits
 508              		.align	2
 509              		.global	LED_CONTROL_SetPWMSyncKill
 510              		.code	16
 511              		.thumb_func
 512              		.type	LED_CONTROL_SetPWMSyncKill, %function
 513              	LED_CONTROL_SetPWMSyncKill:
 514              	.LFB9:
 447:.\Generated_Source\PSoC4/LED_CONTROL.c **** 
 448:.\Generated_Source\PSoC4/LED_CONTROL.c **** 
 449:.\Generated_Source\PSoC4/LED_CONTROL.c **** 
 450:.\Generated_Source\PSoC4/LED_CONTROL.c **** /*******************************************************************************
 451:.\Generated_Source\PSoC4/LED_CONTROL.c **** * Function Name: LED_CONTROL_SetPWMSyncKill
 452:.\Generated_Source\PSoC4/LED_CONTROL.c **** ********************************************************************************
 453:.\Generated_Source\PSoC4/LED_CONTROL.c **** *
 454:.\Generated_Source\PSoC4/LED_CONTROL.c **** * Summary:
 455:.\Generated_Source\PSoC4/LED_CONTROL.c **** *  Writes the register that controls whether the PWM kill signal (stop input)
ARM GAS  C:\Users\gsgill\AppData\Local\Temp\ccJYZky6.s 			page 18


 456:.\Generated_Source\PSoC4/LED_CONTROL.c **** *  causes asynchronous or synchronous kill operation.  By default the kill
 457:.\Generated_Source\PSoC4/LED_CONTROL.c **** *  operation is asynchronous.  This functionality is only applicable to the PWM
 458:.\Generated_Source\PSoC4/LED_CONTROL.c **** *  and PWM with dead time modes.
 459:.\Generated_Source\PSoC4/LED_CONTROL.c **** *
 460:.\Generated_Source\PSoC4/LED_CONTROL.c **** *  For Synchronous mode the kill signal disables both the line and line_n
 461:.\Generated_Source\PSoC4/LED_CONTROL.c **** *  signals until the next terminal count.
 462:.\Generated_Source\PSoC4/LED_CONTROL.c **** *
 463:.\Generated_Source\PSoC4/LED_CONTROL.c **** *  For Asynchronous mode the kill signal disables both the line and line_n
 464:.\Generated_Source\PSoC4/LED_CONTROL.c **** *  signals when the kill signal is present.  This mode should only be used
 465:.\Generated_Source\PSoC4/LED_CONTROL.c **** *  when the kill signal (stop input) is configured in the pass through mode
 466:.\Generated_Source\PSoC4/LED_CONTROL.c **** *  (Level sensitive signal).
 467:.\Generated_Source\PSoC4/LED_CONTROL.c **** 
 468:.\Generated_Source\PSoC4/LED_CONTROL.c **** *
 469:.\Generated_Source\PSoC4/LED_CONTROL.c **** * Parameters:
 470:.\Generated_Source\PSoC4/LED_CONTROL.c **** *  syncKillEnable
 471:.\Generated_Source\PSoC4/LED_CONTROL.c **** *   Values:
 472:.\Generated_Source\PSoC4/LED_CONTROL.c **** *     - 0 - Asynchronous
 473:.\Generated_Source\PSoC4/LED_CONTROL.c **** *     - 1 - Synchronous
 474:.\Generated_Source\PSoC4/LED_CONTROL.c **** *
 475:.\Generated_Source\PSoC4/LED_CONTROL.c **** * Return:
 476:.\Generated_Source\PSoC4/LED_CONTROL.c **** *  None
 477:.\Generated_Source\PSoC4/LED_CONTROL.c **** *
 478:.\Generated_Source\PSoC4/LED_CONTROL.c **** *******************************************************************************/
 479:.\Generated_Source\PSoC4/LED_CONTROL.c **** void LED_CONTROL_SetPWMSyncKill(uint32 syncKillEnable)
 480:.\Generated_Source\PSoC4/LED_CONTROL.c **** {
 515              		.loc 1 480 0
 516              		.cfi_startproc
 517 0000 90B5     		push	{r4, r7, lr}
 518              		.cfi_def_cfa_offset 12
 519              		.cfi_offset 4, -12
 520              		.cfi_offset 7, -8
 521              		.cfi_offset 14, -4
 522 0002 85B0     		sub	sp, sp, #20
 523              		.cfi_def_cfa_offset 32
 524 0004 00AF     		add	r7, sp, #0
 525              		.cfi_def_cfa_register 7
 526 0006 7860     		str	r0, [r7, #4]
 481:.\Generated_Source\PSoC4/LED_CONTROL.c ****     uint8 enableInterrupts;
 482:.\Generated_Source\PSoC4/LED_CONTROL.c **** 
 483:.\Generated_Source\PSoC4/LED_CONTROL.c ****     enableInterrupts = CyEnterCriticalSection();
 527              		.loc 1 483 0
 528 0008 3C1C     		mov	r4, r7
 529 000a 0F34     		add	r4, r4, #15
 530 000c FFF7FEFF 		bl	CyEnterCriticalSection
 531 0010 031C     		mov	r3, r0
 532 0012 2370     		strb	r3, [r4]
 484:.\Generated_Source\PSoC4/LED_CONTROL.c **** 
 485:.\Generated_Source\PSoC4/LED_CONTROL.c ****     LED_CONTROL_CONTROL_REG &= (uint32)~LED_CONTROL_PWM_SYNC_KILL_MASK;
 533              		.loc 1 485 0
 534 0014 0B4B     		ldr	r3, .L30
 535 0016 0B4A     		ldr	r2, .L30
 536 0018 1268     		ldr	r2, [r2]
 537 001a 0421     		mov	r1, #4
 538 001c 8A43     		bic	r2, r1
 539 001e 1A60     		str	r2, [r3]
 486:.\Generated_Source\PSoC4/LED_CONTROL.c ****     LED_CONTROL_CONTROL_REG |= ((uint32)((syncKillEnable & LED_CONTROL_1BIT_MASK)  <<
 540              		.loc 1 486 0
ARM GAS  C:\Users\gsgill\AppData\Local\Temp\ccJYZky6.s 			page 19


 541 0020 084B     		ldr	r3, .L30
 542 0022 084A     		ldr	r2, .L30
 543 0024 1168     		ldr	r1, [r2]
 544 0026 7868     		ldr	r0, [r7, #4]
 545 0028 0122     		mov	r2, #1
 546 002a 0240     		and	r2, r0
 547 002c 9200     		lsl	r2, r2, #2
 548 002e 0A43     		orr	r2, r1
 549 0030 1A60     		str	r2, [r3]
 487:.\Generated_Source\PSoC4/LED_CONTROL.c ****                                                LED_CONTROL_PWM_SYNC_KILL_SHIFT));
 488:.\Generated_Source\PSoC4/LED_CONTROL.c **** 
 489:.\Generated_Source\PSoC4/LED_CONTROL.c ****     CyExitCriticalSection(enableInterrupts);
 550              		.loc 1 489 0
 551 0032 3B1C     		mov	r3, r7
 552 0034 0F33     		add	r3, r3, #15
 553 0036 1B78     		ldrb	r3, [r3]
 554 0038 181C     		mov	r0, r3
 555 003a FFF7FEFF 		bl	CyExitCriticalSection
 490:.\Generated_Source\PSoC4/LED_CONTROL.c **** }
 556              		.loc 1 490 0
 557 003e BD46     		mov	sp, r7
 558 0040 05B0     		add	sp, sp, #20
 559              		@ sp needed
 560 0042 90BD     		pop	{r4, r7, pc}
 561              	.L31:
 562              		.align	2
 563              	.L30:
 564 0044 00010540 		.word	1074069760
 565              		.cfi_endproc
 566              	.LFE9:
 567              		.size	LED_CONTROL_SetPWMSyncKill, .-LED_CONTROL_SetPWMSyncKill
 568              		.section	.text.LED_CONTROL_SetPWMStopOnKill,"ax",%progbits
 569              		.align	2
 570              		.global	LED_CONTROL_SetPWMStopOnKill
 571              		.code	16
 572              		.thumb_func
 573              		.type	LED_CONTROL_SetPWMStopOnKill, %function
 574              	LED_CONTROL_SetPWMStopOnKill:
 575              	.LFB10:
 491:.\Generated_Source\PSoC4/LED_CONTROL.c **** 
 492:.\Generated_Source\PSoC4/LED_CONTROL.c **** 
 493:.\Generated_Source\PSoC4/LED_CONTROL.c **** /*******************************************************************************
 494:.\Generated_Source\PSoC4/LED_CONTROL.c **** * Function Name: LED_CONTROL_SetPWMStopOnKill
 495:.\Generated_Source\PSoC4/LED_CONTROL.c **** ********************************************************************************
 496:.\Generated_Source\PSoC4/LED_CONTROL.c **** *
 497:.\Generated_Source\PSoC4/LED_CONTROL.c **** * Summary:
 498:.\Generated_Source\PSoC4/LED_CONTROL.c **** *  Writes the register that controls whether the PWM kill signal (stop input)
 499:.\Generated_Source\PSoC4/LED_CONTROL.c **** *  causes the PWM counter to stop.  By default the kill operation does not stop
 500:.\Generated_Source\PSoC4/LED_CONTROL.c **** *  the counter.  This functionality is only applicable to the three PWM modes.
 501:.\Generated_Source\PSoC4/LED_CONTROL.c **** *
 502:.\Generated_Source\PSoC4/LED_CONTROL.c **** *
 503:.\Generated_Source\PSoC4/LED_CONTROL.c **** * Parameters:
 504:.\Generated_Source\PSoC4/LED_CONTROL.c **** *  stopOnKillEnable
 505:.\Generated_Source\PSoC4/LED_CONTROL.c **** *   Values:
 506:.\Generated_Source\PSoC4/LED_CONTROL.c **** *     - 0 - Don't stop
 507:.\Generated_Source\PSoC4/LED_CONTROL.c **** *     - 1 - Stop
 508:.\Generated_Source\PSoC4/LED_CONTROL.c **** *
ARM GAS  C:\Users\gsgill\AppData\Local\Temp\ccJYZky6.s 			page 20


 509:.\Generated_Source\PSoC4/LED_CONTROL.c **** * Return:
 510:.\Generated_Source\PSoC4/LED_CONTROL.c **** *  None
 511:.\Generated_Source\PSoC4/LED_CONTROL.c **** *
 512:.\Generated_Source\PSoC4/LED_CONTROL.c **** *******************************************************************************/
 513:.\Generated_Source\PSoC4/LED_CONTROL.c **** void LED_CONTROL_SetPWMStopOnKill(uint32 stopOnKillEnable)
 514:.\Generated_Source\PSoC4/LED_CONTROL.c **** {
 576              		.loc 1 514 0
 577              		.cfi_startproc
 578 0000 90B5     		push	{r4, r7, lr}
 579              		.cfi_def_cfa_offset 12
 580              		.cfi_offset 4, -12
 581              		.cfi_offset 7, -8
 582              		.cfi_offset 14, -4
 583 0002 85B0     		sub	sp, sp, #20
 584              		.cfi_def_cfa_offset 32
 585 0004 00AF     		add	r7, sp, #0
 586              		.cfi_def_cfa_register 7
 587 0006 7860     		str	r0, [r7, #4]
 515:.\Generated_Source\PSoC4/LED_CONTROL.c ****     uint8 enableInterrupts;
 516:.\Generated_Source\PSoC4/LED_CONTROL.c **** 
 517:.\Generated_Source\PSoC4/LED_CONTROL.c ****     enableInterrupts = CyEnterCriticalSection();
 588              		.loc 1 517 0
 589 0008 3C1C     		mov	r4, r7
 590 000a 0F34     		add	r4, r4, #15
 591 000c FFF7FEFF 		bl	CyEnterCriticalSection
 592 0010 031C     		mov	r3, r0
 593 0012 2370     		strb	r3, [r4]
 518:.\Generated_Source\PSoC4/LED_CONTROL.c **** 
 519:.\Generated_Source\PSoC4/LED_CONTROL.c ****     LED_CONTROL_CONTROL_REG &= (uint32)~LED_CONTROL_PWM_STOP_KILL_MASK;
 594              		.loc 1 519 0
 595 0014 0B4B     		ldr	r3, .L33
 596 0016 0B4A     		ldr	r2, .L33
 597 0018 1268     		ldr	r2, [r2]
 598 001a 0821     		mov	r1, #8
 599 001c 8A43     		bic	r2, r1
 600 001e 1A60     		str	r2, [r3]
 520:.\Generated_Source\PSoC4/LED_CONTROL.c ****     LED_CONTROL_CONTROL_REG |= ((uint32)((stopOnKillEnable & LED_CONTROL_1BIT_MASK)  <<
 601              		.loc 1 520 0
 602 0020 084B     		ldr	r3, .L33
 603 0022 084A     		ldr	r2, .L33
 604 0024 1168     		ldr	r1, [r2]
 605 0026 7868     		ldr	r0, [r7, #4]
 606 0028 0122     		mov	r2, #1
 607 002a 0240     		and	r2, r0
 608 002c D200     		lsl	r2, r2, #3
 609 002e 0A43     		orr	r2, r1
 610 0030 1A60     		str	r2, [r3]
 521:.\Generated_Source\PSoC4/LED_CONTROL.c ****                                                          LED_CONTROL_PWM_STOP_KILL_SHIFT));
 522:.\Generated_Source\PSoC4/LED_CONTROL.c **** 
 523:.\Generated_Source\PSoC4/LED_CONTROL.c ****     CyExitCriticalSection(enableInterrupts);
 611              		.loc 1 523 0
 612 0032 3B1C     		mov	r3, r7
 613 0034 0F33     		add	r3, r3, #15
 614 0036 1B78     		ldrb	r3, [r3]
 615 0038 181C     		mov	r0, r3
 616 003a FFF7FEFF 		bl	CyExitCriticalSection
 524:.\Generated_Source\PSoC4/LED_CONTROL.c **** }
ARM GAS  C:\Users\gsgill\AppData\Local\Temp\ccJYZky6.s 			page 21


 617              		.loc 1 524 0
 618 003e BD46     		mov	sp, r7
 619 0040 05B0     		add	sp, sp, #20
 620              		@ sp needed
 621 0042 90BD     		pop	{r4, r7, pc}
 622              	.L34:
 623              		.align	2
 624              	.L33:
 625 0044 00010540 		.word	1074069760
 626              		.cfi_endproc
 627              	.LFE10:
 628              		.size	LED_CONTROL_SetPWMStopOnKill, .-LED_CONTROL_SetPWMStopOnKill
 629              		.section	.text.LED_CONTROL_SetPWMDeadTime,"ax",%progbits
 630              		.align	2
 631              		.global	LED_CONTROL_SetPWMDeadTime
 632              		.code	16
 633              		.thumb_func
 634              		.type	LED_CONTROL_SetPWMDeadTime, %function
 635              	LED_CONTROL_SetPWMDeadTime:
 636              	.LFB11:
 525:.\Generated_Source\PSoC4/LED_CONTROL.c **** 
 526:.\Generated_Source\PSoC4/LED_CONTROL.c **** 
 527:.\Generated_Source\PSoC4/LED_CONTROL.c **** /*******************************************************************************
 528:.\Generated_Source\PSoC4/LED_CONTROL.c **** * Function Name: LED_CONTROL_SetPWMDeadTime
 529:.\Generated_Source\PSoC4/LED_CONTROL.c **** ********************************************************************************
 530:.\Generated_Source\PSoC4/LED_CONTROL.c **** *
 531:.\Generated_Source\PSoC4/LED_CONTROL.c **** * Summary:
 532:.\Generated_Source\PSoC4/LED_CONTROL.c **** *  Writes the dead time control value.  This value delays the rising edge of
 533:.\Generated_Source\PSoC4/LED_CONTROL.c **** *  both the line and line_n signals the designated number of cycles resulting
 534:.\Generated_Source\PSoC4/LED_CONTROL.c **** *  in both signals being inactive for that many cycles.  This functionality is
 535:.\Generated_Source\PSoC4/LED_CONTROL.c **** *  only applicable to the PWM in the dead time mode.
 536:.\Generated_Source\PSoC4/LED_CONTROL.c **** 
 537:.\Generated_Source\PSoC4/LED_CONTROL.c **** *
 538:.\Generated_Source\PSoC4/LED_CONTROL.c **** * Parameters:
 539:.\Generated_Source\PSoC4/LED_CONTROL.c **** *  Dead time to insert
 540:.\Generated_Source\PSoC4/LED_CONTROL.c **** *   Values: 0 to 255
 541:.\Generated_Source\PSoC4/LED_CONTROL.c **** *
 542:.\Generated_Source\PSoC4/LED_CONTROL.c **** * Return:
 543:.\Generated_Source\PSoC4/LED_CONTROL.c **** *  None
 544:.\Generated_Source\PSoC4/LED_CONTROL.c **** *
 545:.\Generated_Source\PSoC4/LED_CONTROL.c **** *******************************************************************************/
 546:.\Generated_Source\PSoC4/LED_CONTROL.c **** void LED_CONTROL_SetPWMDeadTime(uint32 deadTime)
 547:.\Generated_Source\PSoC4/LED_CONTROL.c **** {
 637              		.loc 1 547 0
 638              		.cfi_startproc
 639 0000 90B5     		push	{r4, r7, lr}
 640              		.cfi_def_cfa_offset 12
 641              		.cfi_offset 4, -12
 642              		.cfi_offset 7, -8
 643              		.cfi_offset 14, -4
 644 0002 85B0     		sub	sp, sp, #20
 645              		.cfi_def_cfa_offset 32
 646 0004 00AF     		add	r7, sp, #0
 647              		.cfi_def_cfa_register 7
 648 0006 7860     		str	r0, [r7, #4]
 548:.\Generated_Source\PSoC4/LED_CONTROL.c ****     uint8 enableInterrupts;
 549:.\Generated_Source\PSoC4/LED_CONTROL.c **** 
ARM GAS  C:\Users\gsgill\AppData\Local\Temp\ccJYZky6.s 			page 22


 550:.\Generated_Source\PSoC4/LED_CONTROL.c ****     enableInterrupts = CyEnterCriticalSection();
 649              		.loc 1 550 0
 650 0008 3C1C     		mov	r4, r7
 651 000a 0F34     		add	r4, r4, #15
 652 000c FFF7FEFF 		bl	CyEnterCriticalSection
 653 0010 031C     		mov	r3, r0
 654 0012 2370     		strb	r3, [r4]
 551:.\Generated_Source\PSoC4/LED_CONTROL.c **** 
 552:.\Generated_Source\PSoC4/LED_CONTROL.c ****     LED_CONTROL_CONTROL_REG &= (uint32)~LED_CONTROL_PRESCALER_MASK;
 655              		.loc 1 552 0
 656 0014 0B4B     		ldr	r3, .L36
 657 0016 0B4A     		ldr	r2, .L36
 658 0018 1168     		ldr	r1, [r2]
 659 001a 0B4A     		ldr	r2, .L36+4
 660 001c 0A40     		and	r2, r1
 661 001e 1A60     		str	r2, [r3]
 553:.\Generated_Source\PSoC4/LED_CONTROL.c ****     LED_CONTROL_CONTROL_REG |= ((uint32)((deadTime & LED_CONTROL_8BIT_MASK) <<
 662              		.loc 1 553 0
 663 0020 084B     		ldr	r3, .L36
 664 0022 084A     		ldr	r2, .L36
 665 0024 1168     		ldr	r1, [r2]
 666 0026 7A68     		ldr	r2, [r7, #4]
 667 0028 1202     		lsl	r2, r2, #8
 668 002a 1204     		lsl	r2, r2, #16
 669 002c 120C     		lsr	r2, r2, #16
 670 002e 0A43     		orr	r2, r1
 671 0030 1A60     		str	r2, [r3]
 554:.\Generated_Source\PSoC4/LED_CONTROL.c ****                                                           LED_CONTROL_PRESCALER_SHIFT));
 555:.\Generated_Source\PSoC4/LED_CONTROL.c **** 
 556:.\Generated_Source\PSoC4/LED_CONTROL.c ****     CyExitCriticalSection(enableInterrupts);
 672              		.loc 1 556 0
 673 0032 3B1C     		mov	r3, r7
 674 0034 0F33     		add	r3, r3, #15
 675 0036 1B78     		ldrb	r3, [r3]
 676 0038 181C     		mov	r0, r3
 677 003a FFF7FEFF 		bl	CyExitCriticalSection
 557:.\Generated_Source\PSoC4/LED_CONTROL.c **** }
 678              		.loc 1 557 0
 679 003e BD46     		mov	sp, r7
 680 0040 05B0     		add	sp, sp, #20
 681              		@ sp needed
 682 0042 90BD     		pop	{r4, r7, pc}
 683              	.L37:
 684              		.align	2
 685              	.L36:
 686 0044 00010540 		.word	1074069760
 687 0048 FF00FFFF 		.word	-65281
 688              		.cfi_endproc
 689              	.LFE11:
 690              		.size	LED_CONTROL_SetPWMDeadTime, .-LED_CONTROL_SetPWMDeadTime
 691              		.section	.text.LED_CONTROL_SetPWMInvert,"ax",%progbits
 692              		.align	2
 693              		.global	LED_CONTROL_SetPWMInvert
 694              		.code	16
 695              		.thumb_func
 696              		.type	LED_CONTROL_SetPWMInvert, %function
 697              	LED_CONTROL_SetPWMInvert:
ARM GAS  C:\Users\gsgill\AppData\Local\Temp\ccJYZky6.s 			page 23


 698              	.LFB12:
 558:.\Generated_Source\PSoC4/LED_CONTROL.c **** 
 559:.\Generated_Source\PSoC4/LED_CONTROL.c **** 
 560:.\Generated_Source\PSoC4/LED_CONTROL.c **** /*******************************************************************************
 561:.\Generated_Source\PSoC4/LED_CONTROL.c **** * Function Name: LED_CONTROL_SetPWMInvert
 562:.\Generated_Source\PSoC4/LED_CONTROL.c **** ********************************************************************************
 563:.\Generated_Source\PSoC4/LED_CONTROL.c **** *
 564:.\Generated_Source\PSoC4/LED_CONTROL.c **** * Summary:
 565:.\Generated_Source\PSoC4/LED_CONTROL.c **** *  Writes the bits that control whether the line and line_n outputs are
 566:.\Generated_Source\PSoC4/LED_CONTROL.c **** *  inverted from their normal output values.  This functionality is only
 567:.\Generated_Source\PSoC4/LED_CONTROL.c **** *  applicable to the three PWM modes.
 568:.\Generated_Source\PSoC4/LED_CONTROL.c **** *
 569:.\Generated_Source\PSoC4/LED_CONTROL.c **** * Parameters:
 570:.\Generated_Source\PSoC4/LED_CONTROL.c **** *  mask: Mask of outputs to invert.
 571:.\Generated_Source\PSoC4/LED_CONTROL.c **** *   Values:
 572:.\Generated_Source\PSoC4/LED_CONTROL.c **** *         - LED_CONTROL_INVERT_LINE   - Inverts the line output
 573:.\Generated_Source\PSoC4/LED_CONTROL.c **** *         - LED_CONTROL_INVERT_LINE_N - Inverts the line_n output
 574:.\Generated_Source\PSoC4/LED_CONTROL.c **** *
 575:.\Generated_Source\PSoC4/LED_CONTROL.c **** * Return:
 576:.\Generated_Source\PSoC4/LED_CONTROL.c **** *  None
 577:.\Generated_Source\PSoC4/LED_CONTROL.c **** *
 578:.\Generated_Source\PSoC4/LED_CONTROL.c **** *******************************************************************************/
 579:.\Generated_Source\PSoC4/LED_CONTROL.c **** void LED_CONTROL_SetPWMInvert(uint32 mask)
 580:.\Generated_Source\PSoC4/LED_CONTROL.c **** {
 699              		.loc 1 580 0
 700              		.cfi_startproc
 701 0000 90B5     		push	{r4, r7, lr}
 702              		.cfi_def_cfa_offset 12
 703              		.cfi_offset 4, -12
 704              		.cfi_offset 7, -8
 705              		.cfi_offset 14, -4
 706 0002 85B0     		sub	sp, sp, #20
 707              		.cfi_def_cfa_offset 32
 708 0004 00AF     		add	r7, sp, #0
 709              		.cfi_def_cfa_register 7
 710 0006 7860     		str	r0, [r7, #4]
 581:.\Generated_Source\PSoC4/LED_CONTROL.c ****     uint8 enableInterrupts;
 582:.\Generated_Source\PSoC4/LED_CONTROL.c **** 
 583:.\Generated_Source\PSoC4/LED_CONTROL.c ****     enableInterrupts = CyEnterCriticalSection();
 711              		.loc 1 583 0
 712 0008 3C1C     		mov	r4, r7
 713 000a 0F34     		add	r4, r4, #15
 714 000c FFF7FEFF 		bl	CyEnterCriticalSection
 715 0010 031C     		mov	r3, r0
 716 0012 2370     		strb	r3, [r4]
 584:.\Generated_Source\PSoC4/LED_CONTROL.c **** 
 585:.\Generated_Source\PSoC4/LED_CONTROL.c ****     LED_CONTROL_CONTROL_REG &= (uint32)~LED_CONTROL_INV_OUT_MASK;
 717              		.loc 1 585 0
 718 0014 0A4B     		ldr	r3, .L39
 719 0016 0A4A     		ldr	r2, .L39
 720 0018 1168     		ldr	r1, [r2]
 721 001a 0A4A     		ldr	r2, .L39+4
 722 001c 0A40     		and	r2, r1
 723 001e 1A60     		str	r2, [r3]
 586:.\Generated_Source\PSoC4/LED_CONTROL.c ****     LED_CONTROL_CONTROL_REG |= mask;
 724              		.loc 1 586 0
 725 0020 074B     		ldr	r3, .L39
ARM GAS  C:\Users\gsgill\AppData\Local\Temp\ccJYZky6.s 			page 24


 726 0022 074A     		ldr	r2, .L39
 727 0024 1168     		ldr	r1, [r2]
 728 0026 7A68     		ldr	r2, [r7, #4]
 729 0028 0A43     		orr	r2, r1
 730 002a 1A60     		str	r2, [r3]
 587:.\Generated_Source\PSoC4/LED_CONTROL.c **** 
 588:.\Generated_Source\PSoC4/LED_CONTROL.c ****     CyExitCriticalSection(enableInterrupts);
 731              		.loc 1 588 0
 732 002c 3B1C     		mov	r3, r7
 733 002e 0F33     		add	r3, r3, #15
 734 0030 1B78     		ldrb	r3, [r3]
 735 0032 181C     		mov	r0, r3
 736 0034 FFF7FEFF 		bl	CyExitCriticalSection
 589:.\Generated_Source\PSoC4/LED_CONTROL.c **** }
 737              		.loc 1 589 0
 738 0038 BD46     		mov	sp, r7
 739 003a 05B0     		add	sp, sp, #20
 740              		@ sp needed
 741 003c 90BD     		pop	{r4, r7, pc}
 742              	.L40:
 743 003e C046     		.align	2
 744              	.L39:
 745 0040 00010540 		.word	1074069760
 746 0044 FFFFCFFF 		.word	-3145729
 747              		.cfi_endproc
 748              	.LFE12:
 749              		.size	LED_CONTROL_SetPWMInvert, .-LED_CONTROL_SetPWMInvert
 750              		.section	.text.LED_CONTROL_WriteCounter,"ax",%progbits
 751              		.align	2
 752              		.global	LED_CONTROL_WriteCounter
 753              		.code	16
 754              		.thumb_func
 755              		.type	LED_CONTROL_WriteCounter, %function
 756              	LED_CONTROL_WriteCounter:
 757              	.LFB13:
 590:.\Generated_Source\PSoC4/LED_CONTROL.c **** 
 591:.\Generated_Source\PSoC4/LED_CONTROL.c **** 
 592:.\Generated_Source\PSoC4/LED_CONTROL.c **** 
 593:.\Generated_Source\PSoC4/LED_CONTROL.c **** /*******************************************************************************
 594:.\Generated_Source\PSoC4/LED_CONTROL.c **** * Function Name: LED_CONTROL_WriteCounter
 595:.\Generated_Source\PSoC4/LED_CONTROL.c **** ********************************************************************************
 596:.\Generated_Source\PSoC4/LED_CONTROL.c **** *
 597:.\Generated_Source\PSoC4/LED_CONTROL.c **** * Summary:
 598:.\Generated_Source\PSoC4/LED_CONTROL.c **** *  Writes a new 16bit counter value directly into the counter register, thus
 599:.\Generated_Source\PSoC4/LED_CONTROL.c **** *  setting the counter (not the period) to the value written. It is not
 600:.\Generated_Source\PSoC4/LED_CONTROL.c **** *  advised to write to this field when the counter is running.
 601:.\Generated_Source\PSoC4/LED_CONTROL.c **** *
 602:.\Generated_Source\PSoC4/LED_CONTROL.c **** * Parameters:
 603:.\Generated_Source\PSoC4/LED_CONTROL.c **** *  count: value to write
 604:.\Generated_Source\PSoC4/LED_CONTROL.c **** *
 605:.\Generated_Source\PSoC4/LED_CONTROL.c **** * Return:
 606:.\Generated_Source\PSoC4/LED_CONTROL.c **** *  None
 607:.\Generated_Source\PSoC4/LED_CONTROL.c **** *
 608:.\Generated_Source\PSoC4/LED_CONTROL.c **** *******************************************************************************/
 609:.\Generated_Source\PSoC4/LED_CONTROL.c **** void LED_CONTROL_WriteCounter(uint32 count)
 610:.\Generated_Source\PSoC4/LED_CONTROL.c **** {
 758              		.loc 1 610 0
ARM GAS  C:\Users\gsgill\AppData\Local\Temp\ccJYZky6.s 			page 25


 759              		.cfi_startproc
 760 0000 80B5     		push	{r7, lr}
 761              		.cfi_def_cfa_offset 8
 762              		.cfi_offset 7, -8
 763              		.cfi_offset 14, -4
 764 0002 82B0     		sub	sp, sp, #8
 765              		.cfi_def_cfa_offset 16
 766 0004 00AF     		add	r7, sp, #0
 767              		.cfi_def_cfa_register 7
 768 0006 7860     		str	r0, [r7, #4]
 611:.\Generated_Source\PSoC4/LED_CONTROL.c ****     LED_CONTROL_COUNTER_REG = (count & LED_CONTROL_16BIT_MASK);
 769              		.loc 1 611 0
 770 0008 034B     		ldr	r3, .L42
 771 000a 7A68     		ldr	r2, [r7, #4]
 772 000c 1204     		lsl	r2, r2, #16
 773 000e 120C     		lsr	r2, r2, #16
 774 0010 1A60     		str	r2, [r3]
 612:.\Generated_Source\PSoC4/LED_CONTROL.c **** }
 775              		.loc 1 612 0
 776 0012 BD46     		mov	sp, r7
 777 0014 02B0     		add	sp, sp, #8
 778              		@ sp needed
 779 0016 80BD     		pop	{r7, pc}
 780              	.L43:
 781              		.align	2
 782              	.L42:
 783 0018 08010540 		.word	1074069768
 784              		.cfi_endproc
 785              	.LFE13:
 786              		.size	LED_CONTROL_WriteCounter, .-LED_CONTROL_WriteCounter
 787              		.section	.text.LED_CONTROL_ReadCounter,"ax",%progbits
 788              		.align	2
 789              		.global	LED_CONTROL_ReadCounter
 790              		.code	16
 791              		.thumb_func
 792              		.type	LED_CONTROL_ReadCounter, %function
 793              	LED_CONTROL_ReadCounter:
 794              	.LFB14:
 613:.\Generated_Source\PSoC4/LED_CONTROL.c **** 
 614:.\Generated_Source\PSoC4/LED_CONTROL.c **** 
 615:.\Generated_Source\PSoC4/LED_CONTROL.c **** /*******************************************************************************
 616:.\Generated_Source\PSoC4/LED_CONTROL.c **** * Function Name: LED_CONTROL_ReadCounter
 617:.\Generated_Source\PSoC4/LED_CONTROL.c **** ********************************************************************************
 618:.\Generated_Source\PSoC4/LED_CONTROL.c **** *
 619:.\Generated_Source\PSoC4/LED_CONTROL.c **** * Summary:
 620:.\Generated_Source\PSoC4/LED_CONTROL.c **** *  Reads the current counter value.
 621:.\Generated_Source\PSoC4/LED_CONTROL.c **** *
 622:.\Generated_Source\PSoC4/LED_CONTROL.c **** * Parameters:
 623:.\Generated_Source\PSoC4/LED_CONTROL.c **** *  None
 624:.\Generated_Source\PSoC4/LED_CONTROL.c **** *
 625:.\Generated_Source\PSoC4/LED_CONTROL.c **** * Return:
 626:.\Generated_Source\PSoC4/LED_CONTROL.c **** *  Current counter value
 627:.\Generated_Source\PSoC4/LED_CONTROL.c **** *
 628:.\Generated_Source\PSoC4/LED_CONTROL.c **** *******************************************************************************/
 629:.\Generated_Source\PSoC4/LED_CONTROL.c **** uint32 LED_CONTROL_ReadCounter(void)
 630:.\Generated_Source\PSoC4/LED_CONTROL.c **** {
 795              		.loc 1 630 0
ARM GAS  C:\Users\gsgill\AppData\Local\Temp\ccJYZky6.s 			page 26


 796              		.cfi_startproc
 797 0000 80B5     		push	{r7, lr}
 798              		.cfi_def_cfa_offset 8
 799              		.cfi_offset 7, -8
 800              		.cfi_offset 14, -4
 801 0002 00AF     		add	r7, sp, #0
 802              		.cfi_def_cfa_register 7
 631:.\Generated_Source\PSoC4/LED_CONTROL.c ****     return (LED_CONTROL_COUNTER_REG & LED_CONTROL_16BIT_MASK);
 803              		.loc 1 631 0
 804 0004 034B     		ldr	r3, .L46
 805 0006 1B68     		ldr	r3, [r3]
 806 0008 1B04     		lsl	r3, r3, #16
 807 000a 1B0C     		lsr	r3, r3, #16
 632:.\Generated_Source\PSoC4/LED_CONTROL.c **** }
 808              		.loc 1 632 0
 809 000c 181C     		mov	r0, r3
 810 000e BD46     		mov	sp, r7
 811              		@ sp needed
 812 0010 80BD     		pop	{r7, pc}
 813              	.L47:
 814 0012 C046     		.align	2
 815              	.L46:
 816 0014 08010540 		.word	1074069768
 817              		.cfi_endproc
 818              	.LFE14:
 819              		.size	LED_CONTROL_ReadCounter, .-LED_CONTROL_ReadCounter
 820              		.section	.text.LED_CONTROL_SetCounterMode,"ax",%progbits
 821              		.align	2
 822              		.global	LED_CONTROL_SetCounterMode
 823              		.code	16
 824              		.thumb_func
 825              		.type	LED_CONTROL_SetCounterMode, %function
 826              	LED_CONTROL_SetCounterMode:
 827              	.LFB15:
 633:.\Generated_Source\PSoC4/LED_CONTROL.c **** 
 634:.\Generated_Source\PSoC4/LED_CONTROL.c **** 
 635:.\Generated_Source\PSoC4/LED_CONTROL.c **** /*******************************************************************************
 636:.\Generated_Source\PSoC4/LED_CONTROL.c **** * Function Name: LED_CONTROL_SetCounterMode
 637:.\Generated_Source\PSoC4/LED_CONTROL.c **** ********************************************************************************
 638:.\Generated_Source\PSoC4/LED_CONTROL.c **** *
 639:.\Generated_Source\PSoC4/LED_CONTROL.c **** * Summary:
 640:.\Generated_Source\PSoC4/LED_CONTROL.c **** *  Sets the counter mode.  Applicable to all modes except Quadrature Decoder
 641:.\Generated_Source\PSoC4/LED_CONTROL.c **** *  and the PWM with a pseudo random output.
 642:.\Generated_Source\PSoC4/LED_CONTROL.c **** *
 643:.\Generated_Source\PSoC4/LED_CONTROL.c **** * Parameters:
 644:.\Generated_Source\PSoC4/LED_CONTROL.c **** *  counterMode: Enumerated counter type values
 645:.\Generated_Source\PSoC4/LED_CONTROL.c **** *   Values:
 646:.\Generated_Source\PSoC4/LED_CONTROL.c **** *     - LED_CONTROL_COUNT_UP       - Counts up
 647:.\Generated_Source\PSoC4/LED_CONTROL.c **** *     - LED_CONTROL_COUNT_DOWN     - Counts down
 648:.\Generated_Source\PSoC4/LED_CONTROL.c **** *     - LED_CONTROL_COUNT_UPDOWN0  - Counts up and down. Terminal count
 649:.\Generated_Source\PSoC4/LED_CONTROL.c **** *                                         generated when counter reaches 0
 650:.\Generated_Source\PSoC4/LED_CONTROL.c **** *     - LED_CONTROL_COUNT_UPDOWN1  - Counts up and down. Terminal count
 651:.\Generated_Source\PSoC4/LED_CONTROL.c **** *                                         generated both when counter reaches 0
 652:.\Generated_Source\PSoC4/LED_CONTROL.c **** *                                         and period
 653:.\Generated_Source\PSoC4/LED_CONTROL.c **** *
 654:.\Generated_Source\PSoC4/LED_CONTROL.c **** * Return:
 655:.\Generated_Source\PSoC4/LED_CONTROL.c **** *  None
ARM GAS  C:\Users\gsgill\AppData\Local\Temp\ccJYZky6.s 			page 27


 656:.\Generated_Source\PSoC4/LED_CONTROL.c **** *
 657:.\Generated_Source\PSoC4/LED_CONTROL.c **** *******************************************************************************/
 658:.\Generated_Source\PSoC4/LED_CONTROL.c **** void LED_CONTROL_SetCounterMode(uint32 counterMode)
 659:.\Generated_Source\PSoC4/LED_CONTROL.c **** {
 828              		.loc 1 659 0
 829              		.cfi_startproc
 830 0000 90B5     		push	{r4, r7, lr}
 831              		.cfi_def_cfa_offset 12
 832              		.cfi_offset 4, -12
 833              		.cfi_offset 7, -8
 834              		.cfi_offset 14, -4
 835 0002 85B0     		sub	sp, sp, #20
 836              		.cfi_def_cfa_offset 32
 837 0004 00AF     		add	r7, sp, #0
 838              		.cfi_def_cfa_register 7
 839 0006 7860     		str	r0, [r7, #4]
 660:.\Generated_Source\PSoC4/LED_CONTROL.c ****     uint8 enableInterrupts;
 661:.\Generated_Source\PSoC4/LED_CONTROL.c **** 
 662:.\Generated_Source\PSoC4/LED_CONTROL.c ****     enableInterrupts = CyEnterCriticalSection();
 840              		.loc 1 662 0
 841 0008 3C1C     		mov	r4, r7
 842 000a 0F34     		add	r4, r4, #15
 843 000c FFF7FEFF 		bl	CyEnterCriticalSection
 844 0010 031C     		mov	r3, r0
 845 0012 2370     		strb	r3, [r4]
 663:.\Generated_Source\PSoC4/LED_CONTROL.c **** 
 664:.\Generated_Source\PSoC4/LED_CONTROL.c ****     LED_CONTROL_CONTROL_REG &= (uint32)~LED_CONTROL_UPDOWN_MASK;
 846              		.loc 1 664 0
 847 0014 0A4B     		ldr	r3, .L49
 848 0016 0A4A     		ldr	r2, .L49
 849 0018 1168     		ldr	r1, [r2]
 850 001a 0A4A     		ldr	r2, .L49+4
 851 001c 0A40     		and	r2, r1
 852 001e 1A60     		str	r2, [r3]
 665:.\Generated_Source\PSoC4/LED_CONTROL.c ****     LED_CONTROL_CONTROL_REG |= counterMode;
 853              		.loc 1 665 0
 854 0020 074B     		ldr	r3, .L49
 855 0022 074A     		ldr	r2, .L49
 856 0024 1168     		ldr	r1, [r2]
 857 0026 7A68     		ldr	r2, [r7, #4]
 858 0028 0A43     		orr	r2, r1
 859 002a 1A60     		str	r2, [r3]
 666:.\Generated_Source\PSoC4/LED_CONTROL.c **** 
 667:.\Generated_Source\PSoC4/LED_CONTROL.c ****     CyExitCriticalSection(enableInterrupts);
 860              		.loc 1 667 0
 861 002c 3B1C     		mov	r3, r7
 862 002e 0F33     		add	r3, r3, #15
 863 0030 1B78     		ldrb	r3, [r3]
 864 0032 181C     		mov	r0, r3
 865 0034 FFF7FEFF 		bl	CyExitCriticalSection
 668:.\Generated_Source\PSoC4/LED_CONTROL.c **** }
 866              		.loc 1 668 0
 867 0038 BD46     		mov	sp, r7
 868 003a 05B0     		add	sp, sp, #20
 869              		@ sp needed
 870 003c 90BD     		pop	{r4, r7, pc}
 871              	.L50:
ARM GAS  C:\Users\gsgill\AppData\Local\Temp\ccJYZky6.s 			page 28


 872 003e C046     		.align	2
 873              	.L49:
 874 0040 00010540 		.word	1074069760
 875 0044 FFFFFCFF 		.word	-196609
 876              		.cfi_endproc
 877              	.LFE15:
 878              		.size	LED_CONTROL_SetCounterMode, .-LED_CONTROL_SetCounterMode
 879              		.section	.text.LED_CONTROL_WritePeriod,"ax",%progbits
 880              		.align	2
 881              		.global	LED_CONTROL_WritePeriod
 882              		.code	16
 883              		.thumb_func
 884              		.type	LED_CONTROL_WritePeriod, %function
 885              	LED_CONTROL_WritePeriod:
 886              	.LFB16:
 669:.\Generated_Source\PSoC4/LED_CONTROL.c **** 
 670:.\Generated_Source\PSoC4/LED_CONTROL.c **** 
 671:.\Generated_Source\PSoC4/LED_CONTROL.c **** /*******************************************************************************
 672:.\Generated_Source\PSoC4/LED_CONTROL.c **** * Function Name: LED_CONTROL_WritePeriod
 673:.\Generated_Source\PSoC4/LED_CONTROL.c **** ********************************************************************************
 674:.\Generated_Source\PSoC4/LED_CONTROL.c **** *
 675:.\Generated_Source\PSoC4/LED_CONTROL.c **** * Summary:
 676:.\Generated_Source\PSoC4/LED_CONTROL.c **** *  Writes the 16 bit period register with the new period value.
 677:.\Generated_Source\PSoC4/LED_CONTROL.c **** *  To cause the counter to count for N cycles this register should be written
 678:.\Generated_Source\PSoC4/LED_CONTROL.c **** *  with N-1 (counts from 0 to period inclusive).
 679:.\Generated_Source\PSoC4/LED_CONTROL.c **** *
 680:.\Generated_Source\PSoC4/LED_CONTROL.c **** * Parameters:
 681:.\Generated_Source\PSoC4/LED_CONTROL.c **** *  period: Period value
 682:.\Generated_Source\PSoC4/LED_CONTROL.c **** *
 683:.\Generated_Source\PSoC4/LED_CONTROL.c **** * Return:
 684:.\Generated_Source\PSoC4/LED_CONTROL.c **** *  None
 685:.\Generated_Source\PSoC4/LED_CONTROL.c **** *
 686:.\Generated_Source\PSoC4/LED_CONTROL.c **** *******************************************************************************/
 687:.\Generated_Source\PSoC4/LED_CONTROL.c **** void LED_CONTROL_WritePeriod(uint32 period)
 688:.\Generated_Source\PSoC4/LED_CONTROL.c **** {
 887              		.loc 1 688 0
 888              		.cfi_startproc
 889 0000 80B5     		push	{r7, lr}
 890              		.cfi_def_cfa_offset 8
 891              		.cfi_offset 7, -8
 892              		.cfi_offset 14, -4
 893 0002 82B0     		sub	sp, sp, #8
 894              		.cfi_def_cfa_offset 16
 895 0004 00AF     		add	r7, sp, #0
 896              		.cfi_def_cfa_register 7
 897 0006 7860     		str	r0, [r7, #4]
 689:.\Generated_Source\PSoC4/LED_CONTROL.c ****     LED_CONTROL_PERIOD_REG = (period & LED_CONTROL_16BIT_MASK);
 898              		.loc 1 689 0
 899 0008 034B     		ldr	r3, .L52
 900 000a 7A68     		ldr	r2, [r7, #4]
 901 000c 1204     		lsl	r2, r2, #16
 902 000e 120C     		lsr	r2, r2, #16
 903 0010 1A60     		str	r2, [r3]
 690:.\Generated_Source\PSoC4/LED_CONTROL.c **** }
 904              		.loc 1 690 0
 905 0012 BD46     		mov	sp, r7
 906 0014 02B0     		add	sp, sp, #8
ARM GAS  C:\Users\gsgill\AppData\Local\Temp\ccJYZky6.s 			page 29


 907              		@ sp needed
 908 0016 80BD     		pop	{r7, pc}
 909              	.L53:
 910              		.align	2
 911              	.L52:
 912 0018 14010540 		.word	1074069780
 913              		.cfi_endproc
 914              	.LFE16:
 915              		.size	LED_CONTROL_WritePeriod, .-LED_CONTROL_WritePeriod
 916              		.section	.text.LED_CONTROL_ReadPeriod,"ax",%progbits
 917              		.align	2
 918              		.global	LED_CONTROL_ReadPeriod
 919              		.code	16
 920              		.thumb_func
 921              		.type	LED_CONTROL_ReadPeriod, %function
 922              	LED_CONTROL_ReadPeriod:
 923              	.LFB17:
 691:.\Generated_Source\PSoC4/LED_CONTROL.c **** 
 692:.\Generated_Source\PSoC4/LED_CONTROL.c **** 
 693:.\Generated_Source\PSoC4/LED_CONTROL.c **** /*******************************************************************************
 694:.\Generated_Source\PSoC4/LED_CONTROL.c **** * Function Name: LED_CONTROL_ReadPeriod
 695:.\Generated_Source\PSoC4/LED_CONTROL.c **** ********************************************************************************
 696:.\Generated_Source\PSoC4/LED_CONTROL.c **** *
 697:.\Generated_Source\PSoC4/LED_CONTROL.c **** * Summary:
 698:.\Generated_Source\PSoC4/LED_CONTROL.c **** *  Reads the 16 bit period register.
 699:.\Generated_Source\PSoC4/LED_CONTROL.c **** *
 700:.\Generated_Source\PSoC4/LED_CONTROL.c **** * Parameters:
 701:.\Generated_Source\PSoC4/LED_CONTROL.c **** *  None
 702:.\Generated_Source\PSoC4/LED_CONTROL.c **** *
 703:.\Generated_Source\PSoC4/LED_CONTROL.c **** * Return:
 704:.\Generated_Source\PSoC4/LED_CONTROL.c **** *  Period value
 705:.\Generated_Source\PSoC4/LED_CONTROL.c **** *
 706:.\Generated_Source\PSoC4/LED_CONTROL.c **** *******************************************************************************/
 707:.\Generated_Source\PSoC4/LED_CONTROL.c **** uint32 LED_CONTROL_ReadPeriod(void)
 708:.\Generated_Source\PSoC4/LED_CONTROL.c **** {
 924              		.loc 1 708 0
 925              		.cfi_startproc
 926 0000 80B5     		push	{r7, lr}
 927              		.cfi_def_cfa_offset 8
 928              		.cfi_offset 7, -8
 929              		.cfi_offset 14, -4
 930 0002 00AF     		add	r7, sp, #0
 931              		.cfi_def_cfa_register 7
 709:.\Generated_Source\PSoC4/LED_CONTROL.c ****     return (LED_CONTROL_PERIOD_REG & LED_CONTROL_16BIT_MASK);
 932              		.loc 1 709 0
 933 0004 034B     		ldr	r3, .L56
 934 0006 1B68     		ldr	r3, [r3]
 935 0008 1B04     		lsl	r3, r3, #16
 936 000a 1B0C     		lsr	r3, r3, #16
 710:.\Generated_Source\PSoC4/LED_CONTROL.c **** }
 937              		.loc 1 710 0
 938 000c 181C     		mov	r0, r3
 939 000e BD46     		mov	sp, r7
 940              		@ sp needed
 941 0010 80BD     		pop	{r7, pc}
 942              	.L57:
 943 0012 C046     		.align	2
ARM GAS  C:\Users\gsgill\AppData\Local\Temp\ccJYZky6.s 			page 30


 944              	.L56:
 945 0014 14010540 		.word	1074069780
 946              		.cfi_endproc
 947              	.LFE17:
 948              		.size	LED_CONTROL_ReadPeriod, .-LED_CONTROL_ReadPeriod
 949              		.section	.text.LED_CONTROL_SetCompareSwap,"ax",%progbits
 950              		.align	2
 951              		.global	LED_CONTROL_SetCompareSwap
 952              		.code	16
 953              		.thumb_func
 954              		.type	LED_CONTROL_SetCompareSwap, %function
 955              	LED_CONTROL_SetCompareSwap:
 956              	.LFB18:
 711:.\Generated_Source\PSoC4/LED_CONTROL.c **** 
 712:.\Generated_Source\PSoC4/LED_CONTROL.c **** 
 713:.\Generated_Source\PSoC4/LED_CONTROL.c **** /*******************************************************************************
 714:.\Generated_Source\PSoC4/LED_CONTROL.c **** * Function Name: LED_CONTROL_SetCompareSwap
 715:.\Generated_Source\PSoC4/LED_CONTROL.c **** ********************************************************************************
 716:.\Generated_Source\PSoC4/LED_CONTROL.c **** *
 717:.\Generated_Source\PSoC4/LED_CONTROL.c **** * Summary:
 718:.\Generated_Source\PSoC4/LED_CONTROL.c **** *  Writes the register that controls whether the compare registers are
 719:.\Generated_Source\PSoC4/LED_CONTROL.c **** *  swapped. When enabled in the Timer/Counter mode(without capture) the swap
 720:.\Generated_Source\PSoC4/LED_CONTROL.c **** *  occurs at a TC event. In the PWM mode the swap occurs at the next TC event
 721:.\Generated_Source\PSoC4/LED_CONTROL.c **** *  following a hardware switch event.
 722:.\Generated_Source\PSoC4/LED_CONTROL.c **** *
 723:.\Generated_Source\PSoC4/LED_CONTROL.c **** * Parameters:
 724:.\Generated_Source\PSoC4/LED_CONTROL.c **** *  swapEnable
 725:.\Generated_Source\PSoC4/LED_CONTROL.c **** *   Values:
 726:.\Generated_Source\PSoC4/LED_CONTROL.c **** *     - 0 - Disable swap
 727:.\Generated_Source\PSoC4/LED_CONTROL.c **** *     - 1 - Enable swap
 728:.\Generated_Source\PSoC4/LED_CONTROL.c **** *
 729:.\Generated_Source\PSoC4/LED_CONTROL.c **** * Return:
 730:.\Generated_Source\PSoC4/LED_CONTROL.c **** *  None
 731:.\Generated_Source\PSoC4/LED_CONTROL.c **** *
 732:.\Generated_Source\PSoC4/LED_CONTROL.c **** *******************************************************************************/
 733:.\Generated_Source\PSoC4/LED_CONTROL.c **** void LED_CONTROL_SetCompareSwap(uint32 swapEnable)
 734:.\Generated_Source\PSoC4/LED_CONTROL.c **** {
 957              		.loc 1 734 0
 958              		.cfi_startproc
 959 0000 90B5     		push	{r4, r7, lr}
 960              		.cfi_def_cfa_offset 12
 961              		.cfi_offset 4, -12
 962              		.cfi_offset 7, -8
 963              		.cfi_offset 14, -4
 964 0002 85B0     		sub	sp, sp, #20
 965              		.cfi_def_cfa_offset 32
 966 0004 00AF     		add	r7, sp, #0
 967              		.cfi_def_cfa_register 7
 968 0006 7860     		str	r0, [r7, #4]
 735:.\Generated_Source\PSoC4/LED_CONTROL.c ****     uint8 enableInterrupts;
 736:.\Generated_Source\PSoC4/LED_CONTROL.c **** 
 737:.\Generated_Source\PSoC4/LED_CONTROL.c ****     enableInterrupts = CyEnterCriticalSection();
 969              		.loc 1 737 0
 970 0008 3C1C     		mov	r4, r7
 971 000a 0F34     		add	r4, r4, #15
 972 000c FFF7FEFF 		bl	CyEnterCriticalSection
 973 0010 031C     		mov	r3, r0
ARM GAS  C:\Users\gsgill\AppData\Local\Temp\ccJYZky6.s 			page 31


 974 0012 2370     		strb	r3, [r4]
 738:.\Generated_Source\PSoC4/LED_CONTROL.c **** 
 739:.\Generated_Source\PSoC4/LED_CONTROL.c ****     LED_CONTROL_CONTROL_REG &= (uint32)~LED_CONTROL_RELOAD_CC_MASK;
 975              		.loc 1 739 0
 976 0014 0B4B     		ldr	r3, .L59
 977 0016 0B4A     		ldr	r2, .L59
 978 0018 1268     		ldr	r2, [r2]
 979 001a 0121     		mov	r1, #1
 980 001c 8A43     		bic	r2, r1
 981 001e 1A60     		str	r2, [r3]
 740:.\Generated_Source\PSoC4/LED_CONTROL.c ****     LED_CONTROL_CONTROL_REG |= (swapEnable & LED_CONTROL_1BIT_MASK);
 982              		.loc 1 740 0
 983 0020 084B     		ldr	r3, .L59
 984 0022 084A     		ldr	r2, .L59
 985 0024 1168     		ldr	r1, [r2]
 986 0026 7868     		ldr	r0, [r7, #4]
 987 0028 0122     		mov	r2, #1
 988 002a 0240     		and	r2, r0
 989 002c 0A43     		orr	r2, r1
 990 002e 1A60     		str	r2, [r3]
 741:.\Generated_Source\PSoC4/LED_CONTROL.c **** 
 742:.\Generated_Source\PSoC4/LED_CONTROL.c ****     CyExitCriticalSection(enableInterrupts);
 991              		.loc 1 742 0
 992 0030 3B1C     		mov	r3, r7
 993 0032 0F33     		add	r3, r3, #15
 994 0034 1B78     		ldrb	r3, [r3]
 995 0036 181C     		mov	r0, r3
 996 0038 FFF7FEFF 		bl	CyExitCriticalSection
 743:.\Generated_Source\PSoC4/LED_CONTROL.c **** }
 997              		.loc 1 743 0
 998 003c BD46     		mov	sp, r7
 999 003e 05B0     		add	sp, sp, #20
 1000              		@ sp needed
 1001 0040 90BD     		pop	{r4, r7, pc}
 1002              	.L60:
 1003 0042 C046     		.align	2
 1004              	.L59:
 1005 0044 00010540 		.word	1074069760
 1006              		.cfi_endproc
 1007              	.LFE18:
 1008              		.size	LED_CONTROL_SetCompareSwap, .-LED_CONTROL_SetCompareSwap
 1009              		.section	.text.LED_CONTROL_WritePeriodBuf,"ax",%progbits
 1010              		.align	2
 1011              		.global	LED_CONTROL_WritePeriodBuf
 1012              		.code	16
 1013              		.thumb_func
 1014              		.type	LED_CONTROL_WritePeriodBuf, %function
 1015              	LED_CONTROL_WritePeriodBuf:
 1016              	.LFB19:
 744:.\Generated_Source\PSoC4/LED_CONTROL.c **** 
 745:.\Generated_Source\PSoC4/LED_CONTROL.c **** 
 746:.\Generated_Source\PSoC4/LED_CONTROL.c **** /*******************************************************************************
 747:.\Generated_Source\PSoC4/LED_CONTROL.c **** * Function Name: LED_CONTROL_WritePeriodBuf
 748:.\Generated_Source\PSoC4/LED_CONTROL.c **** ********************************************************************************
 749:.\Generated_Source\PSoC4/LED_CONTROL.c **** *
 750:.\Generated_Source\PSoC4/LED_CONTROL.c **** * Summary:
 751:.\Generated_Source\PSoC4/LED_CONTROL.c **** *  Writes the 16 bit period buf register with the new period value.
ARM GAS  C:\Users\gsgill\AppData\Local\Temp\ccJYZky6.s 			page 32


 752:.\Generated_Source\PSoC4/LED_CONTROL.c **** *
 753:.\Generated_Source\PSoC4/LED_CONTROL.c **** * Parameters:
 754:.\Generated_Source\PSoC4/LED_CONTROL.c **** *  periodBuf: Period value
 755:.\Generated_Source\PSoC4/LED_CONTROL.c **** *
 756:.\Generated_Source\PSoC4/LED_CONTROL.c **** * Return:
 757:.\Generated_Source\PSoC4/LED_CONTROL.c **** *  None
 758:.\Generated_Source\PSoC4/LED_CONTROL.c **** *
 759:.\Generated_Source\PSoC4/LED_CONTROL.c **** *******************************************************************************/
 760:.\Generated_Source\PSoC4/LED_CONTROL.c **** void LED_CONTROL_WritePeriodBuf(uint32 periodBuf)
 761:.\Generated_Source\PSoC4/LED_CONTROL.c **** {
 1017              		.loc 1 761 0
 1018              		.cfi_startproc
 1019 0000 80B5     		push	{r7, lr}
 1020              		.cfi_def_cfa_offset 8
 1021              		.cfi_offset 7, -8
 1022              		.cfi_offset 14, -4
 1023 0002 82B0     		sub	sp, sp, #8
 1024              		.cfi_def_cfa_offset 16
 1025 0004 00AF     		add	r7, sp, #0
 1026              		.cfi_def_cfa_register 7
 1027 0006 7860     		str	r0, [r7, #4]
 762:.\Generated_Source\PSoC4/LED_CONTROL.c ****     LED_CONTROL_PERIOD_BUF_REG = (periodBuf & LED_CONTROL_16BIT_MASK);
 1028              		.loc 1 762 0
 1029 0008 034B     		ldr	r3, .L62
 1030 000a 7A68     		ldr	r2, [r7, #4]
 1031 000c 1204     		lsl	r2, r2, #16
 1032 000e 120C     		lsr	r2, r2, #16
 1033 0010 1A60     		str	r2, [r3]
 763:.\Generated_Source\PSoC4/LED_CONTROL.c **** }
 1034              		.loc 1 763 0
 1035 0012 BD46     		mov	sp, r7
 1036 0014 02B0     		add	sp, sp, #8
 1037              		@ sp needed
 1038 0016 80BD     		pop	{r7, pc}
 1039              	.L63:
 1040              		.align	2
 1041              	.L62:
 1042 0018 18010540 		.word	1074069784
 1043              		.cfi_endproc
 1044              	.LFE19:
 1045              		.size	LED_CONTROL_WritePeriodBuf, .-LED_CONTROL_WritePeriodBuf
 1046              		.section	.text.LED_CONTROL_ReadPeriodBuf,"ax",%progbits
 1047              		.align	2
 1048              		.global	LED_CONTROL_ReadPeriodBuf
 1049              		.code	16
 1050              		.thumb_func
 1051              		.type	LED_CONTROL_ReadPeriodBuf, %function
 1052              	LED_CONTROL_ReadPeriodBuf:
 1053              	.LFB20:
 764:.\Generated_Source\PSoC4/LED_CONTROL.c **** 
 765:.\Generated_Source\PSoC4/LED_CONTROL.c **** 
 766:.\Generated_Source\PSoC4/LED_CONTROL.c **** /*******************************************************************************
 767:.\Generated_Source\PSoC4/LED_CONTROL.c **** * Function Name: LED_CONTROL_ReadPeriodBuf
 768:.\Generated_Source\PSoC4/LED_CONTROL.c **** ********************************************************************************
 769:.\Generated_Source\PSoC4/LED_CONTROL.c **** *
 770:.\Generated_Source\PSoC4/LED_CONTROL.c **** * Summary:
 771:.\Generated_Source\PSoC4/LED_CONTROL.c **** *  Reads the 16 bit period buf register.
ARM GAS  C:\Users\gsgill\AppData\Local\Temp\ccJYZky6.s 			page 33


 772:.\Generated_Source\PSoC4/LED_CONTROL.c **** *
 773:.\Generated_Source\PSoC4/LED_CONTROL.c **** * Parameters:
 774:.\Generated_Source\PSoC4/LED_CONTROL.c **** *  None
 775:.\Generated_Source\PSoC4/LED_CONTROL.c **** *
 776:.\Generated_Source\PSoC4/LED_CONTROL.c **** * Return:
 777:.\Generated_Source\PSoC4/LED_CONTROL.c **** *  Period value
 778:.\Generated_Source\PSoC4/LED_CONTROL.c **** *
 779:.\Generated_Source\PSoC4/LED_CONTROL.c **** *******************************************************************************/
 780:.\Generated_Source\PSoC4/LED_CONTROL.c **** uint32 LED_CONTROL_ReadPeriodBuf(void)
 781:.\Generated_Source\PSoC4/LED_CONTROL.c **** {
 1054              		.loc 1 781 0
 1055              		.cfi_startproc
 1056 0000 80B5     		push	{r7, lr}
 1057              		.cfi_def_cfa_offset 8
 1058              		.cfi_offset 7, -8
 1059              		.cfi_offset 14, -4
 1060 0002 00AF     		add	r7, sp, #0
 1061              		.cfi_def_cfa_register 7
 782:.\Generated_Source\PSoC4/LED_CONTROL.c ****     return (LED_CONTROL_PERIOD_BUF_REG & LED_CONTROL_16BIT_MASK);
 1062              		.loc 1 782 0
 1063 0004 034B     		ldr	r3, .L66
 1064 0006 1B68     		ldr	r3, [r3]
 1065 0008 1B04     		lsl	r3, r3, #16
 1066 000a 1B0C     		lsr	r3, r3, #16
 783:.\Generated_Source\PSoC4/LED_CONTROL.c **** }
 1067              		.loc 1 783 0
 1068 000c 181C     		mov	r0, r3
 1069 000e BD46     		mov	sp, r7
 1070              		@ sp needed
 1071 0010 80BD     		pop	{r7, pc}
 1072              	.L67:
 1073 0012 C046     		.align	2
 1074              	.L66:
 1075 0014 18010540 		.word	1074069784
 1076              		.cfi_endproc
 1077              	.LFE20:
 1078              		.size	LED_CONTROL_ReadPeriodBuf, .-LED_CONTROL_ReadPeriodBuf
 1079              		.section	.text.LED_CONTROL_SetPeriodSwap,"ax",%progbits
 1080              		.align	2
 1081              		.global	LED_CONTROL_SetPeriodSwap
 1082              		.code	16
 1083              		.thumb_func
 1084              		.type	LED_CONTROL_SetPeriodSwap, %function
 1085              	LED_CONTROL_SetPeriodSwap:
 1086              	.LFB21:
 784:.\Generated_Source\PSoC4/LED_CONTROL.c **** 
 785:.\Generated_Source\PSoC4/LED_CONTROL.c **** 
 786:.\Generated_Source\PSoC4/LED_CONTROL.c **** /*******************************************************************************
 787:.\Generated_Source\PSoC4/LED_CONTROL.c **** * Function Name: LED_CONTROL_SetPeriodSwap
 788:.\Generated_Source\PSoC4/LED_CONTROL.c **** ********************************************************************************
 789:.\Generated_Source\PSoC4/LED_CONTROL.c **** *
 790:.\Generated_Source\PSoC4/LED_CONTROL.c **** * Summary:
 791:.\Generated_Source\PSoC4/LED_CONTROL.c **** *  Writes the register that controls whether the period registers are
 792:.\Generated_Source\PSoC4/LED_CONTROL.c **** *  swapped. When enabled in Timer/Counter mode the swap occurs at a TC event.
 793:.\Generated_Source\PSoC4/LED_CONTROL.c **** *  In the PWM mode the swap occurs at the next TC event following a hardware
 794:.\Generated_Source\PSoC4/LED_CONTROL.c **** *  switch event.
 795:.\Generated_Source\PSoC4/LED_CONTROL.c **** *
ARM GAS  C:\Users\gsgill\AppData\Local\Temp\ccJYZky6.s 			page 34


 796:.\Generated_Source\PSoC4/LED_CONTROL.c **** * Parameters:
 797:.\Generated_Source\PSoC4/LED_CONTROL.c **** *  swapEnable
 798:.\Generated_Source\PSoC4/LED_CONTROL.c **** *   Values:
 799:.\Generated_Source\PSoC4/LED_CONTROL.c **** *     - 0 - Disable swap
 800:.\Generated_Source\PSoC4/LED_CONTROL.c **** *     - 1 - Enable swap
 801:.\Generated_Source\PSoC4/LED_CONTROL.c **** *
 802:.\Generated_Source\PSoC4/LED_CONTROL.c **** * Return:
 803:.\Generated_Source\PSoC4/LED_CONTROL.c **** *  None
 804:.\Generated_Source\PSoC4/LED_CONTROL.c **** *
 805:.\Generated_Source\PSoC4/LED_CONTROL.c **** *******************************************************************************/
 806:.\Generated_Source\PSoC4/LED_CONTROL.c **** void LED_CONTROL_SetPeriodSwap(uint32 swapEnable)
 807:.\Generated_Source\PSoC4/LED_CONTROL.c **** {
 1087              		.loc 1 807 0
 1088              		.cfi_startproc
 1089 0000 90B5     		push	{r4, r7, lr}
 1090              		.cfi_def_cfa_offset 12
 1091              		.cfi_offset 4, -12
 1092              		.cfi_offset 7, -8
 1093              		.cfi_offset 14, -4
 1094 0002 85B0     		sub	sp, sp, #20
 1095              		.cfi_def_cfa_offset 32
 1096 0004 00AF     		add	r7, sp, #0
 1097              		.cfi_def_cfa_register 7
 1098 0006 7860     		str	r0, [r7, #4]
 808:.\Generated_Source\PSoC4/LED_CONTROL.c ****     uint8 enableInterrupts;
 809:.\Generated_Source\PSoC4/LED_CONTROL.c **** 
 810:.\Generated_Source\PSoC4/LED_CONTROL.c ****     enableInterrupts = CyEnterCriticalSection();
 1099              		.loc 1 810 0
 1100 0008 3C1C     		mov	r4, r7
 1101 000a 0F34     		add	r4, r4, #15
 1102 000c FFF7FEFF 		bl	CyEnterCriticalSection
 1103 0010 031C     		mov	r3, r0
 1104 0012 2370     		strb	r3, [r4]
 811:.\Generated_Source\PSoC4/LED_CONTROL.c **** 
 812:.\Generated_Source\PSoC4/LED_CONTROL.c ****     LED_CONTROL_CONTROL_REG &= (uint32)~LED_CONTROL_RELOAD_PERIOD_MASK;
 1105              		.loc 1 812 0
 1106 0014 0B4B     		ldr	r3, .L69
 1107 0016 0B4A     		ldr	r2, .L69
 1108 0018 1268     		ldr	r2, [r2]
 1109 001a 0221     		mov	r1, #2
 1110 001c 8A43     		bic	r2, r1
 1111 001e 1A60     		str	r2, [r3]
 813:.\Generated_Source\PSoC4/LED_CONTROL.c ****     LED_CONTROL_CONTROL_REG |= ((uint32)((swapEnable & LED_CONTROL_1BIT_MASK) <<
 1112              		.loc 1 813 0
 1113 0020 084B     		ldr	r3, .L69
 1114 0022 084A     		ldr	r2, .L69
 1115 0024 1168     		ldr	r1, [r2]
 1116 0026 7868     		ldr	r0, [r7, #4]
 1117 0028 0122     		mov	r2, #1
 1118 002a 0240     		and	r2, r0
 1119 002c 5200     		lsl	r2, r2, #1
 1120 002e 0A43     		orr	r2, r1
 1121 0030 1A60     		str	r2, [r3]
 814:.\Generated_Source\PSoC4/LED_CONTROL.c ****                                                             LED_CONTROL_RELOAD_PERIOD_SHIFT));
 815:.\Generated_Source\PSoC4/LED_CONTROL.c **** 
 816:.\Generated_Source\PSoC4/LED_CONTROL.c ****     CyExitCriticalSection(enableInterrupts);
 1122              		.loc 1 816 0
ARM GAS  C:\Users\gsgill\AppData\Local\Temp\ccJYZky6.s 			page 35


 1123 0032 3B1C     		mov	r3, r7
 1124 0034 0F33     		add	r3, r3, #15
 1125 0036 1B78     		ldrb	r3, [r3]
 1126 0038 181C     		mov	r0, r3
 1127 003a FFF7FEFF 		bl	CyExitCriticalSection
 817:.\Generated_Source\PSoC4/LED_CONTROL.c **** }
 1128              		.loc 1 817 0
 1129 003e BD46     		mov	sp, r7
 1130 0040 05B0     		add	sp, sp, #20
 1131              		@ sp needed
 1132 0042 90BD     		pop	{r4, r7, pc}
 1133              	.L70:
 1134              		.align	2
 1135              	.L69:
 1136 0044 00010540 		.word	1074069760
 1137              		.cfi_endproc
 1138              	.LFE21:
 1139              		.size	LED_CONTROL_SetPeriodSwap, .-LED_CONTROL_SetPeriodSwap
 1140              		.section	.text.LED_CONTROL_WriteCompare,"ax",%progbits
 1141              		.align	2
 1142              		.global	LED_CONTROL_WriteCompare
 1143              		.code	16
 1144              		.thumb_func
 1145              		.type	LED_CONTROL_WriteCompare, %function
 1146              	LED_CONTROL_WriteCompare:
 1147              	.LFB22:
 818:.\Generated_Source\PSoC4/LED_CONTROL.c **** 
 819:.\Generated_Source\PSoC4/LED_CONTROL.c **** 
 820:.\Generated_Source\PSoC4/LED_CONTROL.c **** /*******************************************************************************
 821:.\Generated_Source\PSoC4/LED_CONTROL.c **** * Function Name: LED_CONTROL_WriteCompare
 822:.\Generated_Source\PSoC4/LED_CONTROL.c **** ********************************************************************************
 823:.\Generated_Source\PSoC4/LED_CONTROL.c **** *
 824:.\Generated_Source\PSoC4/LED_CONTROL.c **** * Summary:
 825:.\Generated_Source\PSoC4/LED_CONTROL.c **** *  Writes the 16 bit compare register with the new compare value. Not
 826:.\Generated_Source\PSoC4/LED_CONTROL.c **** *  applicable for Timer/Counter with Capture or in Quadrature Decoder modes.
 827:.\Generated_Source\PSoC4/LED_CONTROL.c **** *
 828:.\Generated_Source\PSoC4/LED_CONTROL.c **** * Parameters:
 829:.\Generated_Source\PSoC4/LED_CONTROL.c **** *  compare: Compare value
 830:.\Generated_Source\PSoC4/LED_CONTROL.c **** *
 831:.\Generated_Source\PSoC4/LED_CONTROL.c **** * Return:
 832:.\Generated_Source\PSoC4/LED_CONTROL.c **** *  None
 833:.\Generated_Source\PSoC4/LED_CONTROL.c **** *
 834:.\Generated_Source\PSoC4/LED_CONTROL.c **** *******************************************************************************/
 835:.\Generated_Source\PSoC4/LED_CONTROL.c **** void LED_CONTROL_WriteCompare(uint32 compare)
 836:.\Generated_Source\PSoC4/LED_CONTROL.c **** {
 1148              		.loc 1 836 0
 1149              		.cfi_startproc
 1150 0000 80B5     		push	{r7, lr}
 1151              		.cfi_def_cfa_offset 8
 1152              		.cfi_offset 7, -8
 1153              		.cfi_offset 14, -4
 1154 0002 82B0     		sub	sp, sp, #8
 1155              		.cfi_def_cfa_offset 16
 1156 0004 00AF     		add	r7, sp, #0
 1157              		.cfi_def_cfa_register 7
 1158 0006 7860     		str	r0, [r7, #4]
 837:.\Generated_Source\PSoC4/LED_CONTROL.c ****     #if (LED_CONTROL_CY_TCPWM_4000)
ARM GAS  C:\Users\gsgill\AppData\Local\Temp\ccJYZky6.s 			page 36


 838:.\Generated_Source\PSoC4/LED_CONTROL.c ****         uint32 currentMode;
 839:.\Generated_Source\PSoC4/LED_CONTROL.c ****     #endif /* (LED_CONTROL_CY_TCPWM_4000) */
 840:.\Generated_Source\PSoC4/LED_CONTROL.c **** 
 841:.\Generated_Source\PSoC4/LED_CONTROL.c ****     #if (LED_CONTROL_CY_TCPWM_4000)
 842:.\Generated_Source\PSoC4/LED_CONTROL.c ****         currentMode = ((LED_CONTROL_CONTROL_REG & LED_CONTROL_UPDOWN_MASK) >> LED_CONTROL_UPDOWN_SH
 843:.\Generated_Source\PSoC4/LED_CONTROL.c **** 
 844:.\Generated_Source\PSoC4/LED_CONTROL.c ****         if (((uint32)LED_CONTROL__COUNT_DOWN == currentMode) && (0xFFFFu != compare))
 845:.\Generated_Source\PSoC4/LED_CONTROL.c ****         {
 846:.\Generated_Source\PSoC4/LED_CONTROL.c ****             compare++;
 847:.\Generated_Source\PSoC4/LED_CONTROL.c ****         }
 848:.\Generated_Source\PSoC4/LED_CONTROL.c ****         else if (((uint32)LED_CONTROL__COUNT_UP == currentMode) && (0u != compare))
 849:.\Generated_Source\PSoC4/LED_CONTROL.c ****         {
 850:.\Generated_Source\PSoC4/LED_CONTROL.c ****             compare--;
 851:.\Generated_Source\PSoC4/LED_CONTROL.c ****         }
 852:.\Generated_Source\PSoC4/LED_CONTROL.c ****         else
 853:.\Generated_Source\PSoC4/LED_CONTROL.c ****         {
 854:.\Generated_Source\PSoC4/LED_CONTROL.c ****         }
 855:.\Generated_Source\PSoC4/LED_CONTROL.c ****         
 856:.\Generated_Source\PSoC4/LED_CONTROL.c ****     
 857:.\Generated_Source\PSoC4/LED_CONTROL.c ****     #endif /* (LED_CONTROL_CY_TCPWM_4000) */
 858:.\Generated_Source\PSoC4/LED_CONTROL.c ****     
 859:.\Generated_Source\PSoC4/LED_CONTROL.c ****     LED_CONTROL_COMP_CAP_REG = (compare & LED_CONTROL_16BIT_MASK);
 1159              		.loc 1 859 0
 1160 0008 034B     		ldr	r3, .L72
 1161 000a 7A68     		ldr	r2, [r7, #4]
 1162 000c 1204     		lsl	r2, r2, #16
 1163 000e 120C     		lsr	r2, r2, #16
 1164 0010 1A60     		str	r2, [r3]
 860:.\Generated_Source\PSoC4/LED_CONTROL.c **** }
 1165              		.loc 1 860 0
 1166 0012 BD46     		mov	sp, r7
 1167 0014 02B0     		add	sp, sp, #8
 1168              		@ sp needed
 1169 0016 80BD     		pop	{r7, pc}
 1170              	.L73:
 1171              		.align	2
 1172              	.L72:
 1173 0018 0C010540 		.word	1074069772
 1174              		.cfi_endproc
 1175              	.LFE22:
 1176              		.size	LED_CONTROL_WriteCompare, .-LED_CONTROL_WriteCompare
 1177              		.section	.text.LED_CONTROL_ReadCompare,"ax",%progbits
 1178              		.align	2
 1179              		.global	LED_CONTROL_ReadCompare
 1180              		.code	16
 1181              		.thumb_func
 1182              		.type	LED_CONTROL_ReadCompare, %function
 1183              	LED_CONTROL_ReadCompare:
 1184              	.LFB23:
 861:.\Generated_Source\PSoC4/LED_CONTROL.c **** 
 862:.\Generated_Source\PSoC4/LED_CONTROL.c **** 
 863:.\Generated_Source\PSoC4/LED_CONTROL.c **** /*******************************************************************************
 864:.\Generated_Source\PSoC4/LED_CONTROL.c **** * Function Name: LED_CONTROL_ReadCompare
 865:.\Generated_Source\PSoC4/LED_CONTROL.c **** ********************************************************************************
 866:.\Generated_Source\PSoC4/LED_CONTROL.c **** *
 867:.\Generated_Source\PSoC4/LED_CONTROL.c **** * Summary:
 868:.\Generated_Source\PSoC4/LED_CONTROL.c **** *  Reads the compare register. Not applicable for Timer/Counter with Capture
ARM GAS  C:\Users\gsgill\AppData\Local\Temp\ccJYZky6.s 			page 37


 869:.\Generated_Source\PSoC4/LED_CONTROL.c **** *  or in Quadrature Decoder modes.
 870:.\Generated_Source\PSoC4/LED_CONTROL.c **** *
 871:.\Generated_Source\PSoC4/LED_CONTROL.c **** * Parameters:
 872:.\Generated_Source\PSoC4/LED_CONTROL.c **** *  None
 873:.\Generated_Source\PSoC4/LED_CONTROL.c **** *
 874:.\Generated_Source\PSoC4/LED_CONTROL.c **** * Return:
 875:.\Generated_Source\PSoC4/LED_CONTROL.c **** *  Compare value
 876:.\Generated_Source\PSoC4/LED_CONTROL.c **** *
 877:.\Generated_Source\PSoC4/LED_CONTROL.c **** *******************************************************************************/
 878:.\Generated_Source\PSoC4/LED_CONTROL.c **** uint32 LED_CONTROL_ReadCompare(void)
 879:.\Generated_Source\PSoC4/LED_CONTROL.c **** {
 1185              		.loc 1 879 0
 1186              		.cfi_startproc
 1187 0000 80B5     		push	{r7, lr}
 1188              		.cfi_def_cfa_offset 8
 1189              		.cfi_offset 7, -8
 1190              		.cfi_offset 14, -4
 1191 0002 00AF     		add	r7, sp, #0
 1192              		.cfi_def_cfa_register 7
 880:.\Generated_Source\PSoC4/LED_CONTROL.c ****     #if (LED_CONTROL_CY_TCPWM_4000)
 881:.\Generated_Source\PSoC4/LED_CONTROL.c ****         uint32 currentMode;
 882:.\Generated_Source\PSoC4/LED_CONTROL.c ****         uint32 regVal;
 883:.\Generated_Source\PSoC4/LED_CONTROL.c ****     #endif /* (LED_CONTROL_CY_TCPWM_4000) */
 884:.\Generated_Source\PSoC4/LED_CONTROL.c **** 
 885:.\Generated_Source\PSoC4/LED_CONTROL.c ****     #if (LED_CONTROL_CY_TCPWM_4000)
 886:.\Generated_Source\PSoC4/LED_CONTROL.c ****         currentMode = ((LED_CONTROL_CONTROL_REG & LED_CONTROL_UPDOWN_MASK) >> LED_CONTROL_UPDOWN_SH
 887:.\Generated_Source\PSoC4/LED_CONTROL.c ****         
 888:.\Generated_Source\PSoC4/LED_CONTROL.c ****         regVal = LED_CONTROL_COMP_CAP_REG;
 889:.\Generated_Source\PSoC4/LED_CONTROL.c ****         
 890:.\Generated_Source\PSoC4/LED_CONTROL.c ****         if (((uint32)LED_CONTROL__COUNT_DOWN == currentMode) && (0u != regVal))
 891:.\Generated_Source\PSoC4/LED_CONTROL.c ****         {
 892:.\Generated_Source\PSoC4/LED_CONTROL.c ****             regVal--;
 893:.\Generated_Source\PSoC4/LED_CONTROL.c ****         }
 894:.\Generated_Source\PSoC4/LED_CONTROL.c ****         else if (((uint32)LED_CONTROL__COUNT_UP == currentMode) && (0xFFFFu != regVal))
 895:.\Generated_Source\PSoC4/LED_CONTROL.c ****         {
 896:.\Generated_Source\PSoC4/LED_CONTROL.c ****             regVal++;
 897:.\Generated_Source\PSoC4/LED_CONTROL.c ****         }
 898:.\Generated_Source\PSoC4/LED_CONTROL.c ****         else
 899:.\Generated_Source\PSoC4/LED_CONTROL.c ****         {
 900:.\Generated_Source\PSoC4/LED_CONTROL.c ****         }
 901:.\Generated_Source\PSoC4/LED_CONTROL.c **** 
 902:.\Generated_Source\PSoC4/LED_CONTROL.c ****         return (regVal & LED_CONTROL_16BIT_MASK);
 903:.\Generated_Source\PSoC4/LED_CONTROL.c ****     #else
 904:.\Generated_Source\PSoC4/LED_CONTROL.c ****         return (LED_CONTROL_COMP_CAP_REG & LED_CONTROL_16BIT_MASK);
 1193              		.loc 1 904 0
 1194 0004 034B     		ldr	r3, .L76
 1195 0006 1B68     		ldr	r3, [r3]
 1196 0008 1B04     		lsl	r3, r3, #16
 1197 000a 1B0C     		lsr	r3, r3, #16
 905:.\Generated_Source\PSoC4/LED_CONTROL.c ****     #endif /* (LED_CONTROL_CY_TCPWM_4000) */
 906:.\Generated_Source\PSoC4/LED_CONTROL.c **** }
 1198              		.loc 1 906 0
 1199 000c 181C     		mov	r0, r3
 1200 000e BD46     		mov	sp, r7
 1201              		@ sp needed
 1202 0010 80BD     		pop	{r7, pc}
 1203              	.L77:
ARM GAS  C:\Users\gsgill\AppData\Local\Temp\ccJYZky6.s 			page 38


 1204 0012 C046     		.align	2
 1205              	.L76:
 1206 0014 0C010540 		.word	1074069772
 1207              		.cfi_endproc
 1208              	.LFE23:
 1209              		.size	LED_CONTROL_ReadCompare, .-LED_CONTROL_ReadCompare
 1210              		.section	.text.LED_CONTROL_WriteCompareBuf,"ax",%progbits
 1211              		.align	2
 1212              		.global	LED_CONTROL_WriteCompareBuf
 1213              		.code	16
 1214              		.thumb_func
 1215              		.type	LED_CONTROL_WriteCompareBuf, %function
 1216              	LED_CONTROL_WriteCompareBuf:
 1217              	.LFB24:
 907:.\Generated_Source\PSoC4/LED_CONTROL.c **** 
 908:.\Generated_Source\PSoC4/LED_CONTROL.c **** 
 909:.\Generated_Source\PSoC4/LED_CONTROL.c **** /*******************************************************************************
 910:.\Generated_Source\PSoC4/LED_CONTROL.c **** * Function Name: LED_CONTROL_WriteCompareBuf
 911:.\Generated_Source\PSoC4/LED_CONTROL.c **** ********************************************************************************
 912:.\Generated_Source\PSoC4/LED_CONTROL.c **** *
 913:.\Generated_Source\PSoC4/LED_CONTROL.c **** * Summary:
 914:.\Generated_Source\PSoC4/LED_CONTROL.c **** *  Writes the 16 bit compare buffer register with the new compare value. Not
 915:.\Generated_Source\PSoC4/LED_CONTROL.c **** *  applicable for Timer/Counter with Capture or in Quadrature Decoder modes.
 916:.\Generated_Source\PSoC4/LED_CONTROL.c **** *
 917:.\Generated_Source\PSoC4/LED_CONTROL.c **** * Parameters:
 918:.\Generated_Source\PSoC4/LED_CONTROL.c **** *  compareBuf: Compare value
 919:.\Generated_Source\PSoC4/LED_CONTROL.c **** *
 920:.\Generated_Source\PSoC4/LED_CONTROL.c **** * Return:
 921:.\Generated_Source\PSoC4/LED_CONTROL.c **** *  None
 922:.\Generated_Source\PSoC4/LED_CONTROL.c **** *
 923:.\Generated_Source\PSoC4/LED_CONTROL.c **** *******************************************************************************/
 924:.\Generated_Source\PSoC4/LED_CONTROL.c **** void LED_CONTROL_WriteCompareBuf(uint32 compareBuf)
 925:.\Generated_Source\PSoC4/LED_CONTROL.c **** {
 1218              		.loc 1 925 0
 1219              		.cfi_startproc
 1220 0000 80B5     		push	{r7, lr}
 1221              		.cfi_def_cfa_offset 8
 1222              		.cfi_offset 7, -8
 1223              		.cfi_offset 14, -4
 1224 0002 82B0     		sub	sp, sp, #8
 1225              		.cfi_def_cfa_offset 16
 1226 0004 00AF     		add	r7, sp, #0
 1227              		.cfi_def_cfa_register 7
 1228 0006 7860     		str	r0, [r7, #4]
 926:.\Generated_Source\PSoC4/LED_CONTROL.c ****     #if (LED_CONTROL_CY_TCPWM_4000)
 927:.\Generated_Source\PSoC4/LED_CONTROL.c ****         uint32 currentMode;
 928:.\Generated_Source\PSoC4/LED_CONTROL.c ****     #endif /* (LED_CONTROL_CY_TCPWM_4000) */
 929:.\Generated_Source\PSoC4/LED_CONTROL.c **** 
 930:.\Generated_Source\PSoC4/LED_CONTROL.c ****     #if (LED_CONTROL_CY_TCPWM_4000)
 931:.\Generated_Source\PSoC4/LED_CONTROL.c ****         currentMode = ((LED_CONTROL_CONTROL_REG & LED_CONTROL_UPDOWN_MASK) >> LED_CONTROL_UPDOWN_SH
 932:.\Generated_Source\PSoC4/LED_CONTROL.c **** 
 933:.\Generated_Source\PSoC4/LED_CONTROL.c ****         if (((uint32)LED_CONTROL__COUNT_DOWN == currentMode) && (0xFFFFu != compareBuf))
 934:.\Generated_Source\PSoC4/LED_CONTROL.c ****         {
 935:.\Generated_Source\PSoC4/LED_CONTROL.c ****             compareBuf++;
 936:.\Generated_Source\PSoC4/LED_CONTROL.c ****         }
 937:.\Generated_Source\PSoC4/LED_CONTROL.c ****         else if (((uint32)LED_CONTROL__COUNT_UP == currentMode) && (0u != compareBuf))
 938:.\Generated_Source\PSoC4/LED_CONTROL.c ****         {
ARM GAS  C:\Users\gsgill\AppData\Local\Temp\ccJYZky6.s 			page 39


 939:.\Generated_Source\PSoC4/LED_CONTROL.c ****             compareBuf --;
 940:.\Generated_Source\PSoC4/LED_CONTROL.c ****         }
 941:.\Generated_Source\PSoC4/LED_CONTROL.c ****         else
 942:.\Generated_Source\PSoC4/LED_CONTROL.c ****         {
 943:.\Generated_Source\PSoC4/LED_CONTROL.c ****         }
 944:.\Generated_Source\PSoC4/LED_CONTROL.c ****     #endif /* (LED_CONTROL_CY_TCPWM_4000) */
 945:.\Generated_Source\PSoC4/LED_CONTROL.c ****     
 946:.\Generated_Source\PSoC4/LED_CONTROL.c ****     LED_CONTROL_COMP_CAP_BUF_REG = (compareBuf & LED_CONTROL_16BIT_MASK);
 1229              		.loc 1 946 0
 1230 0008 034B     		ldr	r3, .L79
 1231 000a 7A68     		ldr	r2, [r7, #4]
 1232 000c 1204     		lsl	r2, r2, #16
 1233 000e 120C     		lsr	r2, r2, #16
 1234 0010 1A60     		str	r2, [r3]
 947:.\Generated_Source\PSoC4/LED_CONTROL.c **** }
 1235              		.loc 1 947 0
 1236 0012 BD46     		mov	sp, r7
 1237 0014 02B0     		add	sp, sp, #8
 1238              		@ sp needed
 1239 0016 80BD     		pop	{r7, pc}
 1240              	.L80:
 1241              		.align	2
 1242              	.L79:
 1243 0018 10010540 		.word	1074069776
 1244              		.cfi_endproc
 1245              	.LFE24:
 1246              		.size	LED_CONTROL_WriteCompareBuf, .-LED_CONTROL_WriteCompareBuf
 1247              		.section	.text.LED_CONTROL_ReadCompareBuf,"ax",%progbits
 1248              		.align	2
 1249              		.global	LED_CONTROL_ReadCompareBuf
 1250              		.code	16
 1251              		.thumb_func
 1252              		.type	LED_CONTROL_ReadCompareBuf, %function
 1253              	LED_CONTROL_ReadCompareBuf:
 1254              	.LFB25:
 948:.\Generated_Source\PSoC4/LED_CONTROL.c **** 
 949:.\Generated_Source\PSoC4/LED_CONTROL.c **** 
 950:.\Generated_Source\PSoC4/LED_CONTROL.c **** /*******************************************************************************
 951:.\Generated_Source\PSoC4/LED_CONTROL.c **** * Function Name: LED_CONTROL_ReadCompareBuf
 952:.\Generated_Source\PSoC4/LED_CONTROL.c **** ********************************************************************************
 953:.\Generated_Source\PSoC4/LED_CONTROL.c **** *
 954:.\Generated_Source\PSoC4/LED_CONTROL.c **** * Summary:
 955:.\Generated_Source\PSoC4/LED_CONTROL.c **** *  Reads the compare buffer register. Not applicable for Timer/Counter with
 956:.\Generated_Source\PSoC4/LED_CONTROL.c **** *  Capture or in Quadrature Decoder modes.
 957:.\Generated_Source\PSoC4/LED_CONTROL.c **** *
 958:.\Generated_Source\PSoC4/LED_CONTROL.c **** * Parameters:
 959:.\Generated_Source\PSoC4/LED_CONTROL.c **** *  None
 960:.\Generated_Source\PSoC4/LED_CONTROL.c **** *
 961:.\Generated_Source\PSoC4/LED_CONTROL.c **** * Return:
 962:.\Generated_Source\PSoC4/LED_CONTROL.c **** *  Compare buffer value
 963:.\Generated_Source\PSoC4/LED_CONTROL.c **** *
 964:.\Generated_Source\PSoC4/LED_CONTROL.c **** *******************************************************************************/
 965:.\Generated_Source\PSoC4/LED_CONTROL.c **** uint32 LED_CONTROL_ReadCompareBuf(void)
 966:.\Generated_Source\PSoC4/LED_CONTROL.c **** {
 1255              		.loc 1 966 0
 1256              		.cfi_startproc
 1257 0000 80B5     		push	{r7, lr}
ARM GAS  C:\Users\gsgill\AppData\Local\Temp\ccJYZky6.s 			page 40


 1258              		.cfi_def_cfa_offset 8
 1259              		.cfi_offset 7, -8
 1260              		.cfi_offset 14, -4
 1261 0002 00AF     		add	r7, sp, #0
 1262              		.cfi_def_cfa_register 7
 967:.\Generated_Source\PSoC4/LED_CONTROL.c ****     #if (LED_CONTROL_CY_TCPWM_4000)
 968:.\Generated_Source\PSoC4/LED_CONTROL.c ****         uint32 currentMode;
 969:.\Generated_Source\PSoC4/LED_CONTROL.c ****         uint32 regVal;
 970:.\Generated_Source\PSoC4/LED_CONTROL.c ****     #endif /* (LED_CONTROL_CY_TCPWM_4000) */
 971:.\Generated_Source\PSoC4/LED_CONTROL.c **** 
 972:.\Generated_Source\PSoC4/LED_CONTROL.c ****     #if (LED_CONTROL_CY_TCPWM_4000)
 973:.\Generated_Source\PSoC4/LED_CONTROL.c ****         currentMode = ((LED_CONTROL_CONTROL_REG & LED_CONTROL_UPDOWN_MASK) >> LED_CONTROL_UPDOWN_SH
 974:.\Generated_Source\PSoC4/LED_CONTROL.c **** 
 975:.\Generated_Source\PSoC4/LED_CONTROL.c ****         regVal = LED_CONTROL_COMP_CAP_BUF_REG;
 976:.\Generated_Source\PSoC4/LED_CONTROL.c ****         
 977:.\Generated_Source\PSoC4/LED_CONTROL.c ****         if (((uint32)LED_CONTROL__COUNT_DOWN == currentMode) && (0u != regVal))
 978:.\Generated_Source\PSoC4/LED_CONTROL.c ****         {
 979:.\Generated_Source\PSoC4/LED_CONTROL.c ****             regVal--;
 980:.\Generated_Source\PSoC4/LED_CONTROL.c ****         }
 981:.\Generated_Source\PSoC4/LED_CONTROL.c ****         else if (((uint32)LED_CONTROL__COUNT_UP == currentMode) && (0xFFFFu != regVal))
 982:.\Generated_Source\PSoC4/LED_CONTROL.c ****         {
 983:.\Generated_Source\PSoC4/LED_CONTROL.c ****             regVal++;
 984:.\Generated_Source\PSoC4/LED_CONTROL.c ****         }
 985:.\Generated_Source\PSoC4/LED_CONTROL.c ****         else
 986:.\Generated_Source\PSoC4/LED_CONTROL.c ****         {
 987:.\Generated_Source\PSoC4/LED_CONTROL.c ****         }
 988:.\Generated_Source\PSoC4/LED_CONTROL.c **** 
 989:.\Generated_Source\PSoC4/LED_CONTROL.c ****         return (regVal & LED_CONTROL_16BIT_MASK);
 990:.\Generated_Source\PSoC4/LED_CONTROL.c ****     #else
 991:.\Generated_Source\PSoC4/LED_CONTROL.c ****         return (LED_CONTROL_COMP_CAP_BUF_REG & LED_CONTROL_16BIT_MASK);
 1263              		.loc 1 991 0
 1264 0004 034B     		ldr	r3, .L83
 1265 0006 1B68     		ldr	r3, [r3]
 1266 0008 1B04     		lsl	r3, r3, #16
 1267 000a 1B0C     		lsr	r3, r3, #16
 992:.\Generated_Source\PSoC4/LED_CONTROL.c ****     #endif /* (LED_CONTROL_CY_TCPWM_4000) */
 993:.\Generated_Source\PSoC4/LED_CONTROL.c **** }
 1268              		.loc 1 993 0
 1269 000c 181C     		mov	r0, r3
 1270 000e BD46     		mov	sp, r7
 1271              		@ sp needed
 1272 0010 80BD     		pop	{r7, pc}
 1273              	.L84:
 1274 0012 C046     		.align	2
 1275              	.L83:
 1276 0014 10010540 		.word	1074069776
 1277              		.cfi_endproc
 1278              	.LFE25:
 1279              		.size	LED_CONTROL_ReadCompareBuf, .-LED_CONTROL_ReadCompareBuf
 1280              		.section	.text.LED_CONTROL_ReadCapture,"ax",%progbits
 1281              		.align	2
 1282              		.global	LED_CONTROL_ReadCapture
 1283              		.code	16
 1284              		.thumb_func
 1285              		.type	LED_CONTROL_ReadCapture, %function
 1286              	LED_CONTROL_ReadCapture:
 1287              	.LFB26:
ARM GAS  C:\Users\gsgill\AppData\Local\Temp\ccJYZky6.s 			page 41


 994:.\Generated_Source\PSoC4/LED_CONTROL.c **** 
 995:.\Generated_Source\PSoC4/LED_CONTROL.c **** 
 996:.\Generated_Source\PSoC4/LED_CONTROL.c **** /*******************************************************************************
 997:.\Generated_Source\PSoC4/LED_CONTROL.c **** * Function Name: LED_CONTROL_ReadCapture
 998:.\Generated_Source\PSoC4/LED_CONTROL.c **** ********************************************************************************
 999:.\Generated_Source\PSoC4/LED_CONTROL.c **** *
1000:.\Generated_Source\PSoC4/LED_CONTROL.c **** * Summary:
1001:.\Generated_Source\PSoC4/LED_CONTROL.c **** *  Reads the captured counter value. This API is applicable only for
1002:.\Generated_Source\PSoC4/LED_CONTROL.c **** *  Timer/Counter with the capture mode and Quadrature Decoder modes.
1003:.\Generated_Source\PSoC4/LED_CONTROL.c **** *
1004:.\Generated_Source\PSoC4/LED_CONTROL.c **** * Parameters:
1005:.\Generated_Source\PSoC4/LED_CONTROL.c **** *  None
1006:.\Generated_Source\PSoC4/LED_CONTROL.c **** *
1007:.\Generated_Source\PSoC4/LED_CONTROL.c **** * Return:
1008:.\Generated_Source\PSoC4/LED_CONTROL.c **** *  Capture value
1009:.\Generated_Source\PSoC4/LED_CONTROL.c **** *
1010:.\Generated_Source\PSoC4/LED_CONTROL.c **** *******************************************************************************/
1011:.\Generated_Source\PSoC4/LED_CONTROL.c **** uint32 LED_CONTROL_ReadCapture(void)
1012:.\Generated_Source\PSoC4/LED_CONTROL.c **** {
 1288              		.loc 1 1012 0
 1289              		.cfi_startproc
 1290 0000 80B5     		push	{r7, lr}
 1291              		.cfi_def_cfa_offset 8
 1292              		.cfi_offset 7, -8
 1293              		.cfi_offset 14, -4
 1294 0002 00AF     		add	r7, sp, #0
 1295              		.cfi_def_cfa_register 7
1013:.\Generated_Source\PSoC4/LED_CONTROL.c ****     return (LED_CONTROL_COMP_CAP_REG & LED_CONTROL_16BIT_MASK);
 1296              		.loc 1 1013 0
 1297 0004 034B     		ldr	r3, .L87
 1298 0006 1B68     		ldr	r3, [r3]
 1299 0008 1B04     		lsl	r3, r3, #16
 1300 000a 1B0C     		lsr	r3, r3, #16
1014:.\Generated_Source\PSoC4/LED_CONTROL.c **** }
 1301              		.loc 1 1014 0
 1302 000c 181C     		mov	r0, r3
 1303 000e BD46     		mov	sp, r7
 1304              		@ sp needed
 1305 0010 80BD     		pop	{r7, pc}
 1306              	.L88:
 1307 0012 C046     		.align	2
 1308              	.L87:
 1309 0014 0C010540 		.word	1074069772
 1310              		.cfi_endproc
 1311              	.LFE26:
 1312              		.size	LED_CONTROL_ReadCapture, .-LED_CONTROL_ReadCapture
 1313              		.section	.text.LED_CONTROL_ReadCaptureBuf,"ax",%progbits
 1314              		.align	2
 1315              		.global	LED_CONTROL_ReadCaptureBuf
 1316              		.code	16
 1317              		.thumb_func
 1318              		.type	LED_CONTROL_ReadCaptureBuf, %function
 1319              	LED_CONTROL_ReadCaptureBuf:
 1320              	.LFB27:
1015:.\Generated_Source\PSoC4/LED_CONTROL.c **** 
1016:.\Generated_Source\PSoC4/LED_CONTROL.c **** 
1017:.\Generated_Source\PSoC4/LED_CONTROL.c **** /*******************************************************************************
ARM GAS  C:\Users\gsgill\AppData\Local\Temp\ccJYZky6.s 			page 42


1018:.\Generated_Source\PSoC4/LED_CONTROL.c **** * Function Name: LED_CONTROL_ReadCaptureBuf
1019:.\Generated_Source\PSoC4/LED_CONTROL.c **** ********************************************************************************
1020:.\Generated_Source\PSoC4/LED_CONTROL.c **** *
1021:.\Generated_Source\PSoC4/LED_CONTROL.c **** * Summary:
1022:.\Generated_Source\PSoC4/LED_CONTROL.c **** *  Reads the capture buffer register. This API is applicable only for
1023:.\Generated_Source\PSoC4/LED_CONTROL.c **** *  Timer/Counter with the capture mode and Quadrature Decoder modes.
1024:.\Generated_Source\PSoC4/LED_CONTROL.c **** *
1025:.\Generated_Source\PSoC4/LED_CONTROL.c **** * Parameters:
1026:.\Generated_Source\PSoC4/LED_CONTROL.c **** *  None
1027:.\Generated_Source\PSoC4/LED_CONTROL.c **** *
1028:.\Generated_Source\PSoC4/LED_CONTROL.c **** * Return:
1029:.\Generated_Source\PSoC4/LED_CONTROL.c **** *  Capture buffer value
1030:.\Generated_Source\PSoC4/LED_CONTROL.c **** *
1031:.\Generated_Source\PSoC4/LED_CONTROL.c **** *******************************************************************************/
1032:.\Generated_Source\PSoC4/LED_CONTROL.c **** uint32 LED_CONTROL_ReadCaptureBuf(void)
1033:.\Generated_Source\PSoC4/LED_CONTROL.c **** {
 1321              		.loc 1 1033 0
 1322              		.cfi_startproc
 1323 0000 80B5     		push	{r7, lr}
 1324              		.cfi_def_cfa_offset 8
 1325              		.cfi_offset 7, -8
 1326              		.cfi_offset 14, -4
 1327 0002 00AF     		add	r7, sp, #0
 1328              		.cfi_def_cfa_register 7
1034:.\Generated_Source\PSoC4/LED_CONTROL.c ****     return (LED_CONTROL_COMP_CAP_BUF_REG & LED_CONTROL_16BIT_MASK);
 1329              		.loc 1 1034 0
 1330 0004 034B     		ldr	r3, .L91
 1331 0006 1B68     		ldr	r3, [r3]
 1332 0008 1B04     		lsl	r3, r3, #16
 1333 000a 1B0C     		lsr	r3, r3, #16
1035:.\Generated_Source\PSoC4/LED_CONTROL.c **** }
 1334              		.loc 1 1035 0
 1335 000c 181C     		mov	r0, r3
 1336 000e BD46     		mov	sp, r7
 1337              		@ sp needed
 1338 0010 80BD     		pop	{r7, pc}
 1339              	.L92:
 1340 0012 C046     		.align	2
 1341              	.L91:
 1342 0014 10010540 		.word	1074069776
 1343              		.cfi_endproc
 1344              	.LFE27:
 1345              		.size	LED_CONTROL_ReadCaptureBuf, .-LED_CONTROL_ReadCaptureBuf
 1346              		.section	.text.LED_CONTROL_SetCaptureMode,"ax",%progbits
 1347              		.align	2
 1348              		.global	LED_CONTROL_SetCaptureMode
 1349              		.code	16
 1350              		.thumb_func
 1351              		.type	LED_CONTROL_SetCaptureMode, %function
 1352              	LED_CONTROL_SetCaptureMode:
 1353              	.LFB28:
1036:.\Generated_Source\PSoC4/LED_CONTROL.c **** 
1037:.\Generated_Source\PSoC4/LED_CONTROL.c **** 
1038:.\Generated_Source\PSoC4/LED_CONTROL.c **** /*******************************************************************************
1039:.\Generated_Source\PSoC4/LED_CONTROL.c **** * Function Name: LED_CONTROL_SetCaptureMode
1040:.\Generated_Source\PSoC4/LED_CONTROL.c **** ********************************************************************************
1041:.\Generated_Source\PSoC4/LED_CONTROL.c **** *
ARM GAS  C:\Users\gsgill\AppData\Local\Temp\ccJYZky6.s 			page 43


1042:.\Generated_Source\PSoC4/LED_CONTROL.c **** * Summary:
1043:.\Generated_Source\PSoC4/LED_CONTROL.c **** *  Sets the capture trigger mode. For PWM mode this is the switch input.
1044:.\Generated_Source\PSoC4/LED_CONTROL.c **** *  This input is not applicable to the Timer/Counter without Capture and
1045:.\Generated_Source\PSoC4/LED_CONTROL.c **** *  Quadrature Decoder modes.
1046:.\Generated_Source\PSoC4/LED_CONTROL.c **** *
1047:.\Generated_Source\PSoC4/LED_CONTROL.c **** * Parameters:
1048:.\Generated_Source\PSoC4/LED_CONTROL.c **** *  triggerMode: Enumerated trigger mode value
1049:.\Generated_Source\PSoC4/LED_CONTROL.c **** *   Values:
1050:.\Generated_Source\PSoC4/LED_CONTROL.c **** *     - LED_CONTROL_TRIG_LEVEL     - Level
1051:.\Generated_Source\PSoC4/LED_CONTROL.c **** *     - LED_CONTROL_TRIG_RISING    - Rising edge
1052:.\Generated_Source\PSoC4/LED_CONTROL.c **** *     - LED_CONTROL_TRIG_FALLING   - Falling edge
1053:.\Generated_Source\PSoC4/LED_CONTROL.c **** *     - LED_CONTROL_TRIG_BOTH      - Both rising and falling edge
1054:.\Generated_Source\PSoC4/LED_CONTROL.c **** *
1055:.\Generated_Source\PSoC4/LED_CONTROL.c **** * Return:
1056:.\Generated_Source\PSoC4/LED_CONTROL.c **** *  None
1057:.\Generated_Source\PSoC4/LED_CONTROL.c **** *
1058:.\Generated_Source\PSoC4/LED_CONTROL.c **** *******************************************************************************/
1059:.\Generated_Source\PSoC4/LED_CONTROL.c **** void LED_CONTROL_SetCaptureMode(uint32 triggerMode)
1060:.\Generated_Source\PSoC4/LED_CONTROL.c **** {
 1354              		.loc 1 1060 0
 1355              		.cfi_startproc
 1356 0000 90B5     		push	{r4, r7, lr}
 1357              		.cfi_def_cfa_offset 12
 1358              		.cfi_offset 4, -12
 1359              		.cfi_offset 7, -8
 1360              		.cfi_offset 14, -4
 1361 0002 85B0     		sub	sp, sp, #20
 1362              		.cfi_def_cfa_offset 32
 1363 0004 00AF     		add	r7, sp, #0
 1364              		.cfi_def_cfa_register 7
 1365 0006 7860     		str	r0, [r7, #4]
1061:.\Generated_Source\PSoC4/LED_CONTROL.c ****     uint8 enableInterrupts;
1062:.\Generated_Source\PSoC4/LED_CONTROL.c **** 
1063:.\Generated_Source\PSoC4/LED_CONTROL.c ****     enableInterrupts = CyEnterCriticalSection();
 1366              		.loc 1 1063 0
 1367 0008 3C1C     		mov	r4, r7
 1368 000a 0F34     		add	r4, r4, #15
 1369 000c FFF7FEFF 		bl	CyEnterCriticalSection
 1370 0010 031C     		mov	r3, r0
 1371 0012 2370     		strb	r3, [r4]
1064:.\Generated_Source\PSoC4/LED_CONTROL.c **** 
1065:.\Generated_Source\PSoC4/LED_CONTROL.c ****     LED_CONTROL_TRIG_CONTROL1_REG &= (uint32)~LED_CONTROL_CAPTURE_MASK;
 1372              		.loc 1 1065 0
 1373 0014 0A4B     		ldr	r3, .L94
 1374 0016 0A4A     		ldr	r2, .L94
 1375 0018 1268     		ldr	r2, [r2]
 1376 001a 0321     		mov	r1, #3
 1377 001c 8A43     		bic	r2, r1
 1378 001e 1A60     		str	r2, [r3]
1066:.\Generated_Source\PSoC4/LED_CONTROL.c ****     LED_CONTROL_TRIG_CONTROL1_REG |= triggerMode;
 1379              		.loc 1 1066 0
 1380 0020 074B     		ldr	r3, .L94
 1381 0022 074A     		ldr	r2, .L94
 1382 0024 1168     		ldr	r1, [r2]
 1383 0026 7A68     		ldr	r2, [r7, #4]
 1384 0028 0A43     		orr	r2, r1
 1385 002a 1A60     		str	r2, [r3]
ARM GAS  C:\Users\gsgill\AppData\Local\Temp\ccJYZky6.s 			page 44


1067:.\Generated_Source\PSoC4/LED_CONTROL.c **** 
1068:.\Generated_Source\PSoC4/LED_CONTROL.c ****     CyExitCriticalSection(enableInterrupts);
 1386              		.loc 1 1068 0
 1387 002c 3B1C     		mov	r3, r7
 1388 002e 0F33     		add	r3, r3, #15
 1389 0030 1B78     		ldrb	r3, [r3]
 1390 0032 181C     		mov	r0, r3
 1391 0034 FFF7FEFF 		bl	CyExitCriticalSection
1069:.\Generated_Source\PSoC4/LED_CONTROL.c **** }
 1392              		.loc 1 1069 0
 1393 0038 BD46     		mov	sp, r7
 1394 003a 05B0     		add	sp, sp, #20
 1395              		@ sp needed
 1396 003c 90BD     		pop	{r4, r7, pc}
 1397              	.L95:
 1398 003e C046     		.align	2
 1399              	.L94:
 1400 0040 24010540 		.word	1074069796
 1401              		.cfi_endproc
 1402              	.LFE28:
 1403              		.size	LED_CONTROL_SetCaptureMode, .-LED_CONTROL_SetCaptureMode
 1404              		.section	.text.LED_CONTROL_SetReloadMode,"ax",%progbits
 1405              		.align	2
 1406              		.global	LED_CONTROL_SetReloadMode
 1407              		.code	16
 1408              		.thumb_func
 1409              		.type	LED_CONTROL_SetReloadMode, %function
 1410              	LED_CONTROL_SetReloadMode:
 1411              	.LFB29:
1070:.\Generated_Source\PSoC4/LED_CONTROL.c **** 
1071:.\Generated_Source\PSoC4/LED_CONTROL.c **** 
1072:.\Generated_Source\PSoC4/LED_CONTROL.c **** /*******************************************************************************
1073:.\Generated_Source\PSoC4/LED_CONTROL.c **** * Function Name: LED_CONTROL_SetReloadMode
1074:.\Generated_Source\PSoC4/LED_CONTROL.c **** ********************************************************************************
1075:.\Generated_Source\PSoC4/LED_CONTROL.c **** *
1076:.\Generated_Source\PSoC4/LED_CONTROL.c **** * Summary:
1077:.\Generated_Source\PSoC4/LED_CONTROL.c **** *  Sets the reload trigger mode. For Quadrature Decoder mode this is the index
1078:.\Generated_Source\PSoC4/LED_CONTROL.c **** *  input.
1079:.\Generated_Source\PSoC4/LED_CONTROL.c **** *
1080:.\Generated_Source\PSoC4/LED_CONTROL.c **** * Parameters:
1081:.\Generated_Source\PSoC4/LED_CONTROL.c **** *  triggerMode: Enumerated trigger mode value
1082:.\Generated_Source\PSoC4/LED_CONTROL.c **** *   Values:
1083:.\Generated_Source\PSoC4/LED_CONTROL.c **** *     - LED_CONTROL_TRIG_LEVEL     - Level
1084:.\Generated_Source\PSoC4/LED_CONTROL.c **** *     - LED_CONTROL_TRIG_RISING    - Rising edge
1085:.\Generated_Source\PSoC4/LED_CONTROL.c **** *     - LED_CONTROL_TRIG_FALLING   - Falling edge
1086:.\Generated_Source\PSoC4/LED_CONTROL.c **** *     - LED_CONTROL_TRIG_BOTH      - Both rising and falling edge
1087:.\Generated_Source\PSoC4/LED_CONTROL.c **** *
1088:.\Generated_Source\PSoC4/LED_CONTROL.c **** * Return:
1089:.\Generated_Source\PSoC4/LED_CONTROL.c **** *  None
1090:.\Generated_Source\PSoC4/LED_CONTROL.c **** *
1091:.\Generated_Source\PSoC4/LED_CONTROL.c **** *******************************************************************************/
1092:.\Generated_Source\PSoC4/LED_CONTROL.c **** void LED_CONTROL_SetReloadMode(uint32 triggerMode)
1093:.\Generated_Source\PSoC4/LED_CONTROL.c **** {
 1412              		.loc 1 1093 0
 1413              		.cfi_startproc
 1414 0000 90B5     		push	{r4, r7, lr}
 1415              		.cfi_def_cfa_offset 12
ARM GAS  C:\Users\gsgill\AppData\Local\Temp\ccJYZky6.s 			page 45


 1416              		.cfi_offset 4, -12
 1417              		.cfi_offset 7, -8
 1418              		.cfi_offset 14, -4
 1419 0002 85B0     		sub	sp, sp, #20
 1420              		.cfi_def_cfa_offset 32
 1421 0004 00AF     		add	r7, sp, #0
 1422              		.cfi_def_cfa_register 7
 1423 0006 7860     		str	r0, [r7, #4]
1094:.\Generated_Source\PSoC4/LED_CONTROL.c ****     uint8 enableInterrupts;
1095:.\Generated_Source\PSoC4/LED_CONTROL.c **** 
1096:.\Generated_Source\PSoC4/LED_CONTROL.c ****     enableInterrupts = CyEnterCriticalSection();
 1424              		.loc 1 1096 0
 1425 0008 3C1C     		mov	r4, r7
 1426 000a 0F34     		add	r4, r4, #15
 1427 000c FFF7FEFF 		bl	CyEnterCriticalSection
 1428 0010 031C     		mov	r3, r0
 1429 0012 2370     		strb	r3, [r4]
1097:.\Generated_Source\PSoC4/LED_CONTROL.c **** 
1098:.\Generated_Source\PSoC4/LED_CONTROL.c ****     LED_CONTROL_TRIG_CONTROL1_REG &= (uint32)~LED_CONTROL_RELOAD_MASK;
 1430              		.loc 1 1098 0
 1431 0014 0A4B     		ldr	r3, .L97
 1432 0016 0A4A     		ldr	r2, .L97
 1433 0018 1268     		ldr	r2, [r2]
 1434 001a 3021     		mov	r1, #48
 1435 001c 8A43     		bic	r2, r1
 1436 001e 1A60     		str	r2, [r3]
1099:.\Generated_Source\PSoC4/LED_CONTROL.c ****     LED_CONTROL_TRIG_CONTROL1_REG |= ((uint32)(triggerMode << LED_CONTROL_RELOAD_SHIFT));
 1437              		.loc 1 1099 0
 1438 0020 074B     		ldr	r3, .L97
 1439 0022 074A     		ldr	r2, .L97
 1440 0024 1168     		ldr	r1, [r2]
 1441 0026 7A68     		ldr	r2, [r7, #4]
 1442 0028 1201     		lsl	r2, r2, #4
 1443 002a 0A43     		orr	r2, r1
 1444 002c 1A60     		str	r2, [r3]
1100:.\Generated_Source\PSoC4/LED_CONTROL.c **** 
1101:.\Generated_Source\PSoC4/LED_CONTROL.c ****     CyExitCriticalSection(enableInterrupts);
 1445              		.loc 1 1101 0
 1446 002e 3B1C     		mov	r3, r7
 1447 0030 0F33     		add	r3, r3, #15
 1448 0032 1B78     		ldrb	r3, [r3]
 1449 0034 181C     		mov	r0, r3
 1450 0036 FFF7FEFF 		bl	CyExitCriticalSection
1102:.\Generated_Source\PSoC4/LED_CONTROL.c **** }
 1451              		.loc 1 1102 0
 1452 003a BD46     		mov	sp, r7
 1453 003c 05B0     		add	sp, sp, #20
 1454              		@ sp needed
 1455 003e 90BD     		pop	{r4, r7, pc}
 1456              	.L98:
 1457              		.align	2
 1458              	.L97:
 1459 0040 24010540 		.word	1074069796
 1460              		.cfi_endproc
 1461              	.LFE29:
 1462              		.size	LED_CONTROL_SetReloadMode, .-LED_CONTROL_SetReloadMode
 1463              		.section	.text.LED_CONTROL_SetStartMode,"ax",%progbits
ARM GAS  C:\Users\gsgill\AppData\Local\Temp\ccJYZky6.s 			page 46


 1464              		.align	2
 1465              		.global	LED_CONTROL_SetStartMode
 1466              		.code	16
 1467              		.thumb_func
 1468              		.type	LED_CONTROL_SetStartMode, %function
 1469              	LED_CONTROL_SetStartMode:
 1470              	.LFB30:
1103:.\Generated_Source\PSoC4/LED_CONTROL.c **** 
1104:.\Generated_Source\PSoC4/LED_CONTROL.c **** 
1105:.\Generated_Source\PSoC4/LED_CONTROL.c **** /*******************************************************************************
1106:.\Generated_Source\PSoC4/LED_CONTROL.c **** * Function Name: LED_CONTROL_SetStartMode
1107:.\Generated_Source\PSoC4/LED_CONTROL.c **** ********************************************************************************
1108:.\Generated_Source\PSoC4/LED_CONTROL.c **** *
1109:.\Generated_Source\PSoC4/LED_CONTROL.c **** * Summary:
1110:.\Generated_Source\PSoC4/LED_CONTROL.c **** *  Sets the start trigger mode. For Quadrature Decoder mode this is the
1111:.\Generated_Source\PSoC4/LED_CONTROL.c **** *  phiB input.
1112:.\Generated_Source\PSoC4/LED_CONTROL.c **** *
1113:.\Generated_Source\PSoC4/LED_CONTROL.c **** * Parameters:
1114:.\Generated_Source\PSoC4/LED_CONTROL.c **** *  triggerMode: Enumerated trigger mode value
1115:.\Generated_Source\PSoC4/LED_CONTROL.c **** *   Values:
1116:.\Generated_Source\PSoC4/LED_CONTROL.c **** *     - LED_CONTROL_TRIG_LEVEL     - Level
1117:.\Generated_Source\PSoC4/LED_CONTROL.c **** *     - LED_CONTROL_TRIG_RISING    - Rising edge
1118:.\Generated_Source\PSoC4/LED_CONTROL.c **** *     - LED_CONTROL_TRIG_FALLING   - Falling edge
1119:.\Generated_Source\PSoC4/LED_CONTROL.c **** *     - LED_CONTROL_TRIG_BOTH      - Both rising and falling edge
1120:.\Generated_Source\PSoC4/LED_CONTROL.c **** *
1121:.\Generated_Source\PSoC4/LED_CONTROL.c **** * Return:
1122:.\Generated_Source\PSoC4/LED_CONTROL.c **** *  None
1123:.\Generated_Source\PSoC4/LED_CONTROL.c **** *
1124:.\Generated_Source\PSoC4/LED_CONTROL.c **** *******************************************************************************/
1125:.\Generated_Source\PSoC4/LED_CONTROL.c **** void LED_CONTROL_SetStartMode(uint32 triggerMode)
1126:.\Generated_Source\PSoC4/LED_CONTROL.c **** {
 1471              		.loc 1 1126 0
 1472              		.cfi_startproc
 1473 0000 90B5     		push	{r4, r7, lr}
 1474              		.cfi_def_cfa_offset 12
 1475              		.cfi_offset 4, -12
 1476              		.cfi_offset 7, -8
 1477              		.cfi_offset 14, -4
 1478 0002 85B0     		sub	sp, sp, #20
 1479              		.cfi_def_cfa_offset 32
 1480 0004 00AF     		add	r7, sp, #0
 1481              		.cfi_def_cfa_register 7
 1482 0006 7860     		str	r0, [r7, #4]
1127:.\Generated_Source\PSoC4/LED_CONTROL.c ****     uint8 enableInterrupts;
1128:.\Generated_Source\PSoC4/LED_CONTROL.c **** 
1129:.\Generated_Source\PSoC4/LED_CONTROL.c ****     enableInterrupts = CyEnterCriticalSection();
 1483              		.loc 1 1129 0
 1484 0008 3C1C     		mov	r4, r7
 1485 000a 0F34     		add	r4, r4, #15
 1486 000c FFF7FEFF 		bl	CyEnterCriticalSection
 1487 0010 031C     		mov	r3, r0
 1488 0012 2370     		strb	r3, [r4]
1130:.\Generated_Source\PSoC4/LED_CONTROL.c **** 
1131:.\Generated_Source\PSoC4/LED_CONTROL.c ****     LED_CONTROL_TRIG_CONTROL1_REG &= (uint32)~LED_CONTROL_START_MASK;
 1489              		.loc 1 1131 0
 1490 0014 0A4B     		ldr	r3, .L100
 1491 0016 0A4A     		ldr	r2, .L100
ARM GAS  C:\Users\gsgill\AppData\Local\Temp\ccJYZky6.s 			page 47


 1492 0018 1168     		ldr	r1, [r2]
 1493 001a 0A4A     		ldr	r2, .L100+4
 1494 001c 0A40     		and	r2, r1
 1495 001e 1A60     		str	r2, [r3]
1132:.\Generated_Source\PSoC4/LED_CONTROL.c ****     LED_CONTROL_TRIG_CONTROL1_REG |= ((uint32)(triggerMode << LED_CONTROL_START_SHIFT));
 1496              		.loc 1 1132 0
 1497 0020 074B     		ldr	r3, .L100
 1498 0022 074A     		ldr	r2, .L100
 1499 0024 1168     		ldr	r1, [r2]
 1500 0026 7A68     		ldr	r2, [r7, #4]
 1501 0028 1202     		lsl	r2, r2, #8
 1502 002a 0A43     		orr	r2, r1
 1503 002c 1A60     		str	r2, [r3]
1133:.\Generated_Source\PSoC4/LED_CONTROL.c **** 
1134:.\Generated_Source\PSoC4/LED_CONTROL.c ****     CyExitCriticalSection(enableInterrupts);
 1504              		.loc 1 1134 0
 1505 002e 3B1C     		mov	r3, r7
 1506 0030 0F33     		add	r3, r3, #15
 1507 0032 1B78     		ldrb	r3, [r3]
 1508 0034 181C     		mov	r0, r3
 1509 0036 FFF7FEFF 		bl	CyExitCriticalSection
1135:.\Generated_Source\PSoC4/LED_CONTROL.c **** }
 1510              		.loc 1 1135 0
 1511 003a BD46     		mov	sp, r7
 1512 003c 05B0     		add	sp, sp, #20
 1513              		@ sp needed
 1514 003e 90BD     		pop	{r4, r7, pc}
 1515              	.L101:
 1516              		.align	2
 1517              	.L100:
 1518 0040 24010540 		.word	1074069796
 1519 0044 FFFCFFFF 		.word	-769
 1520              		.cfi_endproc
 1521              	.LFE30:
 1522              		.size	LED_CONTROL_SetStartMode, .-LED_CONTROL_SetStartMode
 1523              		.section	.text.LED_CONTROL_SetStopMode,"ax",%progbits
 1524              		.align	2
 1525              		.global	LED_CONTROL_SetStopMode
 1526              		.code	16
 1527              		.thumb_func
 1528              		.type	LED_CONTROL_SetStopMode, %function
 1529              	LED_CONTROL_SetStopMode:
 1530              	.LFB31:
1136:.\Generated_Source\PSoC4/LED_CONTROL.c **** 
1137:.\Generated_Source\PSoC4/LED_CONTROL.c **** 
1138:.\Generated_Source\PSoC4/LED_CONTROL.c **** /*******************************************************************************
1139:.\Generated_Source\PSoC4/LED_CONTROL.c **** * Function Name: LED_CONTROL_SetStopMode
1140:.\Generated_Source\PSoC4/LED_CONTROL.c **** ********************************************************************************
1141:.\Generated_Source\PSoC4/LED_CONTROL.c **** *
1142:.\Generated_Source\PSoC4/LED_CONTROL.c **** * Summary:
1143:.\Generated_Source\PSoC4/LED_CONTROL.c **** *  Sets the stop trigger mode. For PWM mode this is the kill input.
1144:.\Generated_Source\PSoC4/LED_CONTROL.c **** *
1145:.\Generated_Source\PSoC4/LED_CONTROL.c **** * Parameters:
1146:.\Generated_Source\PSoC4/LED_CONTROL.c **** *  triggerMode: Enumerated trigger mode value
1147:.\Generated_Source\PSoC4/LED_CONTROL.c **** *   Values:
1148:.\Generated_Source\PSoC4/LED_CONTROL.c **** *     - LED_CONTROL_TRIG_LEVEL     - Level
1149:.\Generated_Source\PSoC4/LED_CONTROL.c **** *     - LED_CONTROL_TRIG_RISING    - Rising edge
ARM GAS  C:\Users\gsgill\AppData\Local\Temp\ccJYZky6.s 			page 48


1150:.\Generated_Source\PSoC4/LED_CONTROL.c **** *     - LED_CONTROL_TRIG_FALLING   - Falling edge
1151:.\Generated_Source\PSoC4/LED_CONTROL.c **** *     - LED_CONTROL_TRIG_BOTH      - Both rising and falling edge
1152:.\Generated_Source\PSoC4/LED_CONTROL.c **** *
1153:.\Generated_Source\PSoC4/LED_CONTROL.c **** * Return:
1154:.\Generated_Source\PSoC4/LED_CONTROL.c **** *  None
1155:.\Generated_Source\PSoC4/LED_CONTROL.c **** *
1156:.\Generated_Source\PSoC4/LED_CONTROL.c **** *******************************************************************************/
1157:.\Generated_Source\PSoC4/LED_CONTROL.c **** void LED_CONTROL_SetStopMode(uint32 triggerMode)
1158:.\Generated_Source\PSoC4/LED_CONTROL.c **** {
 1531              		.loc 1 1158 0
 1532              		.cfi_startproc
 1533 0000 90B5     		push	{r4, r7, lr}
 1534              		.cfi_def_cfa_offset 12
 1535              		.cfi_offset 4, -12
 1536              		.cfi_offset 7, -8
 1537              		.cfi_offset 14, -4
 1538 0002 85B0     		sub	sp, sp, #20
 1539              		.cfi_def_cfa_offset 32
 1540 0004 00AF     		add	r7, sp, #0
 1541              		.cfi_def_cfa_register 7
 1542 0006 7860     		str	r0, [r7, #4]
1159:.\Generated_Source\PSoC4/LED_CONTROL.c ****     uint8 enableInterrupts;
1160:.\Generated_Source\PSoC4/LED_CONTROL.c **** 
1161:.\Generated_Source\PSoC4/LED_CONTROL.c ****     enableInterrupts = CyEnterCriticalSection();
 1543              		.loc 1 1161 0
 1544 0008 3C1C     		mov	r4, r7
 1545 000a 0F34     		add	r4, r4, #15
 1546 000c FFF7FEFF 		bl	CyEnterCriticalSection
 1547 0010 031C     		mov	r3, r0
 1548 0012 2370     		strb	r3, [r4]
1162:.\Generated_Source\PSoC4/LED_CONTROL.c **** 
1163:.\Generated_Source\PSoC4/LED_CONTROL.c ****     LED_CONTROL_TRIG_CONTROL1_REG &= (uint32)~LED_CONTROL_STOP_MASK;
 1549              		.loc 1 1163 0
 1550 0014 0A4B     		ldr	r3, .L103
 1551 0016 0A4A     		ldr	r2, .L103
 1552 0018 1268     		ldr	r2, [r2]
 1553 001a C021     		mov	r1, #192
 1554 001c 8A43     		bic	r2, r1
 1555 001e 1A60     		str	r2, [r3]
1164:.\Generated_Source\PSoC4/LED_CONTROL.c ****     LED_CONTROL_TRIG_CONTROL1_REG |= ((uint32)(triggerMode << LED_CONTROL_STOP_SHIFT));
 1556              		.loc 1 1164 0
 1557 0020 074B     		ldr	r3, .L103
 1558 0022 074A     		ldr	r2, .L103
 1559 0024 1168     		ldr	r1, [r2]
 1560 0026 7A68     		ldr	r2, [r7, #4]
 1561 0028 9201     		lsl	r2, r2, #6
 1562 002a 0A43     		orr	r2, r1
 1563 002c 1A60     		str	r2, [r3]
1165:.\Generated_Source\PSoC4/LED_CONTROL.c **** 
1166:.\Generated_Source\PSoC4/LED_CONTROL.c ****     CyExitCriticalSection(enableInterrupts);
 1564              		.loc 1 1166 0
 1565 002e 3B1C     		mov	r3, r7
 1566 0030 0F33     		add	r3, r3, #15
 1567 0032 1B78     		ldrb	r3, [r3]
 1568 0034 181C     		mov	r0, r3
 1569 0036 FFF7FEFF 		bl	CyExitCriticalSection
1167:.\Generated_Source\PSoC4/LED_CONTROL.c **** }
ARM GAS  C:\Users\gsgill\AppData\Local\Temp\ccJYZky6.s 			page 49


 1570              		.loc 1 1167 0
 1571 003a BD46     		mov	sp, r7
 1572 003c 05B0     		add	sp, sp, #20
 1573              		@ sp needed
 1574 003e 90BD     		pop	{r4, r7, pc}
 1575              	.L104:
 1576              		.align	2
 1577              	.L103:
 1578 0040 24010540 		.word	1074069796
 1579              		.cfi_endproc
 1580              	.LFE31:
 1581              		.size	LED_CONTROL_SetStopMode, .-LED_CONTROL_SetStopMode
 1582              		.section	.text.LED_CONTROL_SetCountMode,"ax",%progbits
 1583              		.align	2
 1584              		.global	LED_CONTROL_SetCountMode
 1585              		.code	16
 1586              		.thumb_func
 1587              		.type	LED_CONTROL_SetCountMode, %function
 1588              	LED_CONTROL_SetCountMode:
 1589              	.LFB32:
1168:.\Generated_Source\PSoC4/LED_CONTROL.c **** 
1169:.\Generated_Source\PSoC4/LED_CONTROL.c **** 
1170:.\Generated_Source\PSoC4/LED_CONTROL.c **** /*******************************************************************************
1171:.\Generated_Source\PSoC4/LED_CONTROL.c **** * Function Name: LED_CONTROL_SetCountMode
1172:.\Generated_Source\PSoC4/LED_CONTROL.c **** ********************************************************************************
1173:.\Generated_Source\PSoC4/LED_CONTROL.c **** *
1174:.\Generated_Source\PSoC4/LED_CONTROL.c **** * Summary:
1175:.\Generated_Source\PSoC4/LED_CONTROL.c **** *  Sets the count trigger mode. For Quadrature Decoder mode this is the phiA
1176:.\Generated_Source\PSoC4/LED_CONTROL.c **** *  input.
1177:.\Generated_Source\PSoC4/LED_CONTROL.c **** *
1178:.\Generated_Source\PSoC4/LED_CONTROL.c **** * Parameters:
1179:.\Generated_Source\PSoC4/LED_CONTROL.c **** *  triggerMode: Enumerated trigger mode value
1180:.\Generated_Source\PSoC4/LED_CONTROL.c **** *   Values:
1181:.\Generated_Source\PSoC4/LED_CONTROL.c **** *     - LED_CONTROL_TRIG_LEVEL     - Level
1182:.\Generated_Source\PSoC4/LED_CONTROL.c **** *     - LED_CONTROL_TRIG_RISING    - Rising edge
1183:.\Generated_Source\PSoC4/LED_CONTROL.c **** *     - LED_CONTROL_TRIG_FALLING   - Falling edge
1184:.\Generated_Source\PSoC4/LED_CONTROL.c **** *     - LED_CONTROL_TRIG_BOTH      - Both rising and falling edge
1185:.\Generated_Source\PSoC4/LED_CONTROL.c **** *
1186:.\Generated_Source\PSoC4/LED_CONTROL.c **** * Return:
1187:.\Generated_Source\PSoC4/LED_CONTROL.c **** *  None
1188:.\Generated_Source\PSoC4/LED_CONTROL.c **** *
1189:.\Generated_Source\PSoC4/LED_CONTROL.c **** *******************************************************************************/
1190:.\Generated_Source\PSoC4/LED_CONTROL.c **** void LED_CONTROL_SetCountMode(uint32 triggerMode)
1191:.\Generated_Source\PSoC4/LED_CONTROL.c **** {
 1590              		.loc 1 1191 0
 1591              		.cfi_startproc
 1592 0000 90B5     		push	{r4, r7, lr}
 1593              		.cfi_def_cfa_offset 12
 1594              		.cfi_offset 4, -12
 1595              		.cfi_offset 7, -8
 1596              		.cfi_offset 14, -4
 1597 0002 85B0     		sub	sp, sp, #20
 1598              		.cfi_def_cfa_offset 32
 1599 0004 00AF     		add	r7, sp, #0
 1600              		.cfi_def_cfa_register 7
 1601 0006 7860     		str	r0, [r7, #4]
1192:.\Generated_Source\PSoC4/LED_CONTROL.c ****     uint8 enableInterrupts;
ARM GAS  C:\Users\gsgill\AppData\Local\Temp\ccJYZky6.s 			page 50


1193:.\Generated_Source\PSoC4/LED_CONTROL.c **** 
1194:.\Generated_Source\PSoC4/LED_CONTROL.c ****     enableInterrupts = CyEnterCriticalSection();
 1602              		.loc 1 1194 0
 1603 0008 3C1C     		mov	r4, r7
 1604 000a 0F34     		add	r4, r4, #15
 1605 000c FFF7FEFF 		bl	CyEnterCriticalSection
 1606 0010 031C     		mov	r3, r0
 1607 0012 2370     		strb	r3, [r4]
1195:.\Generated_Source\PSoC4/LED_CONTROL.c **** 
1196:.\Generated_Source\PSoC4/LED_CONTROL.c ****     LED_CONTROL_TRIG_CONTROL1_REG &= (uint32)~LED_CONTROL_COUNT_MASK;
 1608              		.loc 1 1196 0
 1609 0014 0A4B     		ldr	r3, .L106
 1610 0016 0A4A     		ldr	r2, .L106
 1611 0018 1268     		ldr	r2, [r2]
 1612 001a 0C21     		mov	r1, #12
 1613 001c 8A43     		bic	r2, r1
 1614 001e 1A60     		str	r2, [r3]
1197:.\Generated_Source\PSoC4/LED_CONTROL.c ****     LED_CONTROL_TRIG_CONTROL1_REG |= ((uint32)(triggerMode << LED_CONTROL_COUNT_SHIFT));
 1615              		.loc 1 1197 0
 1616 0020 074B     		ldr	r3, .L106
 1617 0022 074A     		ldr	r2, .L106
 1618 0024 1168     		ldr	r1, [r2]
 1619 0026 7A68     		ldr	r2, [r7, #4]
 1620 0028 9200     		lsl	r2, r2, #2
 1621 002a 0A43     		orr	r2, r1
 1622 002c 1A60     		str	r2, [r3]
1198:.\Generated_Source\PSoC4/LED_CONTROL.c **** 
1199:.\Generated_Source\PSoC4/LED_CONTROL.c ****     CyExitCriticalSection(enableInterrupts);
 1623              		.loc 1 1199 0
 1624 002e 3B1C     		mov	r3, r7
 1625 0030 0F33     		add	r3, r3, #15
 1626 0032 1B78     		ldrb	r3, [r3]
 1627 0034 181C     		mov	r0, r3
 1628 0036 FFF7FEFF 		bl	CyExitCriticalSection
1200:.\Generated_Source\PSoC4/LED_CONTROL.c **** }
 1629              		.loc 1 1200 0
 1630 003a BD46     		mov	sp, r7
 1631 003c 05B0     		add	sp, sp, #20
 1632              		@ sp needed
 1633 003e 90BD     		pop	{r4, r7, pc}
 1634              	.L107:
 1635              		.align	2
 1636              	.L106:
 1637 0040 24010540 		.word	1074069796
 1638              		.cfi_endproc
 1639              	.LFE32:
 1640              		.size	LED_CONTROL_SetCountMode, .-LED_CONTROL_SetCountMode
 1641              		.section	.text.LED_CONTROL_TriggerCommand,"ax",%progbits
 1642              		.align	2
 1643              		.global	LED_CONTROL_TriggerCommand
 1644              		.code	16
 1645              		.thumb_func
 1646              		.type	LED_CONTROL_TriggerCommand, %function
 1647              	LED_CONTROL_TriggerCommand:
 1648              	.LFB33:
1201:.\Generated_Source\PSoC4/LED_CONTROL.c **** 
1202:.\Generated_Source\PSoC4/LED_CONTROL.c **** 
ARM GAS  C:\Users\gsgill\AppData\Local\Temp\ccJYZky6.s 			page 51


1203:.\Generated_Source\PSoC4/LED_CONTROL.c **** /*******************************************************************************
1204:.\Generated_Source\PSoC4/LED_CONTROL.c **** * Function Name: LED_CONTROL_TriggerCommand
1205:.\Generated_Source\PSoC4/LED_CONTROL.c **** ********************************************************************************
1206:.\Generated_Source\PSoC4/LED_CONTROL.c **** *
1207:.\Generated_Source\PSoC4/LED_CONTROL.c **** * Summary:
1208:.\Generated_Source\PSoC4/LED_CONTROL.c **** *  Triggers the designated command to occur on the designated TCPWM instances.
1209:.\Generated_Source\PSoC4/LED_CONTROL.c **** *  The mask can be used to apply this command simultaneously to more than one
1210:.\Generated_Source\PSoC4/LED_CONTROL.c **** *  instance.  This allows multiple TCPWM instances to be synchronized.
1211:.\Generated_Source\PSoC4/LED_CONTROL.c **** *
1212:.\Generated_Source\PSoC4/LED_CONTROL.c **** * Parameters:
1213:.\Generated_Source\PSoC4/LED_CONTROL.c **** *  mask: A combination of mask bits for each instance of the TCPWM that the
1214:.\Generated_Source\PSoC4/LED_CONTROL.c **** *        command should apply to.  This function from one instance can be used
1215:.\Generated_Source\PSoC4/LED_CONTROL.c **** *        to apply the command to any of the instances in the design.
1216:.\Generated_Source\PSoC4/LED_CONTROL.c **** *        The mask value for a specific instance is available with the MASK
1217:.\Generated_Source\PSoC4/LED_CONTROL.c **** *        define.
1218:.\Generated_Source\PSoC4/LED_CONTROL.c **** *  command: Enumerated command values. Capture command only applicable for
1219:.\Generated_Source\PSoC4/LED_CONTROL.c **** *           Timer/Counter with Capture and PWM modes.
1220:.\Generated_Source\PSoC4/LED_CONTROL.c **** *   Values:
1221:.\Generated_Source\PSoC4/LED_CONTROL.c **** *     - LED_CONTROL_CMD_CAPTURE    - Trigger Capture command
1222:.\Generated_Source\PSoC4/LED_CONTROL.c **** *     - LED_CONTROL_CMD_RELOAD     - Trigger Reload command
1223:.\Generated_Source\PSoC4/LED_CONTROL.c **** *     - LED_CONTROL_CMD_STOP       - Trigger Stop command
1224:.\Generated_Source\PSoC4/LED_CONTROL.c **** *     - LED_CONTROL_CMD_START      - Trigger Start command
1225:.\Generated_Source\PSoC4/LED_CONTROL.c **** *
1226:.\Generated_Source\PSoC4/LED_CONTROL.c **** * Return:
1227:.\Generated_Source\PSoC4/LED_CONTROL.c **** *  None
1228:.\Generated_Source\PSoC4/LED_CONTROL.c **** *
1229:.\Generated_Source\PSoC4/LED_CONTROL.c **** *******************************************************************************/
1230:.\Generated_Source\PSoC4/LED_CONTROL.c **** void LED_CONTROL_TriggerCommand(uint32 mask, uint32 command)
1231:.\Generated_Source\PSoC4/LED_CONTROL.c **** {
 1649              		.loc 1 1231 0
 1650              		.cfi_startproc
 1651 0000 90B5     		push	{r4, r7, lr}
 1652              		.cfi_def_cfa_offset 12
 1653              		.cfi_offset 4, -12
 1654              		.cfi_offset 7, -8
 1655              		.cfi_offset 14, -4
 1656 0002 85B0     		sub	sp, sp, #20
 1657              		.cfi_def_cfa_offset 32
 1658 0004 00AF     		add	r7, sp, #0
 1659              		.cfi_def_cfa_register 7
 1660 0006 7860     		str	r0, [r7, #4]
 1661 0008 3960     		str	r1, [r7]
1232:.\Generated_Source\PSoC4/LED_CONTROL.c ****     uint8 enableInterrupts;
1233:.\Generated_Source\PSoC4/LED_CONTROL.c **** 
1234:.\Generated_Source\PSoC4/LED_CONTROL.c ****     enableInterrupts = CyEnterCriticalSection();
 1662              		.loc 1 1234 0
 1663 000a 3C1C     		mov	r4, r7
 1664 000c 0F34     		add	r4, r4, #15
 1665 000e FFF7FEFF 		bl	CyEnterCriticalSection
 1666 0012 031C     		mov	r3, r0
 1667 0014 2370     		strb	r3, [r4]
1235:.\Generated_Source\PSoC4/LED_CONTROL.c **** 
1236:.\Generated_Source\PSoC4/LED_CONTROL.c ****     LED_CONTROL_COMMAND_REG = ((uint32)(mask << command));
 1668              		.loc 1 1236 0
 1669 0016 084B     		ldr	r3, .L109
 1670 0018 3A68     		ldr	r2, [r7]
 1671 001a 7968     		ldr	r1, [r7, #4]
ARM GAS  C:\Users\gsgill\AppData\Local\Temp\ccJYZky6.s 			page 52


 1672 001c 081C     		mov	r0, r1
 1673 001e 9040     		lsl	r0, r0, r2
 1674 0020 021C     		mov	r2, r0
 1675 0022 1A60     		str	r2, [r3]
1237:.\Generated_Source\PSoC4/LED_CONTROL.c **** 
1238:.\Generated_Source\PSoC4/LED_CONTROL.c ****     CyExitCriticalSection(enableInterrupts);
 1676              		.loc 1 1238 0
 1677 0024 3B1C     		mov	r3, r7
 1678 0026 0F33     		add	r3, r3, #15
 1679 0028 1B78     		ldrb	r3, [r3]
 1680 002a 181C     		mov	r0, r3
 1681 002c FFF7FEFF 		bl	CyExitCriticalSection
1239:.\Generated_Source\PSoC4/LED_CONTROL.c **** }
 1682              		.loc 1 1239 0
 1683 0030 BD46     		mov	sp, r7
 1684 0032 05B0     		add	sp, sp, #20
 1685              		@ sp needed
 1686 0034 90BD     		pop	{r4, r7, pc}
 1687              	.L110:
 1688 0036 C046     		.align	2
 1689              	.L109:
 1690 0038 08000540 		.word	1074069512
 1691              		.cfi_endproc
 1692              	.LFE33:
 1693              		.size	LED_CONTROL_TriggerCommand, .-LED_CONTROL_TriggerCommand
 1694              		.section	.text.LED_CONTROL_ReadStatus,"ax",%progbits
 1695              		.align	2
 1696              		.global	LED_CONTROL_ReadStatus
 1697              		.code	16
 1698              		.thumb_func
 1699              		.type	LED_CONTROL_ReadStatus, %function
 1700              	LED_CONTROL_ReadStatus:
 1701              	.LFB34:
1240:.\Generated_Source\PSoC4/LED_CONTROL.c **** 
1241:.\Generated_Source\PSoC4/LED_CONTROL.c **** 
1242:.\Generated_Source\PSoC4/LED_CONTROL.c **** /*******************************************************************************
1243:.\Generated_Source\PSoC4/LED_CONTROL.c **** * Function Name: LED_CONTROL_ReadStatus
1244:.\Generated_Source\PSoC4/LED_CONTROL.c **** ********************************************************************************
1245:.\Generated_Source\PSoC4/LED_CONTROL.c **** *
1246:.\Generated_Source\PSoC4/LED_CONTROL.c **** * Summary:
1247:.\Generated_Source\PSoC4/LED_CONTROL.c **** *  Reads the status of the LED_CONTROL.
1248:.\Generated_Source\PSoC4/LED_CONTROL.c **** *
1249:.\Generated_Source\PSoC4/LED_CONTROL.c **** * Parameters:
1250:.\Generated_Source\PSoC4/LED_CONTROL.c **** *  None
1251:.\Generated_Source\PSoC4/LED_CONTROL.c **** *
1252:.\Generated_Source\PSoC4/LED_CONTROL.c **** * Return:
1253:.\Generated_Source\PSoC4/LED_CONTROL.c **** *  Status
1254:.\Generated_Source\PSoC4/LED_CONTROL.c **** *   Values:
1255:.\Generated_Source\PSoC4/LED_CONTROL.c **** *     - LED_CONTROL_STATUS_DOWN    - Set if counting down
1256:.\Generated_Source\PSoC4/LED_CONTROL.c **** *     - LED_CONTROL_STATUS_RUNNING - Set if counter is running
1257:.\Generated_Source\PSoC4/LED_CONTROL.c **** *
1258:.\Generated_Source\PSoC4/LED_CONTROL.c **** *******************************************************************************/
1259:.\Generated_Source\PSoC4/LED_CONTROL.c **** uint32 LED_CONTROL_ReadStatus(void)
1260:.\Generated_Source\PSoC4/LED_CONTROL.c **** {
 1702              		.loc 1 1260 0
 1703              		.cfi_startproc
 1704 0000 80B5     		push	{r7, lr}
ARM GAS  C:\Users\gsgill\AppData\Local\Temp\ccJYZky6.s 			page 53


 1705              		.cfi_def_cfa_offset 8
 1706              		.cfi_offset 7, -8
 1707              		.cfi_offset 14, -4
 1708 0002 00AF     		add	r7, sp, #0
 1709              		.cfi_def_cfa_register 7
1261:.\Generated_Source\PSoC4/LED_CONTROL.c ****     return ((LED_CONTROL_STATUS_REG >> LED_CONTROL_RUNNING_STATUS_SHIFT) |
 1710              		.loc 1 1261 0
 1711 0004 054B     		ldr	r3, .L113
 1712 0006 1B68     		ldr	r3, [r3]
 1713 0008 9A0F     		lsr	r2, r3, #30
1262:.\Generated_Source\PSoC4/LED_CONTROL.c ****             (LED_CONTROL_STATUS_REG & LED_CONTROL_STATUS_DOWN));
 1714              		.loc 1 1262 0
 1715 000a 044B     		ldr	r3, .L113
 1716 000c 1968     		ldr	r1, [r3]
 1717 000e 0123     		mov	r3, #1
 1718 0010 0B40     		and	r3, r1
1261:.\Generated_Source\PSoC4/LED_CONTROL.c ****     return ((LED_CONTROL_STATUS_REG >> LED_CONTROL_RUNNING_STATUS_SHIFT) |
 1719              		.loc 1 1261 0
 1720 0012 1343     		orr	r3, r2
1263:.\Generated_Source\PSoC4/LED_CONTROL.c **** }
 1721              		.loc 1 1263 0
 1722 0014 181C     		mov	r0, r3
 1723 0016 BD46     		mov	sp, r7
 1724              		@ sp needed
 1725 0018 80BD     		pop	{r7, pc}
 1726              	.L114:
 1727 001a C046     		.align	2
 1728              	.L113:
 1729 001c 04010540 		.word	1074069764
 1730              		.cfi_endproc
 1731              	.LFE34:
 1732              		.size	LED_CONTROL_ReadStatus, .-LED_CONTROL_ReadStatus
 1733              		.section	.text.LED_CONTROL_SetInterruptMode,"ax",%progbits
 1734              		.align	2
 1735              		.global	LED_CONTROL_SetInterruptMode
 1736              		.code	16
 1737              		.thumb_func
 1738              		.type	LED_CONTROL_SetInterruptMode, %function
 1739              	LED_CONTROL_SetInterruptMode:
 1740              	.LFB35:
1264:.\Generated_Source\PSoC4/LED_CONTROL.c **** 
1265:.\Generated_Source\PSoC4/LED_CONTROL.c **** 
1266:.\Generated_Source\PSoC4/LED_CONTROL.c **** /*******************************************************************************
1267:.\Generated_Source\PSoC4/LED_CONTROL.c **** * Function Name: LED_CONTROL_SetInterruptMode
1268:.\Generated_Source\PSoC4/LED_CONTROL.c **** ********************************************************************************
1269:.\Generated_Source\PSoC4/LED_CONTROL.c **** *
1270:.\Generated_Source\PSoC4/LED_CONTROL.c **** * Summary:
1271:.\Generated_Source\PSoC4/LED_CONTROL.c **** *  Sets the interrupt mask to control which interrupt
1272:.\Generated_Source\PSoC4/LED_CONTROL.c **** *  requests generate the interrupt signal.
1273:.\Generated_Source\PSoC4/LED_CONTROL.c **** *
1274:.\Generated_Source\PSoC4/LED_CONTROL.c **** * Parameters:
1275:.\Generated_Source\PSoC4/LED_CONTROL.c **** *   interruptMask: Mask of bits to be enabled
1276:.\Generated_Source\PSoC4/LED_CONTROL.c **** *   Values:
1277:.\Generated_Source\PSoC4/LED_CONTROL.c **** *     - LED_CONTROL_INTR_MASK_TC       - Terminal count mask
1278:.\Generated_Source\PSoC4/LED_CONTROL.c **** *     - LED_CONTROL_INTR_MASK_CC_MATCH - Compare count / capture mask
1279:.\Generated_Source\PSoC4/LED_CONTROL.c **** *
1280:.\Generated_Source\PSoC4/LED_CONTROL.c **** * Return:
ARM GAS  C:\Users\gsgill\AppData\Local\Temp\ccJYZky6.s 			page 54


1281:.\Generated_Source\PSoC4/LED_CONTROL.c **** *  None
1282:.\Generated_Source\PSoC4/LED_CONTROL.c **** *
1283:.\Generated_Source\PSoC4/LED_CONTROL.c **** *******************************************************************************/
1284:.\Generated_Source\PSoC4/LED_CONTROL.c **** void LED_CONTROL_SetInterruptMode(uint32 interruptMask)
1285:.\Generated_Source\PSoC4/LED_CONTROL.c **** {
 1741              		.loc 1 1285 0
 1742              		.cfi_startproc
 1743 0000 80B5     		push	{r7, lr}
 1744              		.cfi_def_cfa_offset 8
 1745              		.cfi_offset 7, -8
 1746              		.cfi_offset 14, -4
 1747 0002 82B0     		sub	sp, sp, #8
 1748              		.cfi_def_cfa_offset 16
 1749 0004 00AF     		add	r7, sp, #0
 1750              		.cfi_def_cfa_register 7
 1751 0006 7860     		str	r0, [r7, #4]
1286:.\Generated_Source\PSoC4/LED_CONTROL.c ****     LED_CONTROL_INTERRUPT_MASK_REG =  interruptMask;
 1752              		.loc 1 1286 0
 1753 0008 024B     		ldr	r3, .L116
 1754 000a 7A68     		ldr	r2, [r7, #4]
 1755 000c 1A60     		str	r2, [r3]
1287:.\Generated_Source\PSoC4/LED_CONTROL.c **** }
 1756              		.loc 1 1287 0
 1757 000e BD46     		mov	sp, r7
 1758 0010 02B0     		add	sp, sp, #8
 1759              		@ sp needed
 1760 0012 80BD     		pop	{r7, pc}
 1761              	.L117:
 1762              		.align	2
 1763              	.L116:
 1764 0014 38010540 		.word	1074069816
 1765              		.cfi_endproc
 1766              	.LFE35:
 1767              		.size	LED_CONTROL_SetInterruptMode, .-LED_CONTROL_SetInterruptMode
 1768              		.section	.text.LED_CONTROL_GetInterruptSourceMasked,"ax",%progbits
 1769              		.align	2
 1770              		.global	LED_CONTROL_GetInterruptSourceMasked
 1771              		.code	16
 1772              		.thumb_func
 1773              		.type	LED_CONTROL_GetInterruptSourceMasked, %function
 1774              	LED_CONTROL_GetInterruptSourceMasked:
 1775              	.LFB36:
1288:.\Generated_Source\PSoC4/LED_CONTROL.c **** 
1289:.\Generated_Source\PSoC4/LED_CONTROL.c **** 
1290:.\Generated_Source\PSoC4/LED_CONTROL.c **** /*******************************************************************************
1291:.\Generated_Source\PSoC4/LED_CONTROL.c **** * Function Name: LED_CONTROL_GetInterruptSourceMasked
1292:.\Generated_Source\PSoC4/LED_CONTROL.c **** ********************************************************************************
1293:.\Generated_Source\PSoC4/LED_CONTROL.c **** *
1294:.\Generated_Source\PSoC4/LED_CONTROL.c **** * Summary:
1295:.\Generated_Source\PSoC4/LED_CONTROL.c **** *  Gets the interrupt requests masked by the interrupt mask.
1296:.\Generated_Source\PSoC4/LED_CONTROL.c **** *
1297:.\Generated_Source\PSoC4/LED_CONTROL.c **** * Parameters:
1298:.\Generated_Source\PSoC4/LED_CONTROL.c **** *   None
1299:.\Generated_Source\PSoC4/LED_CONTROL.c **** *
1300:.\Generated_Source\PSoC4/LED_CONTROL.c **** * Return:
1301:.\Generated_Source\PSoC4/LED_CONTROL.c **** *  Masked interrupt source
1302:.\Generated_Source\PSoC4/LED_CONTROL.c **** *   Values:
ARM GAS  C:\Users\gsgill\AppData\Local\Temp\ccJYZky6.s 			page 55


1303:.\Generated_Source\PSoC4/LED_CONTROL.c **** *     - LED_CONTROL_INTR_MASK_TC       - Terminal count mask
1304:.\Generated_Source\PSoC4/LED_CONTROL.c **** *     - LED_CONTROL_INTR_MASK_CC_MATCH - Compare count / capture mask
1305:.\Generated_Source\PSoC4/LED_CONTROL.c **** *
1306:.\Generated_Source\PSoC4/LED_CONTROL.c **** *******************************************************************************/
1307:.\Generated_Source\PSoC4/LED_CONTROL.c **** uint32 LED_CONTROL_GetInterruptSourceMasked(void)
1308:.\Generated_Source\PSoC4/LED_CONTROL.c **** {
 1776              		.loc 1 1308 0
 1777              		.cfi_startproc
 1778 0000 80B5     		push	{r7, lr}
 1779              		.cfi_def_cfa_offset 8
 1780              		.cfi_offset 7, -8
 1781              		.cfi_offset 14, -4
 1782 0002 00AF     		add	r7, sp, #0
 1783              		.cfi_def_cfa_register 7
1309:.\Generated_Source\PSoC4/LED_CONTROL.c ****     return (LED_CONTROL_INTERRUPT_MASKED_REG);
 1784              		.loc 1 1309 0
 1785 0004 024B     		ldr	r3, .L120
 1786 0006 1B68     		ldr	r3, [r3]
1310:.\Generated_Source\PSoC4/LED_CONTROL.c **** }
 1787              		.loc 1 1310 0
 1788 0008 181C     		mov	r0, r3
 1789 000a BD46     		mov	sp, r7
 1790              		@ sp needed
 1791 000c 80BD     		pop	{r7, pc}
 1792              	.L121:
 1793 000e C046     		.align	2
 1794              	.L120:
 1795 0010 3C010540 		.word	1074069820
 1796              		.cfi_endproc
 1797              	.LFE36:
 1798              		.size	LED_CONTROL_GetInterruptSourceMasked, .-LED_CONTROL_GetInterruptSourceMasked
 1799              		.section	.text.LED_CONTROL_GetInterruptSource,"ax",%progbits
 1800              		.align	2
 1801              		.global	LED_CONTROL_GetInterruptSource
 1802              		.code	16
 1803              		.thumb_func
 1804              		.type	LED_CONTROL_GetInterruptSource, %function
 1805              	LED_CONTROL_GetInterruptSource:
 1806              	.LFB37:
1311:.\Generated_Source\PSoC4/LED_CONTROL.c **** 
1312:.\Generated_Source\PSoC4/LED_CONTROL.c **** 
1313:.\Generated_Source\PSoC4/LED_CONTROL.c **** /*******************************************************************************
1314:.\Generated_Source\PSoC4/LED_CONTROL.c **** * Function Name: LED_CONTROL_GetInterruptSource
1315:.\Generated_Source\PSoC4/LED_CONTROL.c **** ********************************************************************************
1316:.\Generated_Source\PSoC4/LED_CONTROL.c **** *
1317:.\Generated_Source\PSoC4/LED_CONTROL.c **** * Summary:
1318:.\Generated_Source\PSoC4/LED_CONTROL.c **** *  Gets the interrupt requests (without masking).
1319:.\Generated_Source\PSoC4/LED_CONTROL.c **** *
1320:.\Generated_Source\PSoC4/LED_CONTROL.c **** * Parameters:
1321:.\Generated_Source\PSoC4/LED_CONTROL.c **** *  None
1322:.\Generated_Source\PSoC4/LED_CONTROL.c **** *
1323:.\Generated_Source\PSoC4/LED_CONTROL.c **** * Return:
1324:.\Generated_Source\PSoC4/LED_CONTROL.c **** *  Interrupt request value
1325:.\Generated_Source\PSoC4/LED_CONTROL.c **** *   Values:
1326:.\Generated_Source\PSoC4/LED_CONTROL.c **** *     - LED_CONTROL_INTR_MASK_TC       - Terminal count mask
1327:.\Generated_Source\PSoC4/LED_CONTROL.c **** *     - LED_CONTROL_INTR_MASK_CC_MATCH - Compare count / capture mask
1328:.\Generated_Source\PSoC4/LED_CONTROL.c **** *
ARM GAS  C:\Users\gsgill\AppData\Local\Temp\ccJYZky6.s 			page 56


1329:.\Generated_Source\PSoC4/LED_CONTROL.c **** *******************************************************************************/
1330:.\Generated_Source\PSoC4/LED_CONTROL.c **** uint32 LED_CONTROL_GetInterruptSource(void)
1331:.\Generated_Source\PSoC4/LED_CONTROL.c **** {
 1807              		.loc 1 1331 0
 1808              		.cfi_startproc
 1809 0000 80B5     		push	{r7, lr}
 1810              		.cfi_def_cfa_offset 8
 1811              		.cfi_offset 7, -8
 1812              		.cfi_offset 14, -4
 1813 0002 00AF     		add	r7, sp, #0
 1814              		.cfi_def_cfa_register 7
1332:.\Generated_Source\PSoC4/LED_CONTROL.c ****     return (LED_CONTROL_INTERRUPT_REQ_REG);
 1815              		.loc 1 1332 0
 1816 0004 024B     		ldr	r3, .L124
 1817 0006 1B68     		ldr	r3, [r3]
1333:.\Generated_Source\PSoC4/LED_CONTROL.c **** }
 1818              		.loc 1 1333 0
 1819 0008 181C     		mov	r0, r3
 1820 000a BD46     		mov	sp, r7
 1821              		@ sp needed
 1822 000c 80BD     		pop	{r7, pc}
 1823              	.L125:
 1824 000e C046     		.align	2
 1825              	.L124:
 1826 0010 30010540 		.word	1074069808
 1827              		.cfi_endproc
 1828              	.LFE37:
 1829              		.size	LED_CONTROL_GetInterruptSource, .-LED_CONTROL_GetInterruptSource
 1830              		.section	.text.LED_CONTROL_ClearInterrupt,"ax",%progbits
 1831              		.align	2
 1832              		.global	LED_CONTROL_ClearInterrupt
 1833              		.code	16
 1834              		.thumb_func
 1835              		.type	LED_CONTROL_ClearInterrupt, %function
 1836              	LED_CONTROL_ClearInterrupt:
 1837              	.LFB38:
1334:.\Generated_Source\PSoC4/LED_CONTROL.c **** 
1335:.\Generated_Source\PSoC4/LED_CONTROL.c **** 
1336:.\Generated_Source\PSoC4/LED_CONTROL.c **** /*******************************************************************************
1337:.\Generated_Source\PSoC4/LED_CONTROL.c **** * Function Name: LED_CONTROL_ClearInterrupt
1338:.\Generated_Source\PSoC4/LED_CONTROL.c **** ********************************************************************************
1339:.\Generated_Source\PSoC4/LED_CONTROL.c **** *
1340:.\Generated_Source\PSoC4/LED_CONTROL.c **** * Summary:
1341:.\Generated_Source\PSoC4/LED_CONTROL.c **** *  Clears the interrupt request.
1342:.\Generated_Source\PSoC4/LED_CONTROL.c **** *
1343:.\Generated_Source\PSoC4/LED_CONTROL.c **** * Parameters:
1344:.\Generated_Source\PSoC4/LED_CONTROL.c **** *   interruptMask: Mask of interrupts to clear
1345:.\Generated_Source\PSoC4/LED_CONTROL.c **** *   Values:
1346:.\Generated_Source\PSoC4/LED_CONTROL.c **** *     - LED_CONTROL_INTR_MASK_TC       - Terminal count mask
1347:.\Generated_Source\PSoC4/LED_CONTROL.c **** *     - LED_CONTROL_INTR_MASK_CC_MATCH - Compare count / capture mask
1348:.\Generated_Source\PSoC4/LED_CONTROL.c **** *
1349:.\Generated_Source\PSoC4/LED_CONTROL.c **** * Return:
1350:.\Generated_Source\PSoC4/LED_CONTROL.c **** *  None
1351:.\Generated_Source\PSoC4/LED_CONTROL.c **** *
1352:.\Generated_Source\PSoC4/LED_CONTROL.c **** *******************************************************************************/
1353:.\Generated_Source\PSoC4/LED_CONTROL.c **** void LED_CONTROL_ClearInterrupt(uint32 interruptMask)
1354:.\Generated_Source\PSoC4/LED_CONTROL.c **** {
ARM GAS  C:\Users\gsgill\AppData\Local\Temp\ccJYZky6.s 			page 57


 1838              		.loc 1 1354 0
 1839              		.cfi_startproc
 1840 0000 80B5     		push	{r7, lr}
 1841              		.cfi_def_cfa_offset 8
 1842              		.cfi_offset 7, -8
 1843              		.cfi_offset 14, -4
 1844 0002 82B0     		sub	sp, sp, #8
 1845              		.cfi_def_cfa_offset 16
 1846 0004 00AF     		add	r7, sp, #0
 1847              		.cfi_def_cfa_register 7
 1848 0006 7860     		str	r0, [r7, #4]
1355:.\Generated_Source\PSoC4/LED_CONTROL.c ****     LED_CONTROL_INTERRUPT_REQ_REG = interruptMask;
 1849              		.loc 1 1355 0
 1850 0008 024B     		ldr	r3, .L127
 1851 000a 7A68     		ldr	r2, [r7, #4]
 1852 000c 1A60     		str	r2, [r3]
1356:.\Generated_Source\PSoC4/LED_CONTROL.c **** }
 1853              		.loc 1 1356 0
 1854 000e BD46     		mov	sp, r7
 1855 0010 02B0     		add	sp, sp, #8
 1856              		@ sp needed
 1857 0012 80BD     		pop	{r7, pc}
 1858              	.L128:
 1859              		.align	2
 1860              	.L127:
 1861 0014 30010540 		.word	1074069808
 1862              		.cfi_endproc
 1863              	.LFE38:
 1864              		.size	LED_CONTROL_ClearInterrupt, .-LED_CONTROL_ClearInterrupt
 1865              		.section	.text.LED_CONTROL_SetInterrupt,"ax",%progbits
 1866              		.align	2
 1867              		.global	LED_CONTROL_SetInterrupt
 1868              		.code	16
 1869              		.thumb_func
 1870              		.type	LED_CONTROL_SetInterrupt, %function
 1871              	LED_CONTROL_SetInterrupt:
 1872              	.LFB39:
1357:.\Generated_Source\PSoC4/LED_CONTROL.c **** 
1358:.\Generated_Source\PSoC4/LED_CONTROL.c **** 
1359:.\Generated_Source\PSoC4/LED_CONTROL.c **** /*******************************************************************************
1360:.\Generated_Source\PSoC4/LED_CONTROL.c **** * Function Name: LED_CONTROL_SetInterrupt
1361:.\Generated_Source\PSoC4/LED_CONTROL.c **** ********************************************************************************
1362:.\Generated_Source\PSoC4/LED_CONTROL.c **** *
1363:.\Generated_Source\PSoC4/LED_CONTROL.c **** * Summary:
1364:.\Generated_Source\PSoC4/LED_CONTROL.c **** *  Sets a software interrupt request.
1365:.\Generated_Source\PSoC4/LED_CONTROL.c **** *
1366:.\Generated_Source\PSoC4/LED_CONTROL.c **** * Parameters:
1367:.\Generated_Source\PSoC4/LED_CONTROL.c **** *   interruptMask: Mask of interrupts to set
1368:.\Generated_Source\PSoC4/LED_CONTROL.c **** *   Values:
1369:.\Generated_Source\PSoC4/LED_CONTROL.c **** *     - LED_CONTROL_INTR_MASK_TC       - Terminal count mask
1370:.\Generated_Source\PSoC4/LED_CONTROL.c **** *     - LED_CONTROL_INTR_MASK_CC_MATCH - Compare count / capture mask
1371:.\Generated_Source\PSoC4/LED_CONTROL.c **** *
1372:.\Generated_Source\PSoC4/LED_CONTROL.c **** * Return:
1373:.\Generated_Source\PSoC4/LED_CONTROL.c **** *  None
1374:.\Generated_Source\PSoC4/LED_CONTROL.c **** *
1375:.\Generated_Source\PSoC4/LED_CONTROL.c **** *******************************************************************************/
1376:.\Generated_Source\PSoC4/LED_CONTROL.c **** void LED_CONTROL_SetInterrupt(uint32 interruptMask)
ARM GAS  C:\Users\gsgill\AppData\Local\Temp\ccJYZky6.s 			page 58


1377:.\Generated_Source\PSoC4/LED_CONTROL.c **** {
 1873              		.loc 1 1377 0
 1874              		.cfi_startproc
 1875 0000 80B5     		push	{r7, lr}
 1876              		.cfi_def_cfa_offset 8
 1877              		.cfi_offset 7, -8
 1878              		.cfi_offset 14, -4
 1879 0002 82B0     		sub	sp, sp, #8
 1880              		.cfi_def_cfa_offset 16
 1881 0004 00AF     		add	r7, sp, #0
 1882              		.cfi_def_cfa_register 7
 1883 0006 7860     		str	r0, [r7, #4]
1378:.\Generated_Source\PSoC4/LED_CONTROL.c ****     LED_CONTROL_INTERRUPT_SET_REG = interruptMask;
 1884              		.loc 1 1378 0
 1885 0008 024B     		ldr	r3, .L130
 1886 000a 7A68     		ldr	r2, [r7, #4]
 1887 000c 1A60     		str	r2, [r3]
1379:.\Generated_Source\PSoC4/LED_CONTROL.c **** }
 1888              		.loc 1 1379 0
 1889 000e BD46     		mov	sp, r7
 1890 0010 02B0     		add	sp, sp, #8
 1891              		@ sp needed
 1892 0012 80BD     		pop	{r7, pc}
 1893              	.L131:
 1894              		.align	2
 1895              	.L130:
 1896 0014 34010540 		.word	1074069812
 1897              		.cfi_endproc
 1898              	.LFE39:
 1899              		.size	LED_CONTROL_SetInterrupt, .-LED_CONTROL_SetInterrupt
 1900              		.text
 1901              	.Letext0:
 1902              		.file 2 ".\\Generated_Source\\PSoC4\\cytypes.h"