ARM GAS  C:\Users\gsgill\AppData\Local\Temp\ccTK1PDq.s 			page 1


   1              		.cpu cortex-m0
   2              		.fpu softvfp
   3              		.eabi_attribute 20, 1
   4              		.eabi_attribute 21, 1
   5              		.eabi_attribute 23, 3
   6              		.eabi_attribute 24, 1
   7              		.eabi_attribute 25, 1
   8              		.eabi_attribute 26, 1
   9              		.eabi_attribute 30, 6
  10              		.eabi_attribute 34, 0
  11              		.eabi_attribute 18, 4
  12              		.code	16
  13              		.file	"main.c"
  14              		.text
  15              	.Ltext0:
  16              		.cfi_sections	.debug_frame
  17              		.comm	curPos,2,2
  18              		.comm	oldPos,2,2
  19              		.section	.text.main,"ax",%progbits
  20              		.align	2
  21              		.global	main
  22              		.code	16
  23              		.thumb_func
  24              		.type	main, %function
  25              	main:
  26              	.LFB33:
  27              		.file 1 ".\\main.c"
   1:.\main.c      **** /*******************************************************************************
   2:.\main.c      **** * File Name: main.c
   3:.\main.c      **** *
   4:.\main.c      **** * Version: 1.20
   5:.\main.c      **** *
   6:.\main.c      **** * Description:
   7:.\main.c      **** *  The project explains the usage of CapSense CSD component. The 2 buttons and
   8:.\main.c      **** *  linear sliders are used as sensing elements. LED displays buttons active 
   9:.\main.c      **** *  state and slider position is shown on LCD.
  10:.\main.c      **** *
  11:.\main.c      **** ********************************************************************************
  12:.\main.c      **** * Copyright 2013, Cypress Semiconductor Corporation. All rights reserved.
  13:.\main.c      **** * This software is owned by Cypress Semiconductor Corporation and is protected
  14:.\main.c      **** * by and subject to worldwide patent and copyright laws and treaties.
  15:.\main.c      **** * Therefore, you may use this software only as provided in the license agreement
  16:.\main.c      **** * accompanying the software package from which you obtained this software.
  17:.\main.c      **** * CYPRESS AND ITS SUPPLIERS MAKE NO WARRANTY OF ANY KIND, EXPRESS OR IMPLIED,
  18:.\main.c      **** * WITH REGARD TO THIS SOFTWARE, INCLUDING, BUT NOT LIMITED TO, NONINFRINGEMENT,
  19:.\main.c      **** * IMPLIED WARRANTIES OF MERCHANTABILITY AND FITNESS FOR A PARTICULAR PURPOSE.
  20:.\main.c      **** *******************************************************************************/
  21:.\main.c      **** 
  22:.\main.c      **** #include <device.h>
  23:.\main.c      **** 
  24:.\main.c      **** /* CapSense Slider resoluton is set to 127 (7 bits).
  25:.\main.c      **** *  Since PWM has 16 bit resolution, slider position value should be shifted left
  26:.\main.c      **** *  by 9 bits.
  27:.\main.c      **** */
  28:.\main.c      **** #define SLIDER_POS_TO_COMPARE_SHIFT    (9u)
  29:.\main.c      **** 
  30:.\main.c      **** uint16 curPos, oldPos;
ARM GAS  C:\Users\gsgill\AppData\Local\Temp\ccTK1PDq.s 			page 2


  31:.\main.c      **** 
  32:.\main.c      **** /*******************************************************************************
  33:.\main.c      **** * Function Name: main
  34:.\main.c      **** ********************************************************************************
  35:.\main.c      **** * Summary:
  36:.\main.c      **** *  Main function performs following functions:
  37:.\main.c      **** *   1. Enable global interrupts.
  38:.\main.c      **** *   2. Initialize CapSense CSD and Start the sensor scanning loop.
  39:.\main.c      **** *   3. Process scanning results and display it on with LEDs.
  40:.\main.c      **** *
  41:.\main.c      **** * Parameters:
  42:.\main.c      **** *  None
  43:.\main.c      **** *
  44:.\main.c      **** * Return:
  45:.\main.c      **** *  None
  46:.\main.c      **** *
  47:.\main.c      **** *******************************************************************************/
  48:.\main.c      **** int main()
  49:.\main.c      **** {
  28              		.loc 1 49 0
  29              		.cfi_startproc
  30 0000 80B5     		push	{r7, lr}
  31              		.cfi_def_cfa_offset 8
  32              		.cfi_offset 7, -8
  33              		.cfi_offset 14, -4
  34 0002 00AF     		add	r7, sp, #0
  35              		.cfi_def_cfa_register 7
  50:.\main.c      ****     /* Enable global interrupts */
  51:.\main.c      ****     CyGlobalIntEnable;
  36              		.loc 1 51 0
  37              	@ 51 ".\main.c" 1
  38 0004 62B6     		CPSIE   i
  39              	@ 0 "" 2
  52:.\main.c      ****     
  53:.\main.c      ****     /* Start PWM and CapSense components */
  54:.\main.c      ****     LED_CONTROL_Start();
  40              		.loc 1 54 0
  41              		.code	16
  42 0006 FFF7FEFF 		bl	LED_CONTROL_Start
  55:.\main.c      **** 
  56:.\main.c      ****     CapSense_CSD_Start();	
  43              		.loc 1 56 0
  44 000a FFF7FEFF 		bl	CapSense_CSD_Start
  57:.\main.c      **** 
  58:.\main.c      ****     /* Initialize baselines */ 
  59:.\main.c      ****     CapSense_CSD_InitializeAllBaselines();
  45              		.loc 1 59 0
  46 000e FFF7FEFF 		bl	CapSense_CSD_InitializeAllBaselines
  47              	.L3:
  60:.\main.c      ****     
  61:.\main.c      ****     while(1u)
  62:.\main.c      ****     {
  63:.\main.c      ****         Pin_1_Write(1);
  48              		.loc 1 63 0
  49 0012 0120     		mov	r0, #1
  50 0014 FFF7FEFF 		bl	Pin_1_Write
  64:.\main.c      ****         /* Update all baselines */
ARM GAS  C:\Users\gsgill\AppData\Local\Temp\ccTK1PDq.s 			page 3


  65:.\main.c      ****         CapSense_CSD_UpdateEnabledBaselines();
  51              		.loc 1 65 0
  52 0018 FFF7FEFF 		bl	CapSense_CSD_UpdateEnabledBaselines
  66:.\main.c      ****         
  67:.\main.c      ****    		/* Start scanning all enabled sensors */
  68:.\main.c      ****     	CapSense_CSD_ScanEnabledWidgets();
  53              		.loc 1 68 0
  54 001c FFF7FEFF 		bl	CapSense_CSD_ScanEnabledWidgets
  69:.\main.c      ****     
  70:.\main.c      ****         /* Wait for scanning to complete */
  71:.\main.c      **** 		while(CapSense_CSD_IsBusy() != 0)
  55              		.loc 1 71 0
  56 0020 C046     		mov	r8, r8
  57              	.L2:
  58              		.loc 1 71 0 is_stmt 0 discriminator 1
  59 0022 FFF7FEFF 		bl	CapSense_CSD_IsBusy
  60 0026 031C     		mov	r3, r0
  61 0028 002B     		cmp	r3, #0
  62 002a FAD1     		bne	.L2
  72:.\main.c      **** 		{
  73:.\main.c      **** 			/* Loop until condition true */
  74:.\main.c      **** 		}
  75:.\main.c      **** 
  76:.\main.c      **** 		/* Display CapSense state using LEDs */
  77:.\main.c      ****         CapSense_DisplayState();
  63              		.loc 1 77 0 is_stmt 1
  64 002c FFF7FEFF 		bl	CapSense_DisplayState
  78:.\main.c      ****     }
  65              		.loc 1 78 0
  66 0030 EFE7     		b	.L3
  67              		.cfi_endproc
  68              	.LFE33:
  69              		.size	main, .-main
  70 0032 C046     		.section	.text.CapSense_DisplayState,"ax",%progbits
  71              		.align	2
  72              		.global	CapSense_DisplayState
  73              		.code	16
  74              		.thumb_func
  75              		.type	CapSense_DisplayState, %function
  76              	CapSense_DisplayState:
  77              	.LFB34:
  79:.\main.c      **** }
  80:.\main.c      **** 
  81:.\main.c      **** /*******************************************************************************
  82:.\main.c      **** * Function Name: CapSense_DisplayState
  83:.\main.c      **** ********************************************************************************
  84:.\main.c      **** * Summary:
  85:.\main.c      **** *  Changes LEDs brightness by changing the duty cycle of PWM signals.
  86:.\main.c      **** *
  87:.\main.c      **** * Parameters:
  88:.\main.c      **** *  None
  89:.\main.c      **** *
  90:.\main.c      **** * Return:
  91:.\main.c      **** *  None
  92:.\main.c      **** *
  93:.\main.c      **** *******************************************************************************/
  94:.\main.c      **** void CapSense_DisplayState(void)
ARM GAS  C:\Users\gsgill\AppData\Local\Temp\ccTK1PDq.s 			page 4


  95:.\main.c      **** {
  78              		.loc 1 95 0
  79              		.cfi_startproc
  80 0000 80B5     		push	{r7, lr}
  81              		.cfi_def_cfa_offset 8
  82              		.cfi_offset 7, -8
  83              		.cfi_offset 14, -4
  84 0002 00AF     		add	r7, sp, #0
  85              		.cfi_def_cfa_register 7
  96:.\main.c      ****     /* Find Slider Position */
  97:.\main.c      ****     curPos = CapSense_CSD_GetCentroidPos(CapSense_CSD_LINEARSLIDER0__LS);    
  86              		.loc 1 97 0
  87 0004 0020     		mov	r0, #0
  88 0006 FFF7FEFF 		bl	CapSense_CSD_GetCentroidPos
  89 000a 031C     		mov	r3, r0
  90 000c 1A1C     		mov	r2, r3
  91 000e 104B     		ldr	r3, .L7
  92 0010 1A80     		strh	r2, [r3]
  98:.\main.c      ****     
  99:.\main.c      ****     /* Reset position */
 100:.\main.c      ****     if(curPos == 0xFFFFu)
  93              		.loc 1 100 0
  94 0012 0F4B     		ldr	r3, .L7
  95 0014 1A88     		ldrh	r2, [r3]
  96 0016 0F4B     		ldr	r3, .L7+4
  97 0018 9A42     		cmp	r2, r3
  98 001a 02D1     		bne	.L5
 101:.\main.c      ****     {
 102:.\main.c      ****         curPos = 0u;
  99              		.loc 1 102 0
 100 001c 0C4B     		ldr	r3, .L7
 101 001e 0022     		mov	r2, #0
 102 0020 1A80     		strh	r2, [r3]
 103              	.L5:
 103:.\main.c      ****     }
 104:.\main.c      ****                 
 105:.\main.c      ****     /* Move bargraph */
 106:.\main.c      ****     if (curPos != oldPos)
 104              		.loc 1 106 0
 105 0022 0B4B     		ldr	r3, .L7
 106 0024 1A88     		ldrh	r2, [r3]
 107 0026 0C4B     		ldr	r3, .L7+8
 108 0028 1B88     		ldrh	r3, [r3]
 109 002a 9A42     		cmp	r2, r3
 110 002c 0DD0     		beq	.L4
 107:.\main.c      ****     {
 108:.\main.c      ****         oldPos = curPos;
 111              		.loc 1 108 0
 112 002e 084B     		ldr	r3, .L7
 113 0030 1A88     		ldrh	r2, [r3]
 114 0032 094B     		ldr	r3, .L7+8
 115 0034 1A80     		strh	r2, [r3]
 109:.\main.c      ****         /* Display Slider bargraph */
 110:.\main.c      ****         if (curPos != 0u)
 116              		.loc 1 110 0
 117 0036 064B     		ldr	r3, .L7
 118 0038 1B88     		ldrh	r3, [r3]
ARM GAS  C:\Users\gsgill\AppData\Local\Temp\ccTK1PDq.s 			page 5


 119 003a 002B     		cmp	r3, #0
 120 003c 05D0     		beq	.L4
 111:.\main.c      ****         {
 112:.\main.c      ****             LED_CONTROL_WriteCompare((uint32)curPos << SLIDER_POS_TO_COMPARE_SHIFT);
 121              		.loc 1 112 0
 122 003e 044B     		ldr	r3, .L7
 123 0040 1B88     		ldrh	r3, [r3]
 124 0042 5B02     		lsl	r3, r3, #9
 125 0044 181C     		mov	r0, r3
 126 0046 FFF7FEFF 		bl	LED_CONTROL_WriteCompare
 127              	.L4:
 113:.\main.c      ****         }        
 114:.\main.c      ****     }
 115:.\main.c      **** }
 128              		.loc 1 115 0
 129 004a BD46     		mov	sp, r7
 130              		@ sp needed
 131 004c 80BD     		pop	{r7, pc}
 132              	.L8:
 133 004e C046     		.align	2
 134              	.L7:
 135 0050 00000000 		.word	curPos
 136 0054 FFFF0000 		.word	65535
 137 0058 00000000 		.word	oldPos
 138              		.cfi_endproc
 139              	.LFE34:
 140              		.size	CapSense_DisplayState, .-CapSense_DisplayState
 141              		.text
 142              	.Letext0:
 143              		.file 2 ".\\Generated_Source\\PSoC4/cytypes.h"